
voting-machine.bin:     file format binary


Disassembly of section .data:

00000000 <.data>:
       0:	0c 94 6c 05 	jmp	0xad8	;  0xad8
       4:	0c 94 94 05 	jmp	0xb28	;  0xb28
       8:	0c 94 94 05 	jmp	0xb28	;  0xb28
       c:	0c 94 fd 0b 	jmp	0x17fa	;  0x17fa
      10:	0c 94 fd 0b 	jmp	0x17fa	;  0x17fa
      14:	0c 94 fd 0b 	jmp	0x17fa	;  0x17fa
      18:	0c 94 94 05 	jmp	0xb28	;  0xb28
      1c:	0c 94 94 05 	jmp	0xb28	;  0xb28
      20:	0c 94 94 05 	jmp	0xb28	;  0xb28
      24:	0c 94 94 05 	jmp	0xb28	;  0xb28
      28:	0c 94 94 05 	jmp	0xb28	;  0xb28
      2c:	0c 94 94 05 	jmp	0xb28	;  0xb28
      30:	0c 94 94 05 	jmp	0xb28	;  0xb28
      34:	0c 94 94 05 	jmp	0xb28	;  0xb28
      38:	0c 94 94 05 	jmp	0xb28	;  0xb28
      3c:	0c 94 94 05 	jmp	0xb28	;  0xb28
      40:	0c 94 5b 0b 	jmp	0x16b6	;  0x16b6
      44:	0c 94 94 05 	jmp	0xb28	;  0xb28
      48:	0c 94 cb 0b 	jmp	0x1796	;  0x1796
      4c:	0c 94 a5 0b 	jmp	0x174a	;  0x174a
      50:	0c 94 94 05 	jmp	0xb28	;  0xb28
      54:	0c 94 94 05 	jmp	0xb28	;  0xb28
      58:	0c 94 94 05 	jmp	0xb28	;  0xb28
      5c:	0c 94 94 05 	jmp	0xb28	;  0xb28
      60:	0c 94 94 05 	jmp	0xb28	;  0xb28
      64:	0c 94 94 05 	jmp	0xb28	;  0xb28
      68:	42 61       	ori	r20, 0x12	; 18
      6a:	6c 74       	andi	r22, 0x4C	; 76
      6c:	61 73       	andi	r22, 0x31	; 49
      6e:	61 72       	andi	r22, 0x21	; 33
      70:	20 52       	subi	r18, 0x20	; 32
      72:	75 62       	ori	r23, 0x25	; 37
      74:	69 6f       	ori	r22, 0xF9	; 249
      76:	00 43       	sbci	r16, 0x30	; 48
      78:	68 75       	andi	r22, 0x58	; 88
      7a:	63 68       	ori	r22, 0x83	; 131
      7c:	6f 20       	and	r6, r15
      7e:	52 6f       	ori	r21, 0xF2	; 242
      80:	73 61       	ori	r23, 0x13	; 19
      82:	6c 65       	ori	r22, 0x5C	; 92
      84:	73 00       	.word	0x0073	; ????
      86:	48 65       	ori	r20, 0x58	; 88
      88:	72 62       	ori	r23, 0x22	; 34
      8a:	65 72       	andi	r22, 0x25	; 37
      8c:	74 20       	and	r7, r4
      8e:	43 61       	ori	r20, 0x13	; 19
      90:	6c 64       	ori	r22, 0x4C	; 76
      92:	65 72       	andi	r22, 0x25	; 37
      94:	6f 6e       	ori	r22, 0xEF	; 239
      96:	00 4d       	sbci	r16, 0xD0	; 208
      98:	61 72       	andi	r22, 0x21	; 33
      9a:	63 20       	and	r6, r3
      9c:	47 75       	andi	r20, 0x57	; 87
      9e:	74 69       	ori	r23, 0x94	; 148
      a0:	65 72       	andi	r22, 0x25	; 37
      a2:	72 65       	ori	r23, 0x52	; 82
      a4:	7a 00       	.word	0x007a	; ????
      a6:	47 72       	andi	r20, 0x27	; 39
      a8:	69 73       	andi	r22, 0x39	; 57
      aa:	65 6c       	ori	r22, 0xC5	; 197
      ac:	64 61       	ori	r22, 0x14	; 20
      ae:	20 50       	subi	r18, 0x00	; 0
      b0:	61 6c       	ori	r22, 0xC1	; 193
      b2:	6d 61       	ori	r22, 0x1D	; 29
      b4:	00 4f       	sbci	r16, 0xF0	; 240
      b6:	6e 6f       	ori	r22, 0xFE	; 254
      b8:	66 72       	andi	r22, 0x26	; 38
      ba:	65 20       	and	r6, r5
      bc:	50 72       	andi	r21, 0x20	; 32
      be:	69 65       	ori	r22, 0x59	; 89
      c0:	74 6f       	ori	r23, 0xF4	; 244
      c2:	00 41       	sbci	r16, 0x10	; 16
      c4:	7a 75       	andi	r23, 0x5A	; 90
      c6:	63 65       	ori	r22, 0x53	; 83
      c8:	6e 61       	ori	r22, 0x1E	; 30
      ca:	20 4d       	sbci	r18, 0xD0	; 208
      cc:	61 72       	andi	r22, 0x21	; 33
      ce:	69 00       	.word	0x0069	; ????
      d0:	46 69       	ori	r20, 0x96	; 150
      d2:	64 65       	ori	r22, 0x54	; 84
      d4:	6c 20       	and	r6, r12
      d6:	5a 61       	ori	r21, 0x1A	; 26
      d8:	6d 6f       	ori	r22, 0xFD	; 253
      da:	72 61       	ori	r23, 0x12	; 18
      dc:	00 52       	subi	r16, 0x20	; 32
      de:	6f 64       	ori	r22, 0x4F	; 79
      e0:	6f 6c       	ori	r22, 0xCF	; 207
      e2:	66 6f       	ori	r22, 0xF6	; 246
      e4:	20 41       	sbci	r18, 0x10	; 16
      e6:	6e 67       	ori	r22, 0x7E	; 126
      e8:	6c 61       	ori	r22, 0x1C	; 28
      ea:	64 61       	ori	r22, 0x14	; 20
      ec:	00 43       	sbci	r16, 0x30	; 48
      ee:	61 72       	andi	r22, 0x21	; 33
      f0:	6c 61       	ori	r22, 0x1C	; 28
      f2:	20 4d       	sbci	r18, 0xD0	; 208
      f4:	61 64       	ori	r22, 0x41	; 65
      f6:	72 69       	ori	r23, 0x92	; 146
      f8:	67 61       	ori	r22, 0x17	; 23
      fa:	6c 00       	.word	0x006c	; ????
      fc:	4c 65       	ori	r20, 0x5C	; 92
      fe:	6f 6e       	ori	r22, 0xEF	; 239
     100:	6f 72       	andi	r22, 0x2F	; 47
     102:	20 4c       	sbci	r18, 0xC0	; 192
     104:	6c 6f       	ori	r22, 0xFC	; 252
     106:	70 69       	ori	r23, 0x90	; 144
     108:	73 00       	.word	0x0073	; ????
     10a:	4c 6f       	ori	r20, 0xFC	; 252
     10c:	72 65       	ori	r23, 0x52	; 82
     10e:	6e 61       	ori	r22, 0x1E	; 30
     110:	20 4f       	sbci	r18, 0xF0	; 240
     112:	6c 69       	ori	r22, 0x9C	; 156
     114:	76 65       	ori	r23, 0x56	; 86
     116:	00 45       	sbci	r16, 0x50	; 80
     118:	6d 69       	ori	r22, 0x9D	; 157
     11a:	67 64       	ori	r22, 0x47	; 71
     11c:	69 6f       	ori	r22, 0xF9	; 249
     11e:	20 4e       	sbci	r18, 0xE0	; 224
     120:	75 6e       	ori	r23, 0xE5	; 229
     122:	65 7a       	andi	r22, 0xA5	; 165
     124:	00 44       	sbci	r16, 0x40	; 64
     126:	69 65       	ori	r22, 0x59	; 89
     128:	67 6f       	ori	r22, 0xF7	; 247
     12a:	20 52       	subi	r18, 0x20	; 32
     12c:	6f 70       	andi	r22, 0x0F	; 15
     12e:	65 72       	andi	r22, 0x25	; 37
     130:	6f 00       	.word	0x006f	; ????
     132:	52 6f       	ori	r21, 0xF2	; 242
     134:	64 72       	andi	r22, 0x24	; 36
     136:	69 67       	ori	r22, 0x79	; 121
     138:	6f 20       	and	r6, r15
     13a:	56 61       	ori	r21, 0x16	; 22
     13c:	7a 71       	andi	r23, 0x1A	; 26
     13e:	75 65       	ori	r23, 0x55	; 85
     140:	7a 00       	.word	0x007a	; ????
     142:	4c 75       	andi	r20, 0x5C	; 92
     144:	70 65       	ori	r23, 0x50	; 80
     146:	20 55       	subi	r18, 0x50	; 80
     148:	72 65       	ori	r23, 0x52	; 82
     14a:	6e 61       	ori	r22, 0x1E	; 30
     14c:	00 48       	sbci	r16, 0x80	; 128
     14e:	75 6d       	ori	r23, 0xD5	; 213
     150:	62 65       	ori	r22, 0x52	; 82
     152:	72 74       	andi	r23, 0x42	; 66
     154:	6f 20       	and	r6, r15
     156:	50 65       	ori	r21, 0x50	; 80
     158:	64 72       	andi	r22, 0x24	; 36
     15a:	6f 00       	.word	0x006f	; ????
     15c:	52 6f       	ori	r21, 0xF2	; 242
     15e:	73 61       	ori	r23, 0x13	; 19
     160:	6c 76       	andi	r22, 0x6C	; 108
     162:	61 20       	and	r6, r1
     164:	56 69       	ori	r21, 0x96	; 150
     166:	6c 6c       	ori	r22, 0xCC	; 204
     168:	61 00       	.word	0x0061	; ????
     16a:	4c 6f       	ori	r20, 0xFC	; 252
     16c:	75 72       	andi	r23, 0x25	; 37
     16e:	64 65       	ori	r22, 0x54	; 84
     170:	73 20       	and	r7, r3
     172:	4d 6f       	ori	r20, 0xFD	; 253
     174:	73 71       	andi	r23, 0x13	; 19
     176:	75 65       	ori	r23, 0x55	; 85
     178:	72 61       	ori	r23, 0x12	; 18
     17a:	00 47       	sbci	r16, 0x70	; 112
     17c:	6f 64       	ori	r22, 0x4F	; 79
     17e:	6f 66       	ori	r22, 0x6F	; 111
     180:	72 65       	ori	r23, 0x52	; 82
     182:	64 6f       	ori	r22, 0xF4	; 244
     184:	20 4d       	sbci	r18, 0xD0	; 208
     186:	61 72       	andi	r22, 0x21	; 33
     188:	69 6e       	ori	r22, 0xE9	; 233
     18a:	00 4a       	sbci	r16, 0xA0	; 160
     18c:	6f 73       	andi	r22, 0x3F	; 63
     18e:	65 20       	and	r6, r5
     190:	4f 72       	andi	r20, 0x2F	; 47
     192:	6f 7a       	andi	r22, 0xAF	; 175
     194:	63 6f       	ori	r22, 0xF3	; 243
     196:	00 48       	sbci	r16, 0x80	; 128
     198:	65 72       	andi	r22, 0x25	; 37
     19a:	62 65       	ori	r22, 0x52	; 82
     19c:	72 74       	andi	r23, 0x42	; 66
     19e:	20 52       	subi	r18, 0x20	; 32
     1a0:	6f 62       	ori	r22, 0x2F	; 47
     1a2:	6c 65       	ori	r22, 0x5C	; 92
     1a4:	64 6f       	ori	r22, 0xF4	; 244
     1a6:	00 4d       	sbci	r16, 0xD0	; 208
     1a8:	61 72       	andi	r22, 0x21	; 33
     1aa:	69 61       	ori	r22, 0x19	; 25
     1ac:	20 41       	sbci	r18, 0x10	; 16
     1ae:	72 6d       	ori	r23, 0xD2	; 210
     1b0:	65 6e       	ori	r22, 0xE5	; 229
     1b2:	67 6f       	ori	r22, 0xF7	; 247
     1b4:	6c 00       	.word	0x006c	; ????
     1b6:	52 6f       	ori	r21, 0xF2	; 242
     1b8:	62 65       	ori	r22, 0x52	; 82
     1ba:	72 74       	andi	r23, 0x42	; 66
     1bc:	6f 20       	and	r6, r15
     1be:	41 63       	ori	r20, 0x31	; 49
     1c0:	75 6e       	ori	r23, 0xE5	; 229
     1c2:	61 00       	.word	0x0061	; ????
     1c4:	4d 61       	ori	r20, 0x1D	; 29
     1c6:	72 69       	ori	r23, 0x92	; 146
     1c8:	61 20       	and	r6, r1
     1ca:	54 6f       	ori	r21, 0xF4	; 244
     1cc:	72 72       	andi	r23, 0x22	; 34
     1ce:	65 63       	ori	r22, 0x35	; 53
     1d0:	69 6c       	ori	r22, 0xC9	; 201
     1d2:	6c 61       	ori	r22, 0x1C	; 28
     1d4:	00 53       	subi	r16, 0x30	; 48
     1d6:	61 6c       	ori	r22, 0xC1	; 193
     1d8:	76 61       	ori	r23, 0x16	; 22
     1da:	64 6f       	ori	r22, 0xF4	; 244
     1dc:	72 20       	and	r7, r2
     1de:	4c 75       	andi	r20, 0x5C	; 92
     1e0:	6e 61       	ori	r22, 0x1E	; 30
     1e2:	00 4a       	sbci	r16, 0xA0	; 160
     1e4:	61 69       	ori	r22, 0x91	; 145
     1e6:	6d 65       	ori	r22, 0x5D	; 93
     1e8:	20 50       	subi	r18, 0x00	; 0
     1ea:	65 64       	ori	r22, 0x45	; 69
     1ec:	72 65       	ori	r23, 0x52	; 82
     1ee:	72 6f       	ori	r23, 0xF2	; 242
     1f0:	00 41       	sbci	r16, 0x10	; 16
     1f2:	6e 61       	ori	r22, 0x1E	; 30
     1f4:	63 6c       	ori	r22, 0xC3	; 195
     1f6:	65 74       	andi	r22, 0x45	; 69
     1f8:	6f 20       	and	r6, r15
     1fa:	51 75       	andi	r21, 0x51	; 81
     1fc:	69 72       	andi	r22, 0x29	; 41
     1fe:	6f 67       	ori	r22, 0x7F	; 127
     200:	61 00       	.word	0x0061	; ????
     202:	50 61       	ori	r21, 0x10	; 16
     204:	7a 20       	and	r7, r10
     206:	43 6f       	ori	r20, 0xF3	; 243
     208:	62 6f       	ori	r22, 0xF2	; 242
     20a:	00 59       	subi	r16, 0x90	; 144
     20c:	65 73       	andi	r22, 0x35	; 53
     20e:	69 63       	ori	r22, 0x39	; 57
     210:	61 20       	and	r6, r1
     212:	50 65       	ori	r21, 0x50	; 80
     214:	72 65       	ori	r23, 0x52	; 82
     216:	7a 00       	.word	0x007a	; ????
     218:	43 68       	ori	r20, 0x83	; 131
     21a:	69 74       	andi	r22, 0x49	; 73
     21c:	61 20       	and	r6, r1
     21e:	42 65       	ori	r20, 0x52	; 82
     220:	72 6d       	ori	r23, 0xD2	; 210
     222:	65 6a       	ori	r22, 0xA5	; 165
     224:	6f 00       	.word	0x006f	; ????
     226:	41 64       	ori	r20, 0x41	; 65
     228:	65 6c       	ori	r22, 0xC5	; 197
     22a:	61 72       	andi	r22, 0x21	; 33
     22c:	64 6f       	ori	r22, 0xF4	; 244
     22e:	20 56       	subi	r18, 0x60	; 96
     230:	69 6c       	ori	r22, 0xC9	; 201
     232:	6c 61       	ori	r22, 0x1C	; 28
     234:	72 00       	.word	0x0072	; ????
     236:	4c 69       	ori	r20, 0x9C	; 156
     238:	6c 69       	ori	r22, 0x9C	; 156
     23a:	61 20       	and	r6, r1
     23c:	4e 61       	ori	r20, 0x1E	; 30
     23e:	72 61       	ori	r23, 0x12	; 18
     240:	6e 6a       	ori	r22, 0xAE	; 174
     242:	6f 00       	.word	0x006f	; ????
     244:	45 6c       	ori	r20, 0xC5	; 197
     246:	6f 79       	andi	r22, 0x9F	; 159
     248:	20 43       	sbci	r18, 0x30	; 48
     24a:	61 74       	andi	r22, 0x41	; 65
     24c:	61 6c       	ori	r22, 0xC1	; 193
     24e:	61 6e       	ori	r22, 0xE1	; 225
     250:	00 52       	subi	r16, 0x20	; 32
     252:	61 66       	ori	r22, 0x61	; 97
     254:	61 20       	and	r6, r1
     256:	4f 6a       	ori	r20, 0xAF	; 175
     258:	65 64       	ori	r22, 0x45	; 69
     25a:	61 00       	.word	0x0061	; ????
     25c:	4d 6f       	ori	r20, 0xFD	; 253
     25e:	64 65       	ori	r22, 0x54	; 84
     260:	73 74       	andi	r23, 0x43	; 67
     262:	6f 20       	and	r6, r15
     264:	50 6f       	ori	r21, 0xF0	; 240
     266:	72 74       	andi	r23, 0x42	; 66
     268:	69 6c       	ori	r22, 0xC9	; 201
     26a:	6c 6f       	ori	r22, 0xFC	; 252
     26c:	00 54       	subi	r16, 0x40	; 64
     26e:	65 72       	andi	r22, 0x25	; 37
     270:	65 73       	andi	r22, 0x35	; 53
     272:	69 74       	andi	r22, 0x49	; 73
     274:	61 20       	and	r6, r1
     276:	52 75       	andi	r21, 0x52	; 82
     278:	62 69       	ori	r22, 0x92	; 146
     27a:	6f 00       	.word	0x006f	; ????
     27c:	41 72       	andi	r20, 0x21	; 33
     27e:	69 65       	ori	r22, 0x59	; 89
     280:	6c 20       	and	r6, r12
     282:	43 61       	ori	r20, 0x13	; 19
     284:	70 61       	ori	r23, 0x10	; 16
     286:	72 72       	andi	r23, 0x22	; 34
     288:	6f 73       	andi	r22, 0x3F	; 63
     28a:	00 4e       	sbci	r16, 0xE0	; 224
     28c:	61 6e       	ori	r22, 0xE1	; 225
     28e:	64 6f       	ori	r22, 0xF4	; 244
     290:	20 44       	sbci	r18, 0x40	; 64
     292:	6f 6d       	ori	r22, 0xDF	; 223
     294:	69 6e       	ori	r22, 0xE9	; 233
     296:	67 75       	andi	r22, 0x57	; 87
     298:	65 7a       	andi	r22, 0xA5	; 165
     29a:	00 56       	subi	r16, 0x60	; 96
     29c:	69 6f       	ori	r22, 0xF9	; 249
     29e:	6c 65       	ori	r22, 0x5C	; 92
     2a0:	74 61       	ori	r23, 0x14	; 20
     2a2:	20 4c       	sbci	r18, 0xC0	; 192
     2a4:	6f 6e       	ori	r22, 0xEF	; 239
     2a6:	67 61       	ori	r22, 0x17	; 23
     2a8:	00 41       	sbci	r16, 0x10	; 16
     2aa:	6c 66       	ori	r22, 0x6C	; 108
     2ac:	6f 6e       	ori	r22, 0xEF	; 239
     2ae:	73 6f       	ori	r23, 0xF3	; 243
     2b0:	20 45       	sbci	r18, 0x50	; 80
     2b2:	6c 6f       	ori	r22, 0xFC	; 252
     2b4:	72 7a       	andi	r23, 0xA2	; 162
     2b6:	61 00       	.word	0x0061	; ????
     2b8:	5a 61       	ori	r21, 0x1A	; 26
     2ba:	69 64       	ori	r22, 0x49	; 73
     2bc:	61 20       	and	r6, r1
     2be:	42 65       	ori	r20, 0x52	; 82
     2c0:	72 65       	ori	r23, 0x52	; 82
     2c2:	6e 67       	ori	r22, 0x7E	; 126
     2c4:	75 65       	ori	r23, 0x55	; 85
     2c6:	72 00       	.word	0x0072	; ????
     2c8:	50 61       	ori	r21, 0x10	; 16
     2ca:	73 74       	andi	r23, 0x43	; 67
     2cc:	6f 72       	andi	r22, 0x2F	; 47
     2ce:	20 53       	subi	r18, 0x30	; 48
     2d0:	61 6e       	ori	r22, 0xE1	; 225
     2d2:	6d 69       	ori	r22, 0x9D	; 157
     2d4:	67 75       	andi	r22, 0x57	; 87
     2d6:	65 6c       	ori	r22, 0xC5	; 197
     2d8:	00 47       	sbci	r16, 0x70	; 112
     2da:	61 6c       	ori	r22, 0xC1	; 193
     2dc:	6f 20       	and	r6, r15
     2de:	56 69       	ori	r21, 0x96	; 150
     2e0:	6c 61       	ori	r22, 0x1C	; 28
     2e2:	00 4c       	sbci	r16, 0xC0	; 192
     2e4:	75 6e       	ori	r23, 0xE5	; 229
     2e6:	61 20       	and	r6, r1
     2e8:	56 69       	ori	r21, 0x96	; 150
     2ea:	7a 63       	ori	r23, 0x3A	; 58
     2ec:	61 69       	ori	r22, 0x91	; 145
     2ee:	6e 6f       	ori	r22, 0xFE	; 254
     2f0:	00 47       	sbci	r16, 0x70	; 112
     2f2:	72 61       	ori	r23, 0x12	; 18
     2f4:	63 69       	ori	r22, 0x93	; 147
     2f6:	61 6e       	ori	r22, 0xE1	; 225
     2f8:	6f 20       	and	r6, r15
     2fa:	43 61       	ori	r20, 0x13	; 19
     2fc:	6e 6f       	ori	r22, 0xFE	; 254
     2fe:	00 4d       	sbci	r16, 0xD0	; 208
     300:	61 72       	andi	r22, 0x21	; 33
     302:	69 61       	ori	r22, 0x19	; 25
     304:	20 50       	subi	r18, 0x00	; 0
     306:	75 67       	ori	r23, 0x75	; 117
     308:	61 00       	.word	0x0061	; ????
     30a:	4d 61       	ori	r20, 0x1D	; 29
     30c:	72 20       	and	r7, r2
     30e:	53 61       	ori	r21, 0x13	; 19
     310:	6e 63       	ori	r22, 0x3E	; 62
     312:	68 6f       	ori	r22, 0xF8	; 248
     314:	00 50       	subi	r16, 0x00	; 0
     316:	6f 6e       	ori	r22, 0xEF	; 239
     318:	63 69       	ori	r22, 0x93	; 147
     31a:	6f 20       	and	r6, r15
     31c:	53 69       	ori	r21, 0x93	; 147
     31e:	6d 6f       	ori	r22, 0xFD	; 253
     320:	00 42       	sbci	r16, 0x20	; 32
     322:	65 72       	andi	r22, 0x25	; 37
     324:	6e 61       	ori	r22, 0x1E	; 30
     326:	72 64       	ori	r23, 0x42	; 66
     328:	20 43       	sbci	r18, 0x30	; 48
     32a:	72 69       	ori	r23, 0x92	; 146
     32c:	61 64       	ori	r22, 0x41	; 65
     32e:	6f 00       	.word	0x006f	; ????
     330:	41 6e       	ori	r20, 0xE1	; 225
     332:	61 20       	and	r6, r1
     334:	51 75       	andi	r21, 0x51	; 81
     336:	69 6e       	ori	r22, 0xE9	; 233
     338:	74 61       	ori	r23, 0x14	; 20
     33a:	6e 69       	ori	r22, 0x9E	; 158
     33c:	6c 6c       	ori	r22, 0xCC	; 204
     33e:	61 00       	.word	0x0061	; ????
     340:	4a 6f       	ori	r20, 0xFA	; 250
     342:	73 65       	ori	r23, 0x53	; 83
     344:	20 4d       	sbci	r18, 0xD0	; 208
     346:	61 6e       	ori	r22, 0xE1	; 225
     348:	6a 6f       	ori	r22, 0xFA	; 250
     34a:	6e 00       	.word	0x006e	; ????
     34c:	4e 69       	ori	r20, 0x9E	; 158
     34e:	65 76       	andi	r22, 0x65	; 101
     350:	65 73       	andi	r22, 0x35	; 53
     352:	20 55       	subi	r18, 0x50	; 80
     354:	67 61       	ori	r22, 0x17	; 23
     356:	72 74       	andi	r23, 0x42	; 66
     358:	65 00       	.word	0x0065	; ????
     35a:	43 72       	andi	r20, 0x23	; 35
     35c:	69 73       	andi	r22, 0x39	; 57
     35e:	74 6f       	ori	r23, 0xF4	; 244
     360:	20 53       	subi	r18, 0x30	; 48
     362:	65 62       	ori	r22, 0x25	; 37
     364:	61 73       	andi	r22, 0x31	; 49
     366:	74 69       	ori	r23, 0x94	; 148
     368:	61 6e       	ori	r22, 0xE1	; 225
     36a:	00 52       	subi	r16, 0x20	; 32
     36c:	6f 62       	ori	r22, 0x2F	; 47
     36e:	65 72       	andi	r22, 0x25	; 37
     370:	74 6f       	ori	r23, 0xF4	; 244
     372:	20 41       	sbci	r18, 0x10	; 16
     374:	67 75       	andi	r22, 0x57	; 87
     376:	73 74       	andi	r23, 0x43	; 67
     378:	69 00       	.word	0x0069	; ????
     37a:	41 6d       	ori	r20, 0xD1	; 209
     37c:	6f 72       	andi	r22, 0x2F	; 47
     37e:	20 42       	sbci	r18, 0x20	; 32
     380:	61 72       	andi	r22, 0x21	; 33
     382:	72 69       	ori	r23, 0x92	; 146
     384:	67 61       	ori	r22, 0x17	; 23
     386:	00 4d       	sbci	r16, 0xD0	; 208
     388:	69 72       	andi	r22, 0x29	; 41
     38a:	65 69       	ori	r22, 0x95	; 149
     38c:	61 20       	and	r6, r1
     38e:	4d 61       	ori	r20, 0x1D	; 29
     390:	6e 7a       	andi	r22, 0xAE	; 174
     392:	61 72       	andi	r22, 0x21	; 33
     394:	65 73       	andi	r22, 0x35	; 53
     396:	00 45       	sbci	r16, 0x50	; 80
     398:	6c 69       	ori	r22, 0x9C	; 156
     39a:	67 69       	ori	r22, 0x97	; 151
     39c:	6f 20       	and	r6, r15
     39e:	56 61       	ori	r21, 0x16	; 22
     3a0:	6c 65       	ori	r22, 0x5C	; 92
     3a2:	6e 74       	andi	r22, 0x4E	; 78
     3a4:	69 6e       	ori	r22, 0xE9	; 233
     3a6:	00 45       	sbci	r16, 0x50	; 80
     3a8:	6d 69       	ori	r22, 0x9D	; 157
     3aa:	6c 69       	ori	r22, 0x9C	; 156
     3ac:	6f 20       	and	r6, r15
     3ae:	41 6c       	ori	r20, 0xC1	; 193
     3b0:	63 61       	ori	r22, 0x13	; 19
     3b2:	6e 74       	andi	r22, 0x4E	; 78
     3b4:	61 72       	andi	r22, 0x21	; 33
     3b6:	61 00       	.word	0x0061	; ????
     3b8:	41 72       	andi	r20, 0x21	; 33
     3ba:	61 6e       	ori	r22, 0xE1	; 225
     3bc:	7a 61       	ori	r23, 0x1A	; 26
     3be:	7a 75       	andi	r23, 0x5A	; 90
     3c0:	20 52       	subi	r18, 0x20	; 32
     3c2:	6f 6d       	ori	r22, 0xDF	; 223
     3c4:	65 72       	andi	r22, 0x25	; 37
     3c6:	6f 00       	.word	0x006f	; ????
     3c8:	54 72       	andi	r21, 0x24	; 36
     3ca:	69 6e       	ori	r22, 0xE9	; 233
     3cc:	69 64       	ori	r22, 0x49	; 73
     3ce:	61 64       	ori	r22, 0x41	; 65
     3d0:	20 43       	sbci	r18, 0x30	; 48
     3d2:	61 6d       	ori	r22, 0xD1	; 209
     3d4:	70 6f       	ori	r23, 0xF0	; 240
     3d6:	00 44       	sbci	r16, 0x40	; 64
     3d8:	65 73       	andi	r22, 0x35	; 53
     3da:	69 64       	ori	r22, 0x49	; 73
     3dc:	65 72       	andi	r22, 0x25	; 37
     3de:	69 6f       	ori	r22, 0xF9	; 249
     3e0:	20 42       	sbci	r18, 0x20	; 32
     3e2:	6f 61       	ori	r22, 0x1F	; 31
     3e4:	64 61       	ori	r22, 0x14	; 20
     3e6:	00 50       	subi	r16, 0x00	; 0
     3e8:	69 6c       	ori	r22, 0xC9	; 201
     3ea:	61 72       	andi	r22, 0x21	; 33
     3ec:	20 46       	sbci	r18, 0x60	; 96
     3ee:	6f 72       	andi	r22, 0x2F	; 47
     3f0:	74 75       	andi	r23, 0x54	; 84
     3f2:	6e 79       	andi	r22, 0x9E	; 158
     3f4:	00 42       	sbci	r16, 0x20	; 32
     3f6:	65 72       	andi	r22, 0x25	; 37
     3f8:	6e 61       	ori	r22, 0x1E	; 30
     3fa:	72 64       	ori	r23, 0x42	; 66
     3fc:	6f 20       	and	r6, r15
     3fe:	52 6f       	ori	r21, 0xF2	; 242
     400:	6d 61       	ori	r22, 0x1D	; 29
     402:	6e 00       	.word	0x006e	; ????
     404:	4d 61       	ori	r20, 0x1D	; 29
     406:	72 69       	ori	r23, 0x92	; 146
     408:	63 72       	andi	r22, 0x23	; 35
     40a:	75 7a       	andi	r23, 0xA5	; 165
     40c:	20 4c       	sbci	r18, 0xC0	; 192
     40e:	75 69       	ori	r23, 0x95	; 149
     410:	73 00       	.word	0x0073	; ????
     412:	50 61       	ori	r21, 0x10	; 16
     414:	63 6f       	ori	r22, 0xF3	; 243
     416:	20 50       	subi	r18, 0x00	; 0
     418:	6f 72       	andi	r22, 0x2F	; 47
     41a:	63 65       	ori	r22, 0x53	; 83
     41c:	6c 00       	.word	0x006c	; ????
     41e:	45 70       	andi	r20, 0x05	; 5
     420:	69 66       	ori	r22, 0x69	; 105
     422:	61 6e       	ori	r22, 0xE1	; 225
     424:	69 6f       	ori	r22, 0xF9	; 249
     426:	20 4d       	sbci	r18, 0xD0	; 208
     428:	61 65       	ori	r22, 0x51	; 81
     42a:	73 74       	andi	r23, 0x43	; 67
     42c:	72 65       	ori	r23, 0x52	; 82
     42e:	00 45       	sbci	r16, 0x50	; 80
     430:	72 69       	ori	r23, 0x92	; 146
     432:	63 20       	and	r6, r3
     434:	56 61       	ori	r21, 0x16	; 22
     436:	6c 62       	ori	r22, 0x2C	; 44
     438:	75 65       	ori	r23, 0x55	; 85
     43a:	6e 61       	ori	r22, 0x1E	; 30
     43c:	00 43       	sbci	r16, 0x30	; 48
     43e:	6c 65       	ori	r22, 0x5C	; 92
     440:	6d 65       	ori	r22, 0x5D	; 93
     442:	6e 74       	andi	r22, 0x4E	; 78
     444:	20 43       	sbci	r18, 0x30	; 48
     446:	65 72       	andi	r22, 0x25	; 37
     448:	76 65       	ori	r23, 0x56	; 86
     44a:	72 61       	ori	r23, 0x12	; 18
     44c:	00 43       	sbci	r16, 0x30	; 48
     44e:	61 6c       	ori	r22, 0xC1	; 193
     450:	69 73       	andi	r22, 0x39	; 57
     452:	74 6f       	ori	r23, 0xF4	; 244
     454:	20 4a       	sbci	r18, 0xA0	; 160
     456:	61 75       	andi	r22, 0x51	; 81
     458:	72 65       	ori	r23, 0x52	; 82
     45a:	67 75       	andi	r22, 0x57	; 87
     45c:	69 00       	.word	0x0069	; ????
     45e:	45 6c       	ori	r20, 0xC5	; 197
     460:	61 72       	andi	r22, 0x21	; 33
     462:	69 6f       	ori	r22, 0xF9	; 249
     464:	20 52       	subi	r18, 0x20	; 32
     466:	61 6d       	ori	r22, 0xD1	; 209
     468:	69 72       	andi	r22, 0x29	; 41
     46a:	65 7a       	andi	r22, 0xA5	; 165
     46c:	00 41       	sbci	r16, 0x10	; 16
     46e:	7a 65       	ori	r23, 0x5A	; 90
     470:	6e 65       	ori	r22, 0x5E	; 94
     472:	74 68       	ori	r23, 0x84	; 132
     474:	20 43       	sbci	r18, 0x30	; 48
     476:	69 73       	andi	r22, 0x39	; 57
     478:	6e 65       	ori	r22, 0x5E	; 94
     47a:	72 6f       	ori	r23, 0xF2	; 242
     47c:	73 00       	.word	0x0073	; ????
     47e:	4c 75       	andi	r20, 0x5C	; 92
     480:	69 73       	andi	r22, 0x39	; 57
     482:	61 20       	and	r6, r1
     484:	4d 6f       	ori	r20, 0xFD	; 253
     486:	6e 74       	andi	r22, 0x4E	; 78
     488:	65 73       	andi	r22, 0x35	; 53
     48a:	00 45       	sbci	r16, 0x50	; 80
     48c:	6c 69       	ori	r22, 0x9C	; 156
     48e:	61 6e       	ori	r22, 0xE1	; 225
     490:	61 20       	and	r6, r1
     492:	41 6c       	ori	r20, 0xC1	; 193
     494:	6d 61       	ori	r22, 0x1D	; 29
     496:	6e 73       	andi	r22, 0x3E	; 62
     498:	61 00       	.word	0x0061	; ????
     49a:	41 69       	ori	r20, 0x91	; 145
     49c:	6e 61       	ori	r22, 0x1E	; 30
     49e:	72 61       	ori	r23, 0x12	; 18
     4a0:	20 4d       	sbci	r18, 0xD0	; 208
     4a2:	61 72       	andi	r22, 0x21	; 33
     4a4:	63 6f       	ori	r22, 0xF3	; 243
     4a6:	00 43       	sbci	r16, 0x30	; 48
     4a8:	61 6c       	ori	r22, 0xC1	; 193
     4aa:	69 73       	andi	r22, 0x39	; 57
     4ac:	74 6f       	ori	r23, 0xF4	; 244
     4ae:	20 43       	sbci	r18, 0x30	; 48
     4b0:	6c 65       	ori	r22, 0x5C	; 92
     4b2:	6d 65       	ori	r22, 0x5D	; 93
     4b4:	6e 74       	andi	r22, 0x4E	; 78
     4b6:	65 00       	.word	0x0065	; ????
     4b8:	53 65       	ori	r21, 0x53	; 83
     4ba:	76 65       	ori	r23, 0x56	; 86
     4bc:	72 6f       	ori	r23, 0xF2	; 242
     4be:	20 42       	sbci	r18, 0x20	; 32
     4c0:	61 72       	andi	r22, 0x21	; 33
     4c2:	72 6f       	ori	r23, 0xF2	; 242
     4c4:	73 00       	.word	0x0073	; ????
     4c6:	58 61       	ori	r21, 0x18	; 24
     4c8:	76 69       	ori	r23, 0x96	; 150
     4ca:	65 72       	andi	r22, 0x25	; 37
     4cc:	20 50       	subi	r18, 0x00	; 0
     4ce:	61 6c       	ori	r22, 0xC1	; 193
     4d0:	61 63       	ori	r22, 0x31	; 49
     4d2:	69 6f       	ori	r22, 0xF9	; 249
     4d4:	73 00       	.word	0x0073	; ????
     4d6:	43 72       	andi	r20, 0x23	; 35
     4d8:	75 7a       	andi	r23, 0xA5	; 165
     4da:	20 4f       	sbci	r18, 0xF0	; 240
     4dc:	6c 69       	ori	r22, 0x9C	; 156
     4de:	76 61       	ori	r23, 0x16	; 22
     4e0:	72 65       	ori	r23, 0x52	; 82
     4e2:	73 00       	.word	0x0073	; ????
     4e4:	41 6e       	ori	r20, 0xE1	; 225
     4e6:	64 72       	andi	r22, 0x24	; 36
     4e8:	65 73       	andi	r22, 0x35	; 53
     4ea:	20 54       	subi	r18, 0x40	; 64
     4ec:	65 72       	andi	r22, 0x25	; 37
     4ee:	75 65       	ori	r23, 0x55	; 85
     4f0:	6c 00       	.word	0x006c	; ????
     4f2:	44 65       	ori	r20, 0x54	; 84
     4f4:	6c 69       	ori	r22, 0x9C	; 156
     4f6:	61 20       	and	r6, r1
     4f8:	47 75       	andi	r20, 0x57	; 87
     4fa:	69 6c       	ori	r22, 0xC9	; 201
     4fc:	6c 65       	ori	r22, 0x5C	; 92
     4fe:	6e 00       	.word	0x006e	; ????
     500:	4a 61       	ori	r20, 0x1A	; 26
     502:	66 65       	ori	r22, 0x56	; 86
     504:	74 20       	and	r7, r4
     506:	43 61       	ori	r20, 0x13	; 19
     508:	73 74       	andi	r23, 0x43	; 67
     50a:	72 69       	ori	r23, 0x92	; 146
     50c:	6c 6c       	ori	r22, 0xCC	; 204
     50e:	6f 00       	.word	0x006f	; ????
     510:	50 65       	ori	r21, 0x50	; 80
     512:	72 6c       	ori	r23, 0xC2	; 194
     514:	61 20       	and	r6, r1
     516:	56 61       	ori	r21, 0x16	; 22
     518:	6c 65       	ori	r22, 0x5C	; 92
     51a:	6e 74       	andi	r22, 0x4E	; 78
     51c:	69 6e       	ori	r22, 0xE9	; 233
     51e:	00 44       	sbci	r16, 0x40	; 64
     520:	69 65       	ori	r22, 0x59	; 89
     522:	67 6f       	ori	r22, 0xF7	; 247
     524:	20 56       	subi	r18, 0x60	; 96
     526:	61 6c       	ori	r22, 0xC1	; 193
     528:	65 6e       	ori	r22, 0xE5	; 229
     52a:	63 69       	ori	r22, 0x93	; 147
     52c:	61 00       	.word	0x0061	; ????
     52e:	52 6f       	ori	r21, 0xF2	; 242
     530:	67 65       	ori	r22, 0x57	; 87
     532:	6c 69       	ori	r22, 0x9C	; 156
     534:	6f 20       	and	r6, r15
     536:	41 67       	ori	r20, 0x71	; 113
     538:	75 69       	ori	r23, 0x95	; 149
     53a:	6c 6f       	ori	r22, 0xFC	; 252
     53c:	00 41       	sbci	r16, 0x10	; 16
     53e:	69 6e       	ori	r22, 0xE9	; 233
     540:	6f 61       	ori	r22, 0x1F	; 31
     542:	20 4e       	sbci	r18, 0xE0	; 224
     544:	61 76       	andi	r22, 0x61	; 97
     546:	61 73       	andi	r22, 0x31	; 49
     548:	00 4c       	sbci	r16, 0xC0	; 192
     54a:	75 69       	ori	r23, 0x95	; 149
     54c:	73 20       	and	r7, r3
     54e:	50 61       	ori	r21, 0x10	; 16
     550:	6e 69       	ori	r22, 0x9E	; 158
     552:	61 67       	ori	r22, 0x71	; 113
     554:	75 61       	ori	r23, 0x15	; 21
     556:	00 52       	subi	r16, 0x20	; 32
     558:	61 71       	andi	r22, 0x11	; 17
     55a:	75 65       	ori	r23, 0x55	; 85
     55c:	6c 20       	and	r6, r12
     55e:	55 72       	andi	r21, 0x25	; 37
     560:	72 75       	andi	r23, 0x52	; 82
     562:	74 69       	ori	r23, 0x94	; 148
     564:	61 00       	.word	0x0061	; ????
     566:	4c 69       	ori	r20, 0x9C	; 156
     568:	6e 6f       	ori	r22, 0xFE	; 254
     56a:	20 45       	sbci	r18, 0x50	; 80
     56c:	73 70       	andi	r23, 0x03	; 3
     56e:	61 72       	andi	r22, 0x21	; 33
     570:	7a 61       	ori	r23, 0x1A	; 26
     572:	00 50       	subi	r16, 0x00	; 0
     574:	69 6c       	ori	r22, 0xC9	; 201
     576:	61 72       	andi	r22, 0x21	; 33
     578:	20 53       	subi	r18, 0x30	; 48
     57a:	6f 6c       	ori	r22, 0xCF	; 207
     57c:	65 72       	andi	r22, 0x25	; 37
     57e:	61 00       	.word	0x0061	; ????
     580:	4a 6f       	ori	r20, 0xFA	; 250
     582:	73 65       	ori	r23, 0x53	; 83
     584:	20 47       	sbci	r18, 0x70	; 112
     586:	69 73       	andi	r22, 0x39	; 57
     588:	62 65       	ori	r22, 0x52	; 82
     58a:	72 74       	andi	r23, 0x42	; 66
     58c:	00 5a       	subi	r16, 0xA0	; 160
     58e:	61 63       	ori	r22, 0x31	; 49
     590:	61 72       	andi	r22, 0x21	; 33
     592:	69 61       	ori	r22, 0x19	; 25
     594:	20 42       	sbci	r18, 0x20	; 32
     596:	65 72       	andi	r22, 0x25	; 37
     598:	6d 75       	andi	r22, 0x5D	; 93
     59a:	64 65       	ori	r22, 0x54	; 84
     59c:	7a 00       	.word	0x007a	; ????
     59e:	4a 6f       	ori	r20, 0xFA	; 250
     5a0:	73 65       	ori	r23, 0x53	; 83
     5a2:	20 46       	sbci	r18, 0x60	; 96
     5a4:	72 75       	andi	r23, 0x52	; 82
     5a6:	74 6f       	ori	r23, 0xF4	; 244
     5a8:	73 00       	.word	0x0073	; ????
     5aa:	45 73       	andi	r20, 0x35	; 53
     5ac:	74 65       	ori	r23, 0x54	; 84
     5ae:	6c 61       	ori	r22, 0x1C	; 28
     5b0:	20 43       	sbci	r18, 0x30	; 48
     5b2:	61 64       	ori	r22, 0x41	; 65
     5b4:	65 6e       	ori	r22, 0xE5	; 229
     5b6:	61 73       	andi	r22, 0x31	; 49
     5b8:	00 46       	sbci	r16, 0x60	; 96
     5ba:	61 62       	ori	r22, 0x21	; 33
     5bc:	69 61       	ori	r22, 0x19	; 25
     5be:	6e 61       	ori	r22, 0x1E	; 30
     5c0:	20 42       	sbci	r18, 0x20	; 32
     5c2:	65 6e       	ori	r22, 0xE5	; 229
     5c4:	61 76       	andi	r22, 0x61	; 97
     5c6:	65 6e       	ori	r22, 0xE5	; 229
     5c8:	74 00       	.word	0x0074	; ????
     5ca:	47 65       	ori	r20, 0x57	; 87
     5cc:	72 74       	andi	r23, 0x42	; 66
     5ce:	72 75       	andi	r23, 0x52	; 82
     5d0:	64 69       	ori	r22, 0x94	; 148
     5d2:	73 20       	and	r7, r3
     5d4:	50 61       	ori	r21, 0x10	; 16
     5d6:	6c 61       	ori	r22, 0x1C	; 28
     5d8:	75 00       	.word	0x0075	; ????
     5da:	47 6f       	ori	r20, 0xF7	; 247
     5dc:	6e 7a       	andi	r22, 0xAE	; 174
     5de:	61 6c       	ori	r22, 0xC1	; 193
     5e0:	6f 20       	and	r6, r15
     5e2:	45 73       	andi	r20, 0x35	; 53
     5e4:	74 65       	ori	r23, 0x54	; 84
     5e6:	76 65       	ori	r23, 0x56	; 86
     5e8:	7a 00       	.word	0x007a	; ????
     5ea:	43 65       	ori	r20, 0x53	; 83
     5ec:	63 69       	ori	r22, 0x93	; 147
     5ee:	6c 69       	ori	r22, 0x9C	; 156
     5f0:	6f 20       	and	r6, r15
     5f2:	4d 6f       	ori	r20, 0xFD	; 253
     5f4:	6e 74       	andi	r22, 0x4E	; 78
     5f6:	65 72       	andi	r22, 0x25	; 37
     5f8:	6f 00       	.word	0x006f	; ????
     5fa:	43 61       	ori	r20, 0x13	; 19
     5fc:	72 6d       	ori	r23, 0xD2	; 210
     5fe:	69 6e       	ori	r22, 0xE9	; 233
     600:	61 20       	and	r6, r1
     602:	54 61       	ori	r21, 0x14	; 20
     604:	70 69       	ori	r23, 0x90	; 144
     606:	61 00       	.word	0x0061	; ????
     608:	44 61       	ori	r20, 0x14	; 20
     60a:	6c 69       	ori	r22, 0x9C	; 156
     60c:	6c 61       	ori	r22, 0x1C	; 28
     60e:	20 47       	sbci	r18, 0x70	; 112
     610:	69 6c       	ori	r22, 0xC9	; 201
     612:	00 53       	subi	r16, 0x30	; 48
     614:	75 70       	andi	r23, 0x05	; 5
     616:	65 72       	andi	r22, 0x25	; 37
     618:	56 6f       	ori	r21, 0xF6	; 246
     61a:	74 61       	ori	r23, 0x14	; 20
     61c:	6e 74       	andi	r22, 0x4E	; 78
     61e:	65 20       	and	r6, r5
     620:	28 52       	subi	r18, 0x28	; 40
     622:	29 00       	.word	0x0029	; ????
     624:	20 70       	andi	r18, 0x00	; 0
     626:	72 65       	ori	r23, 0x52	; 82
     628:	73 73       	andi	r23, 0x33	; 51
     62a:	65 64       	ori	r22, 0x45	; 69
     62c:	00 43       	sbci	r16, 0x30	; 48
     62e:	61 6e       	ori	r22, 0xE1	; 225
     630:	63 65       	ori	r22, 0x53	; 83
     632:	6c 00       	.word	0x006c	; ????
     634:	56 6f       	ori	r21, 0xF6	; 246
     636:	74 65       	ori	r23, 0x54	; 84
     638:	00 52       	subi	r16, 0x20	; 32
     63a:	65 61       	ori	r22, 0x15	; 21
     63c:	64 20       	and	r6, r4
     63e:	51 52       	subi	r21, 0x21	; 33
     640:	20 63       	ori	r18, 0x30	; 48
     642:	6f 64       	ori	r22, 0x4F	; 79
     644:	65 3a       	cpi	r22, 0xA5	; 165
     646:	20 00       	.word	0x0020	; ????
     648:	46 6f       	ori	r20, 0xF6	; 246
     64a:	75 6e       	ori	r23, 0xE5	; 229
     64c:	64 20       	and	r6, r4
     64e:	76 6f       	ori	r23, 0xF6	; 246
     650:	74 65       	ori	r23, 0x54	; 84
     652:	72 20       	and	r7, r2
     654:	00 0a       	sbc	r0, r16
     656:	53 65       	ori	r21, 0x53	; 83
     658:	6e 74       	andi	r22, 0x4E	; 78
     65a:	20 76       	andi	r18, 0x60	; 96
     65c:	6f 74       	andi	r22, 0x4F	; 79
     65e:	65 73       	andi	r22, 0x35	; 53
     660:	20 74       	andi	r18, 0x40	; 64
     662:	6f 20       	and	r6, r15
     664:	65 6c       	ori	r22, 0xC5	; 197
     666:	65 63       	ori	r22, 0x35	; 53
     668:	74 6f       	ori	r23, 0xF4	; 244
     66a:	72 61       	ori	r23, 0x12	; 18
     66c:	6c 20       	and	r6, r12
     66e:	63 6f       	ori	r22, 0xF3	; 243
     670:	6d 6d       	ori	r22, 0xDD	; 221
     672:	69 73       	andi	r22, 0x39	; 57
     674:	73 69       	ori	r23, 0x93	; 147
     676:	6f 6e       	ori	r22, 0xEF	; 239
     678:	2e 00       	.word	0x002e	; ????
     67a:	45 6e       	ori	r20, 0xE5	; 229
     67c:	63 6f       	ori	r22, 0xF3	; 243
     67e:	64 69       	ori	r22, 0x94	; 148
     680:	6e 67       	ori	r22, 0x7E	; 126
     682:	20 76       	andi	r18, 0x60	; 96
     684:	6f 74       	andi	r22, 0x4F	; 79
     686:	65 73       	andi	r22, 0x35	; 53
     688:	2e 2e       	mov	r2, r30
     68a:	2e 00       	.word	0x002e	; ????
     68c:	53 65       	ori	r21, 0x53	; 83
     68e:	74 74       	andi	r23, 0x44	; 68
     690:	69 6e       	ori	r22, 0xE9	; 233
     692:	67 20       	and	r6, r7
     694:	61 6c       	ori	r22, 0xC1	; 193
     696:	6c 20       	and	r6, r12
     698:	76 6f       	ori	r23, 0xF6	; 246
     69a:	74 65       	ori	r23, 0x54	; 84
     69c:	73 20       	and	r7, r3
     69e:	66 6f       	ori	r22, 0xF6	; 246
     6a0:	72 20       	and	r7, r2
     6a2:	63 61       	ori	r22, 0x13	; 19
     6a4:	6e 64       	ori	r22, 0x4E	; 78
     6a6:	69 64       	ori	r22, 0x49	; 73
     6a8:	61 74       	andi	r22, 0x41	; 65
     6aa:	65 20       	and	r6, r5
     6ac:	00 2a       	or	r0, r16
     6ae:	56 6f       	ori	r21, 0xF6	; 246
     6b0:	74 65       	ori	r23, 0x54	; 84
     6b2:	20 72       	andi	r18, 0x20	; 32
     6b4:	65 63       	ori	r22, 0x35	; 53
     6b6:	6f 72       	andi	r22, 0x2F	; 47
     6b8:	64 65       	ori	r22, 0x54	; 84
     6ba:	64 21       	and	r22, r4
     6bc:	2a 00       	.word	0x002a	; ????
     6be:	bb ae       	std	Y+59, r11	; 0x3b
     6c0:	0d 24       	eor	r0, r13
     6c2:	08 06       	cpc	r0, r24
     6c4:	31 f8       	bld	r3, 1
     6c6:	75 22       	and	r7, r21
     6c8:	fa 05       	cpc	r31, r10
     6ca:	07 0d       	add	r16, r7
     6cc:	4e 08       	sbc	r4, r14
     6ce:	ea 05       	cpc	r30, r10
     6d0:	4e 21       	and	r20, r14
     6d2:	e5 2a       	or	r14, r21
     6d4:	da 05       	cpc	r29, r10
     6d6:	45 5d       	subi	r20, 0xD5	; 213
     6d8:	b5 31       	cpi	r27, 0x15	; 21
     6da:	ca 05       	cpc	r28, r10
     6dc:	15 70       	andi	r17, 0x05	; 5
     6de:	42 0f       	add	r20, r18
     6e0:	b9 05       	cpc	r27, r9
     6e2:	26 36       	cpi	r18, 0x66	; 102
     6e4:	2d 13       	cpse	r18, r29
     6e6:	aa 05       	cpc	r26, r10
     6e8:	c0 53       	subi	r28, 0x30	; 48
     6ea:	9e 36       	cpi	r25, 0x6E	; 110
     6ec:	9e 05       	cpc	r25, r14
     6ee:	38 42       	sbci	r19, 0x28	; 40
     6f0:	af 3a       	cpi	r26, 0xAF	; 175
     6f2:	8d 05       	cpc	r24, r13
     6f4:	a8 43       	sbci	r26, 0x38	; 56
     6f6:	c8 1b       	sub	r28, r24
     6f8:	80 05       	cpc	r24, r0
     6fa:	12 f6       	brpl	.-124    	;  0x680
     6fc:	62 34       	cpi	r22, 0x42	; 66
     6fe:	73 05       	cpc	r23, r3
     700:	9e 0b       	sbc	r25, r30
     702:	50 05       	cpc	r21, r0
     704:	66 05       	cpc	r22, r6
     706:	96 2f       	mov	r25, r22
     708:	35 00       	.word	0x0035	; ????
     70a:	57 05       	cpc	r21, r7
     70c:	45 36       	cpi	r20, 0x65	; 101
     70e:	7a 09       	sbc	r23, r10
     710:	49 05       	cpc	r20, r9
     712:	c3 5f       	subi	r28, 0xF3	; 243
     714:	be 1b       	sub	r27, r30
     716:	3d 05       	cpc	r19, r13
     718:	e2 4c       	sbci	r30, 0xC2	; 194
     71a:	a6 11       	cpse	r26, r6
     71c:	2e 05       	cpc	r18, r14
     71e:	d9 05       	cpc	r29, r9
     720:	db 25       	eor	r29, r11
     722:	1f 05       	cpc	r17, r15
     724:	db 4b       	sbci	r29, 0xBB	; 187
     726:	fe 39       	cpi	r31, 0x9E	; 158
     728:	10 05       	cpc	r17, r0
     72a:	f9 75       	andi	r31, 0x59	; 89
     72c:	68 29       	or	r22, r8
     72e:	00 05       	cpc	r16, r0
     730:	81 c1       	rjmp	.+770    	;  0xa34
     732:	d7 25       	eor	r29, r7
     734:	f2 04       	cpc	r15, r2
     736:	da 35       	cpi	r29, 0x5A	; 90
     738:	5a 27       	eor	r21, r26
     73a:	e4 04       	cpc	r14, r4
     73c:	c5 a9       	ldd	r28, Z+53	; 0x35
     73e:	40 0a       	sbc	r4, r16
     740:	d6 04       	cpc	r13, r6
     742:	c1 da       	rcall	.-2686   	;  0xfffffcc6
     744:	ee 18       	sub	r14, r14
     746:	c6 04       	cpc	r12, r6
     748:	6b c1       	rjmp	.+726    	;  0xa20
     74a:	24 32       	cpi	r18, 0x24	; 36
     74c:	b8 04       	cpc	r11, r8
     74e:	e3 3d       	cpi	r30, 0xD3	; 211
     750:	f9 08       	sbc	r15, r9
     752:	a7 04       	cpc	r10, r7
     754:	c3 b3       	in	r28, 0x13	; 19
     756:	74 0a       	sbc	r7, r20
     758:	9a 04       	cpc	r9, r10
     75a:	a2 51       	subi	r26, 0x12	; 18
     75c:	aa 31       	cpi	r26, 0x1A	; 26
     75e:	8b 04       	cpc	r8, r11
     760:	8e 5a       	subi	r24, 0xAE	; 174
     762:	66 16       	cp	r6, r22
     764:	7e 04       	cpc	r7, r14
     766:	e7 4d       	sbci	r30, 0xD7	; 215
     768:	75 2d       	mov	r23, r5
     76a:	6d 04       	cpc	r6, r13
     76c:	e5 9f       	mul	r30, r21
     76e:	29 1d       	adc	r18, r9
     770:	5e 04       	cpc	r5, r14
     772:	26 13       	cpse	r18, r22
     774:	97 2a       	or	r9, r23
     776:	4d 04       	cpc	r4, r13
     778:	db 5c       	subi	r29, 0xCB	; 203
     77a:	b0 30       	cpi	r27, 0x00	; 0
     77c:	3d 04       	cpc	r3, r13
     77e:	32 a4       	ldd	r3, Z+42	; 0x2a
     780:	85 16       	cp	r8, r21
     782:	2f 04       	cpc	r2, r15
     784:	6b d8       	rcall	.-3882   	;  0xfffff85c
     786:	fd 02       	muls	r31, r29
     788:	1e 04       	cpc	r1, r14
     78a:	67 65       	ori	r22, 0x57	; 87
     78c:	43 10       	cpse	r4, r3
     78e:	12 04       	cpc	r1, r2
     790:	26 f0       	brts	.+8      	;  0x79a
     792:	f1 1d       	adc	r31, r1
     794:	04 04       	cpc	r0, r4
     796:	22 d2       	rcall	.+1092   	;  0xbdc
     798:	03 00       	.word	0x0003	; ????
     79a:	f5 03       	fmuls	r23, r21
     79c:	fd a5       	ldd	r31, Y+45	; 0x2d
     79e:	e4 2f       	mov	r30, r20
     7a0:	e7 03       	fmuls	r22, r23
     7a2:	19 b6       	in	r1, 0x39	; 57
     7a4:	a1 04       	cpc	r10, r1
     7a6:	d7 03       	fmuls	r21, r23
     7a8:	e7 20       	and	r14, r7
     7aa:	6a 01       	movw	r12, r20
     7ac:	c8 03       	fmulsu	r20, r16
     7ae:	40 ae       	std	Z+56, r4	; 0x38
     7b0:	65 36       	cpi	r22, 0x65	; 101
     7b2:	b8 03       	fmulsu	r19, r16
     7b4:	b4 21       	and	r27, r4
     7b6:	63 32       	cpi	r22, 0x23	; 35
     7b8:	a7 03       	fmuls	r18, r23
     7ba:	77 0f       	add	r23, r23
     7bc:	a0 37       	cpi	r26, 0x70	; 112
     7be:	97 03       	fmuls	r17, r23
     7c0:	03 c9       	rjmp	.-3578   	;  0xfffff9c8
     7c2:	bf 32       	cpi	r27, 0x2F	; 47
     7c4:	87 03       	fmuls	r16, r23
     7c6:	5a c4       	rjmp	.+2228   	;  0x107c
     7c8:	32 18       	sub	r3, r2
     7ca:	7a 03       	fmul	r23, r18
     7cc:	30 2f       	mov	r19, r16
     7ce:	6d 16       	cp	r6, r29
     7d0:	6b 03       	fmul	r22, r19
     7d2:	b9 d3       	rcall	.+1906   	;  0xf46
     7d4:	b9 0d       	add	r27, r9
     7d6:	5a 03       	fmul	r21, r18
     7d8:	ee a8       	ldd	r14, Y+54	; 0x36
     7da:	52 10       	cpse	r5, r2
     7dc:	4c 03       	fmul	r20, r20
     7de:	b8 1c       	adc	r11, r8
     7e0:	c0 24       	eor	r12, r0
     7e2:	40 03       	mulsu	r20, r16
     7e4:	15 23       	and	r17, r21
     7e6:	32 36       	cpi	r19, 0x62	; 98
     7e8:	30 03       	mulsu	r19, r16
     7ea:	da 1e       	adc	r13, r26
     7ec:	8b 37       	cpi	r24, 0x7B	; 123
     7ee:	21 03       	mulsu	r18, r17
     7f0:	a8 e3       	ldi	r26, 0x38	; 56
     7f2:	f5 1f       	adc	r31, r21
     7f4:	15 03       	mulsu	r17, r21
     7f6:	d5 b4       	in	r13, 0x25	; 37
     7f8:	af 37       	cpi	r26, 0x7F	; 127
     7fa:	0a 03       	fmul	r16, r18
     7fc:	c3 51       	subi	r28, 0x13	; 19
     7fe:	b5 38       	cpi	r27, 0x85	; 133
     800:	ff 02       	muls	r31, r31
     802:	ad 30       	cpi	r26, 0x0D	; 13
     804:	e3 30       	cpi	r30, 0x03	; 3
     806:	f1 02       	muls	r31, r17
     808:	fe 08       	sbc	r15, r14
     80a:	a0 26       	eor	r10, r16
     80c:	e3 02       	muls	r30, r19
     80e:	81 46       	sbci	r24, 0x61	; 97
     810:	0b 1d       	adc	r16, r11
     812:	d9 02       	muls	r29, r25
     814:	31 56       	subi	r19, 0x61	; 97
     816:	c9 30       	cpi	r28, 0x09	; 9
     818:	c8 02       	muls	r28, r24
     81a:	7d 8f       	std	Y+29, r23	; 0x1d
     81c:	9a 03       	fmulsu	r17, r18
     81e:	b8 02       	muls	r27, r24
     820:	41 23       	and	r20, r17
     822:	ff 19       	sub	r31, r15
     824:	a9 02       	muls	r26, r25
     826:	d6 4b       	sbci	r29, 0xB6	; 182
     828:	5f 30       	cpi	r21, 0x0F	; 15
     82a:	9b 02       	muls	r25, r27
     82c:	8e 73       	andi	r24, 0x3E	; 62
     82e:	ab 38       	cpi	r26, 0x8B	; 139
     830:	8b 02       	muls	r24, r27
     832:	28 0e       	add	r2, r24
     834:	13 25       	eor	r17, r3
     836:	7c 02       	muls	r23, r28
     838:	0c ee       	ldi	r16, 0xEC	; 236
     83a:	55 33       	cpi	r21, 0x35	; 53
     83c:	6d 02       	muls	r22, r29
     83e:	a1 36       	cpi	r26, 0x61	; 97
     840:	47 30       	cpi	r20, 0x07	; 7
     842:	5c 02       	muls	r21, r28
     844:	29 1d       	adc	r18, r9
     846:	5b 0f       	add	r21, r27
     848:	51 02       	muls	r21, r17
     84a:	fb c1       	rjmp	.+1014   	;  0xc42
     84c:	f8 1c       	adc	r15, r8
     84e:	44 02       	muls	r20, r20
     850:	4a 26       	eor	r4, r26
     852:	c2 0d       	add	r28, r2
     854:	36 02       	muls	r19, r22
     856:	4a 92       	st	-Y, r4
     858:	70 28       	or	r7, r0
     85a:	26 02       	muls	r18, r22
     85c:	6c de       	rcall	.-808    	;  0x536
     85e:	d9 1e       	adc	r13, r25
     860:	18 02       	muls	r17, r24
     862:	c6 da       	rcall	.-2676   	;  0xfffffdf0
     864:	64 18       	sub	r6, r4
     866:	0b 02       	muls	r16, r27
     868:	61 e6       	ldi	r22, 0x61	; 97
     86a:	3f 2c       	mov	r3, r15
     86c:	02 02       	muls	r16, r18
     86e:	86 f4       	brtc	.+32     	;  0x890
     870:	84 1e       	adc	r8, r20
     872:	f1 01       	movw	r30, r2
     874:	88 f7       	brcc	.-30     	;  0x858
     876:	35 2d       	mov	r19, r5
     878:	e3 01       	movw	r28, r6
     87a:	fd 55       	subi	r31, 0x5D	; 93
     87c:	02 23       	and	r16, r18
     87e:	d5 01       	movw	r26, r10
     880:	08 a8       	ldd	r0, Y+48	; 0x30
     882:	75 28       	or	r7, r5
     884:	c4 01       	movw	r24, r8
     886:	fc a5       	ldd	r31, Y+44	; 0x2c
     888:	11 1f       	adc	r17, r17
     88a:	b6 01       	movw	r22, r12
     88c:	ac 2f       	mov	r26, r28
     88e:	11 14       	cp	r1, r1
     890:	a7 01       	movw	r20, r14
     892:	3b 2b       	or	r19, r27
     894:	04 18       	sub	r0, r4
     896:	97 01       	movw	r18, r14
     898:	09 35       	cpi	r16, 0x59	; 89
     89a:	84 26       	eor	r8, r20
     89c:	8b 01       	movw	r16, r22
     89e:	51 a0       	ldd	r5, Z+33	; 0x21
     8a0:	53 16       	cp	r5, r19
     8a2:	7b 01       	movw	r14, r22
     8a4:	27 24       	eor	r2, r7
     8a6:	21 28       	or	r2, r1
     8a8:	6a 01       	movw	r12, r20
     8aa:	6b a1       	ldd	r22, Y+35	; 0x23
     8ac:	03 00       	.word	0x0003	; ????
     8ae:	5c 01       	movw	r10, r24
     8b0:	66 07       	cpc	r22, r22
     8b2:	75 2a       	or	r7, r21
     8b4:	4d 01       	movw	r8, r26
     8b6:	77 ae       	std	Z+63, r7	; 0x3f
     8b8:	22 34       	cpi	r18, 0x42	; 66
     8ba:	42 01       	movw	r8, r4
     8bc:	bc eb       	ldi	r27, 0xBC	; 188
     8be:	57 10       	cpse	r5, r7
     8c0:	32 01       	movw	r6, r4
     8c2:	04 81       	ldd	r16, Z+4	; 0x04
     8c4:	63 21       	and	r22, r3
     8c6:	25 01       	movw	r4, r10
     8c8:	a5 94       	asr	r10
     8ca:	0c 23       	and	r16, r28
     8cc:	17 01       	movw	r2, r14
     8ce:	d4 23       	and	r29, r20
     8d0:	17 0e       	add	r1, r23
     8d2:	0a 01       	movw	r0, r20
     8d4:	4c 5c       	subi	r20, 0xCC	; 204
     8d6:	d5 1a       	sub	r13, r21
     8d8:	fc 00       	.word	0x00fc	; ????
     8da:	3b b0       	in	r3, 0x0b	; 11
     8dc:	25 26       	eor	r2, r21
     8de:	ed 00       	.word	0x00ed	; ????
     8e0:	a5 59       	subi	r26, 0x95	; 149
     8e2:	b5 2a       	or	r11, r21
     8e4:	dd 00       	.word	0x00dd	; ????
     8e6:	0e 6c       	ori	r16, 0xCE	; 206
     8e8:	ea 31       	cpi	r30, 0x1A	; 26
     8ea:	d0 00       	.word	0x00d0	; ????
     8ec:	4b 86       	std	Y+11, r4	; 0x0b
     8ee:	99 15       	cp	r25, r9
     8f0:	c3 00       	.word	0x00c3	; ????
     8f2:	ca d9       	rcall	.-3180   	;  0xfffffc88
     8f4:	be 2f       	mov	r27, r30
     8f6:	b5 00       	.word	0x00b5	; ????
     8f8:	1d 7d       	andi	r17, 0xDD	; 221
     8fa:	80 2b       	or	r24, r16
     8fc:	a6 00       	.word	0x00a6	; ????
     8fe:	f8 80       	ld	r15, Y
     900:	2d 1b       	sub	r18, r29
     902:	97 00       	.word	0x0097	; ????
     904:	16 3b       	cpi	r17, 0xB6	; 182
     906:	7e 1c       	adc	r7, r14
     908:	86 00       	.word	0x0086	; ????
     90a:	13 79       	andi	r17, 0x93	; 147
     90c:	82 05       	cpc	r24, r2
     90e:	77 00       	.word	0x0077	; ????
     910:	72 b7       	in	r23, 0x32	; 50
     912:	82 2b       	or	r24, r18
     914:	68 00       	.word	0x0068	; ????
     916:	53 65       	ori	r21, 0x53	; 83
     918:	74 74       	andi	r23, 0x44	; 68
     91a:	69 6e       	ori	r22, 0xE9	; 233
     91c:	67 20       	and	r6, r7
     91e:	35 30       	cpi	r19, 0x05	; 5
     920:	20 76       	andi	r18, 0x60	; 96
     922:	6f 74       	andi	r22, 0x4F	; 79
     924:	65 73       	andi	r22, 0x35	; 53
     926:	00 53       	subi	r16, 0x30	; 48
     928:	65 6e       	ori	r22, 0xE5	; 229
     92a:	64 69       	ori	r22, 0x94	; 148
     92c:	6e 67       	ori	r22, 0x7E	; 126
     92e:	20 76       	andi	r18, 0x60	; 96
     930:	6f 74       	andi	r22, 0x4F	; 79
     932:	65 73       	andi	r22, 0x35	; 53
     934:	2e 2e       	mov	r2, r30
     936:	2e 00       	.word	0x002e	; ????
     938:	56 2d       	mov	r21, r6
     93a:	73 65       	ori	r23, 0x53	; 83
     93c:	6e 64       	ori	r22, 0x4E	; 78
     93e:	3b 4b       	sbci	r19, 0xBB	; 187
     940:	65 79       	andi	r22, 0x95	; 149
     942:	73 2d       	mov	r23, r3
     944:	74 65       	ori	r23, 0x54	; 84
     946:	73 74       	andi	r23, 0x43	; 67
     948:	00 20       	and	r0, r0
     94a:	57 65       	ori	r21, 0x57	; 87
     94c:	6c 63       	ori	r22, 0x3C	; 60
     94e:	6f 6d       	ori	r22, 0xDF	; 223
     950:	65 20       	and	r6, r5
     952:	61 64       	ori	r22, 0x41	; 65
     954:	6d 69       	ori	r22, 0x9D	; 157
     956:	6e 21       	and	r22, r14
     958:	00 3c       	cpi	r16, 0xC0	; 192
     95a:	53 63       	ori	r21, 0x33	; 51
     95c:	61 6e       	ori	r22, 0xE1	; 225
     95e:	20 76       	andi	r18, 0x60	; 96
     960:	6f 74       	andi	r22, 0x4F	; 79
     962:	65 72       	andi	r22, 0x25	; 37
     964:	20 63       	ori	r18, 0x30	; 48
     966:	61 72       	andi	r22, 0x21	; 33
     968:	64 00       	.word	0x0064	; ????
     96a:	20 57       	subi	r18, 0x70	; 112
     96c:	65 6c       	ori	r22, 0xC5	; 197
     96e:	63 6f       	ori	r22, 0xF3	; 243
     970:	6d 65       	ori	r22, 0x5D	; 93
     972:	20 76       	andi	r18, 0x60	; 96
     974:	6f 74       	andi	r22, 0x4F	; 79
     976:	65 72       	andi	r22, 0x25	; 37
     978:	21 00       	.word	0x0021	; ????
     97a:	00 00       	nop
     97c:	00 00       	nop
     97e:	24 00       	.word	0x0024	; ????
     980:	27 00       	.word	0x0027	; ????
     982:	2a 00       	.word	0x002a	; ????
     984:	00 00       	nop
     986:	00 08       	sbc	r0, r0
     988:	00 02       	muls	r16, r16
     98a:	01 00       	.word	0x0001	; ????
     98c:	00 03       	mulsu	r16, r16
     98e:	04 07       	cpc	r16, r20
	...
     998:	63 7c       	andi	r22, 0xC3	; 195
     99a:	77 7b       	andi	r23, 0xB7	; 183
     99c:	f2 6b       	ori	r31, 0xB2	; 178
     99e:	6f c5       	rjmp	.+2782   	;  0x147e
     9a0:	30 01       	movw	r6, r0
     9a2:	67 2b       	or	r22, r23
     9a4:	fe d7       	rcall	.+4092   	;  0x19a2
     9a6:	ab 76       	andi	r26, 0x6B	; 107
     9a8:	ca 82       	std	Y+2, r12	; 0x02
     9aa:	c9 7d       	andi	r28, 0xD9	; 217
     9ac:	fa 59       	subi	r31, 0x9A	; 154
     9ae:	47 f0       	brie	.+16     	;  0x9c0
     9b0:	ad d4       	rcall	.+2394   	;  0x130c
     9b2:	a2 af       	std	Z+58, r26	; 0x3a
     9b4:	9c a4       	ldd	r9, Y+44	; 0x2c
     9b6:	72 c0       	rjmp	.+228    	;  0xa9c
     9b8:	b7 fd       	sbrc	r27, 7
     9ba:	93 26       	eor	r9, r19
     9bc:	36 3f       	cpi	r19, 0xF6	; 246
     9be:	f7 cc       	rjmp	.-1554   	;  0x3ae
     9c0:	34 a5       	ldd	r19, Z+44	; 0x2c
     9c2:	e5 f1       	brhs	.+120    	;  0xa3c
     9c4:	71 d8       	rcall	.-3870   	;  0xfffffaa8
     9c6:	31 15       	cp	r19, r1
     9c8:	04 c7       	rjmp	.+3592   	;  0x17d2
     9ca:	23 c3       	rjmp	.+1606   	;  0x1012
     9cc:	18 96       	adiw	r26, 0x08	; 8
     9ce:	05 9a       	sbi	0x00, 5	; 0
     9d0:	07 12       	cpse	r0, r23
     9d2:	80 e2       	ldi	r24, 0x20	; 32
     9d4:	eb 27       	eor	r30, r27
     9d6:	b2 75       	andi	r27, 0x52	; 82
     9d8:	09 83       	std	Y+1, r16	; 0x01
     9da:	2c 1a       	sub	r2, r28
     9dc:	1b 6e       	ori	r17, 0xEB	; 235
     9de:	5a a0       	ldd	r5, Y+34	; 0x22
     9e0:	52 3b       	cpi	r21, 0xB2	; 178
     9e2:	d6 b3       	in	r29, 0x16	; 22
     9e4:	29 e3       	ldi	r18, 0x39	; 57
     9e6:	2f 84       	ldd	r2, Y+15	; 0x0f
     9e8:	53 d1       	rcall	.+678    	;  0xc90
     9ea:	00 ed       	ldi	r16, 0xD0	; 208
     9ec:	20 fc       	sbrc	r2, 0
     9ee:	b1 5b       	subi	r27, 0xB1	; 177
     9f0:	6a cb       	rjmp	.-2348   	;  0xc6
     9f2:	be 39       	cpi	r27, 0x9E	; 158
     9f4:	4a 4c       	sbci	r20, 0xCA	; 202
     9f6:	58 cf       	rjmp	.-336    	;  0x8a8
     9f8:	d0 ef       	ldi	r29, 0xF0	; 240
     9fa:	aa fb       	.word	0xfbaa	; ????
     9fc:	43 4d       	sbci	r20, 0xD3	; 211
     9fe:	33 85       	ldd	r19, Z+11	; 0x0b
     a00:	45 f9       	bld	r20, 5
     a02:	02 7f       	andi	r16, 0xF2	; 242
     a04:	50 3c       	cpi	r21, 0xC0	; 192
     a06:	9f a8       	ldd	r9, Y+55	; 0x37
     a08:	51 a3       	std	Z+33, r21	; 0x21
     a0a:	40 8f       	std	Z+24, r20	; 0x18
     a0c:	92 9d       	mul	r25, r2
     a0e:	38 f5       	brcc	.+78     	;  0xa5e
     a10:	bc b6       	in	r11, 0x3c	; 60
     a12:	da 21       	and	r29, r10
     a14:	10 ff       	sbrs	r17, 0
     a16:	f3 d2       	rcall	.+1510   	;  0xffe
     a18:	cd 0c       	add	r12, r13
     a1a:	13 ec       	ldi	r17, 0xC3	; 195
     a1c:	5f 97       	sbiw	r26, 0x1f	; 31
     a1e:	44 17       	cp	r20, r20
     a20:	c4 a7       	std	Z+44, r28	; 0x2c
     a22:	7e 3d       	cpi	r23, 0xDE	; 222
     a24:	64 5d       	subi	r22, 0xD4	; 212
     a26:	19 73       	andi	r17, 0x39	; 57
     a28:	60 81       	ld	r22, Z
     a2a:	4f dc       	rcall	.-1890   	;  0x2ca
     a2c:	22 2a       	or	r2, r18
     a2e:	90 88       	ldd	r9, Z+16	; 0x10
     a30:	46 ee       	ldi	r20, 0xE6	; 230
     a32:	b8 14       	cp	r11, r8
     a34:	de 5e       	subi	r29, 0xEE	; 238
     a36:	0b db       	rcall	.-2538   	;  0x4e
     a38:	e0 32       	cpi	r30, 0x20	; 32
     a3a:	3a 0a       	sbc	r3, r26
     a3c:	49 06       	cpc	r4, r25
     a3e:	24 5c       	subi	r18, 0xC4	; 196
     a40:	c2 d3       	rcall	.+1924   	;  0x11c6
     a42:	ac 62       	ori	r26, 0x2C	; 44
     a44:	91 95       	neg	r25
     a46:	e4 79       	andi	r30, 0x94	; 148
     a48:	e7 c8       	rjmp	.-3634   	;  0xfffffc18
     a4a:	37 6d       	ori	r19, 0xD7	; 215
     a4c:	8d d5       	rcall	.+2842   	;  0x1568
     a4e:	4e a9       	ldd	r20, Y+54	; 0x36
     a50:	6c 56       	subi	r22, 0x6C	; 108
     a52:	f4 ea       	ldi	r31, 0xA4	; 164
     a54:	65 7a       	andi	r22, 0xA5	; 165
     a56:	ae 08       	sbc	r10, r14
     a58:	ba 78       	andi	r27, 0x8A	; 138
     a5a:	25 2e       	mov	r2, r21
     a5c:	1c a6       	std	Y+44, r1	; 0x2c
     a5e:	b4 c6       	rjmp	.+3432   	;  0x17c8
     a60:	e8 dd       	rcall	.-1072   	;  0x632
     a62:	74 1f       	adc	r23, r20
     a64:	4b bd       	out	0x2b, r20	; 43
     a66:	8b 8a       	std	Y+19, r8	; 0x13
     a68:	70 3e       	cpi	r23, 0xE0	; 224
     a6a:	b5 66       	ori	r27, 0x65	; 101
     a6c:	48 03       	fmul	r20, r16
     a6e:	f6 0e       	add	r15, r22
     a70:	61 35       	cpi	r22, 0x51	; 81
     a72:	57 b9       	out	0x07, r21	; 7
     a74:	86 c1       	rjmp	.+780    	;  0xd82
     a76:	1d 9e       	mul	r1, r29
     a78:	e1 f8       	bld	r14, 1
     a7a:	98 11       	cpse	r25, r8
     a7c:	69 d9       	rcall	.-3374   	;  0xfffffd50
     a7e:	8e 94 9b 1e 	call	0x203d36	;  0x203d36
     a82:	87 e9       	ldi	r24, 0x97	; 151
     a84:	ce 55       	subi	r28, 0x5E	; 94
     a86:	28 df       	rcall	.-432    	;  0x8d8
     a88:	8c a1       	ldd	r24, Y+36	; 0x24
     a8a:	89 0d       	add	r24, r9
     a8c:	bf e6       	ldi	r27, 0x6F	; 111
     a8e:	42 68       	ori	r20, 0x82	; 130
     a90:	41 99       	sbic	0x08, 1	; 8
     a92:	2d 0f       	add	r18, r29
     a94:	b0 54       	subi	r27, 0x40	; 64
     a96:	bb 16       	cp	r11, r27
     a98:	00 00       	nop
     a9a:	00 00       	nop
     a9c:	23 00       	.word	0x0023	; ????
     a9e:	26 00       	.word	0x0026	; ????
     aa0:	29 00       	.word	0x0029	; ????
     aa2:	00 00       	nop
     aa4:	00 00       	nop
     aa6:	25 00       	.word	0x0025	; ????
     aa8:	28 00       	.word	0x0028	; ????
     aaa:	2b 00       	.word	0x002b	; ????
     aac:	04 04       	cpc	r0, r4
     aae:	04 04       	cpc	r0, r4
     ab0:	04 04       	cpc	r0, r4
     ab2:	04 04       	cpc	r0, r4
     ab4:	02 02       	muls	r16, r18
     ab6:	02 02       	muls	r16, r18
     ab8:	02 02       	muls	r16, r18
     aba:	03 03       	mulsu	r16, r19
     abc:	03 03       	mulsu	r16, r19
     abe:	03 03       	mulsu	r16, r19
     ac0:	01 02       	muls	r16, r17
     ac2:	04 08       	sbc	r0, r4
     ac4:	10 20       	and	r1, r0
     ac6:	40 80       	ld	r4, Z
     ac8:	01 02       	muls	r16, r17
     aca:	04 08       	sbc	r0, r4
     acc:	10 20       	and	r1, r0
     ace:	01 02       	muls	r16, r17
     ad0:	04 08       	sbc	r0, r4
     ad2:	10 20       	and	r1, r0
     ad4:	75 0c       	add	r7, r5
     ad6:	5d 14       	cp	r5, r13
     ad8:	11 24       	eor	r1, r1
     ada:	1f be       	out	0x3f, r1	; 63
     adc:	cf ef       	ldi	r28, 0xFF	; 255
     ade:	d8 e0       	ldi	r29, 0x08	; 8
     ae0:	de bf       	out	0x3e, r29	; 62
     ae2:	cd bf       	out	0x3d, r28	; 61
     ae4:	11 e0       	ldi	r17, 0x01	; 1
     ae6:	a0 e0       	ldi	r26, 0x00	; 0
     ae8:	b1 e0       	ldi	r27, 0x01	; 1
     aea:	ea e0       	ldi	r30, 0x0A	; 10
     aec:	fb e2       	ldi	r31, 0x2B	; 43
     aee:	02 c0       	rjmp	.+4      	;  0xaf4
     af0:	05 90       	lpm	r0, Z+
     af2:	0d 92       	st	X+, r0
     af4:	aa 3c       	cpi	r26, 0xCA	; 202
     af6:	b1 07       	cpc	r27, r17
     af8:	d9 f7       	brne	.-10     	;  0xaf0
     afa:	26 e0       	ldi	r18, 0x06	; 6
     afc:	aa ec       	ldi	r26, 0xCA	; 202
     afe:	b1 e0       	ldi	r27, 0x01	; 1
     b00:	01 c0       	rjmp	.+2      	;  0xb04
     b02:	1d 92       	st	X+, r1
     b04:	a4 32       	cpi	r26, 0x24	; 36
     b06:	b2 07       	cpc	r27, r18
     b08:	e1 f7       	brne	.-8      	;  0xb02
     b0a:	15 e0       	ldi	r17, 0x05	; 5
     b0c:	cb e6       	ldi	r28, 0x6B	; 107
     b0e:	d5 e0       	ldi	r29, 0x05	; 5
     b10:	04 c0       	rjmp	.+8      	;  0xb1a
     b12:	21 97       	sbiw	r28, 0x01	; 1
     b14:	fe 01       	movw	r30, r28
     b16:	0e 94 69 15 	call	0x2ad2	;  0x2ad2
     b1a:	ca 36       	cpi	r28, 0x6A	; 106
     b1c:	d1 07       	cpc	r29, r17
     b1e:	c9 f7       	brne	.-14     	;  0xb12
     b20:	0e 94 7d 0d 	call	0x1afa	;  0x1afa
     b24:	0c 94 78 15 	jmp	0x2af0	;  0x2af0
     b28:	0c 94 00 00 	jmp	0	;  0x0
     b2c:	db 01       	movw	r26, r22
     b2e:	fc 01       	movw	r30, r24
     b30:	24 2f       	mov	r18, r20
     b32:	3c 91       	ld	r19, X
     b34:	30 83       	st	Z, r19
     b36:	11 96       	adiw	r26, 0x01	; 1
     b38:	3c 91       	ld	r19, X
     b3a:	11 97       	sbiw	r26, 0x01	; 1
     b3c:	31 83       	std	Z+1, r19	; 0x01
     b3e:	12 96       	adiw	r26, 0x02	; 2
     b40:	3c 91       	ld	r19, X
     b42:	12 97       	sbiw	r26, 0x02	; 2
     b44:	32 83       	std	Z+2, r19	; 0x02
     b46:	13 96       	adiw	r26, 0x03	; 3
     b48:	3c 91       	ld	r19, X
     b4a:	13 97       	sbiw	r26, 0x03	; 3
     b4c:	33 83       	std	Z+3, r19	; 0x03
     b4e:	24 50       	subi	r18, 0x04	; 4
     b50:	14 96       	adiw	r26, 0x04	; 4
     b52:	34 96       	adiw	r30, 0x04	; 4
     b54:	24 30       	cpi	r18, 0x04	; 4
     b56:	68 f7       	brcc	.-38     	;  0xb32
     b58:	2c ef       	ldi	r18, 0xFC	; 252
     b5a:	24 0f       	add	r18, r20
     b5c:	26 95       	lsr	r18
     b5e:	26 95       	lsr	r18
     b60:	30 e0       	ldi	r19, 0x00	; 0
     b62:	2f 5f       	subi	r18, 0xFF	; 255
     b64:	3f 4f       	sbci	r19, 0xFF	; 255
     b66:	22 0f       	add	r18, r18
     b68:	33 1f       	adc	r19, r19
     b6a:	22 0f       	add	r18, r18
     b6c:	33 1f       	adc	r19, r19
     b6e:	43 70       	andi	r20, 0x03	; 3
     b70:	db 01       	movw	r26, r22
     b72:	a2 0f       	add	r26, r18
     b74:	b3 1f       	adc	r27, r19
     b76:	fc 01       	movw	r30, r24
     b78:	e2 0f       	add	r30, r18
     b7a:	f3 1f       	adc	r31, r19
     b7c:	41 50       	subi	r20, 0x01	; 1
     b7e:	18 f0       	brcs	.+6      	;  0xb86
     b80:	8d 91       	ld	r24, X+
     b82:	81 93       	st	Z+, r24
     b84:	fb cf       	rjmp	.-10     	;  0xb7c
     b86:	08 95       	ret
     b88:	4f 92       	push	r4
     b8a:	5f 92       	push	r5
     b8c:	7f 92       	push	r7
     b8e:	8f 92       	push	r8
     b90:	9f 92       	push	r9
     b92:	af 92       	push	r10
     b94:	bf 92       	push	r11
     b96:	cf 92       	push	r12
     b98:	df 92       	push	r13
     b9a:	ef 92       	push	r14
     b9c:	ff 92       	push	r15
     b9e:	0f 93       	push	r16
     ba0:	1f 93       	push	r17
     ba2:	cf 93       	push	r28
     ba4:	df 93       	push	r29
     ba6:	00 d0       	rcall	.+0      	;  0xba8
     ba8:	00 d0       	rcall	.+0      	;  0xbaa
     baa:	cd b7       	in	r28, 0x3d	; 61
     bac:	de b7       	in	r29, 0x3e	; 62
     bae:	60 32       	cpi	r22, 0x20	; 32
     bb0:	71 05       	cpc	r23, r1
     bb2:	09 f4       	brne	.+2      	;  0xbb6
     bb4:	99 c0       	rjmp	.+306    	;  0xce8
     bb6:	f0 f4       	brcc	.+60     	;  0xbf4
     bb8:	60 31       	cpi	r22, 0x10	; 16
     bba:	71 05       	cpc	r23, r1
     bbc:	39 f1       	breq	.+78     	;  0xc0c
     bbe:	68 31       	cpi	r22, 0x18	; 24
     bc0:	71 05       	cpc	r23, r1
     bc2:	09 f4       	brne	.+2      	;  0xbc6
     bc4:	8b c0       	rjmp	.+278    	;  0xcdc
     bc6:	10 92 1e 05 	sts	0x051E, r1	;  0x80051e
     bca:	8f ef       	ldi	r24, 0xFF	; 255
     bcc:	0f 90       	pop	r0
     bce:	0f 90       	pop	r0
     bd0:	0f 90       	pop	r0
     bd2:	0f 90       	pop	r0
     bd4:	df 91       	pop	r29
     bd6:	cf 91       	pop	r28
     bd8:	1f 91       	pop	r17
     bda:	0f 91       	pop	r16
     bdc:	ff 90       	pop	r15
     bde:	ef 90       	pop	r14
     be0:	df 90       	pop	r13
     be2:	cf 90       	pop	r12
     be4:	bf 90       	pop	r11
     be6:	af 90       	pop	r10
     be8:	9f 90       	pop	r9
     bea:	8f 90       	pop	r8
     bec:	7f 90       	pop	r7
     bee:	5f 90       	pop	r5
     bf0:	4f 90       	pop	r4
     bf2:	08 95       	ret
     bf4:	60 3c       	cpi	r22, 0xC0	; 192
     bf6:	71 05       	cpc	r23, r1
     bf8:	09 f4       	brne	.+2      	;  0xbfc
     bfa:	70 c0       	rjmp	.+224    	;  0xcdc
     bfc:	61 15       	cp	r22, r1
     bfe:	21 e0       	ldi	r18, 0x01	; 1
     c00:	72 07       	cpc	r23, r18
     c02:	09 f4       	brne	.+2      	;  0xc06
     c04:	71 c0       	rjmp	.+226    	;  0xce8
     c06:	60 38       	cpi	r22, 0x80	; 128
     c08:	71 05       	cpc	r23, r1
     c0a:	e9 f6       	brne	.-70     	;  0xbc6
     c0c:	2a e0       	ldi	r18, 0x0A	; 10
     c0e:	20 93 1e 05 	sts	0x051E, r18	;  0x80051e
     c12:	00 e1       	ldi	r16, 0x10	; 16
     c14:	10 e0       	ldi	r17, 0x00	; 0
     c16:	bc 01       	movw	r22, r24
     c18:	f0 90 1e 05 	lds	r15, 0x051E	;  0x80051e
     c1c:	f3 94       	inc	r15
     c1e:	f2 94       	swap	r15
     c20:	80 ef       	ldi	r24, 0xF0	; 240
     c22:	f8 22       	and	r15, r24
     c24:	e0 2e       	mov	r14, r16
     c26:	40 2f       	mov	r20, r16
     c28:	81 e2       	ldi	r24, 0x21	; 33
     c2a:	95 e0       	ldi	r25, 0x05	; 5
     c2c:	0e 94 96 05 	call	0xb2c	;  0xb2c
     c30:	b0 2e       	mov	r11, r16
     c32:	90 2e       	mov	r9, r16
     c34:	aa 24       	eor	r10, r10
     c36:	a3 94       	inc	r10
     c38:	be 01       	movw	r22, r28
     c3a:	6b 5f       	subi	r22, 0xFB	; 251
     c3c:	7f 4f       	sbci	r23, 0xFF	; 255
     c3e:	9b e1       	ldi	r25, 0x1B	; 27
     c40:	89 2e       	mov	r8, r25
     c42:	bf 14       	cp	r11, r15
     c44:	08 f0       	brcs	.+2      	;  0xc48
     c46:	6f c0       	rjmp	.+222    	;  0xd26
     c48:	4b 2d       	mov	r20, r11
     c4a:	50 e0       	ldi	r21, 0x00	; 0
     c4c:	fa 01       	movw	r30, r20
     c4e:	e3 5e       	subi	r30, 0xE3	; 227
     c50:	fa 4f       	sbci	r31, 0xFA	; 250
     c52:	ce 01       	movw	r24, r28
     c54:	01 96       	adiw	r24, 0x01	; 1
     c56:	dc 01       	movw	r26, r24
     c58:	21 91       	ld	r18, Z+
     c5a:	2d 93       	st	X+, r18
     c5c:	a6 17       	cp	r26, r22
     c5e:	b7 07       	cpc	r27, r23
     c60:	d9 f7       	brne	.-10     	;  0xc58
     c62:	b9 10       	cpse	r11, r9
     c64:	49 c0       	rjmp	.+146    	;  0xcf8
     c66:	29 81       	ldd	r18, Y+1	; 0x01
     c68:	9b 2c       	mov	r9, r11
     c6a:	9e 0c       	add	r9, r14
     c6c:	ea 81       	ldd	r30, Y+2	; 0x02
     c6e:	f0 e0       	ldi	r31, 0x00	; 0
     c70:	e8 56       	subi	r30, 0x68	; 104
     c72:	f6 4f       	sbci	r31, 0xF6	; 246
     c74:	e4 91       	lpm	r30, Z
     c76:	ea 25       	eor	r30, r10
     c78:	e9 83       	std	Y+1, r30	; 0x01
     c7a:	eb 81       	ldd	r30, Y+3	; 0x03
     c7c:	f0 e0       	ldi	r31, 0x00	; 0
     c7e:	e8 56       	subi	r30, 0x68	; 104
     c80:	f6 4f       	sbci	r31, 0xF6	; 246
     c82:	e4 91       	lpm	r30, Z
     c84:	ea 83       	std	Y+2, r30	; 0x02
     c86:	ec 81       	ldd	r30, Y+4	; 0x04
     c88:	f0 e0       	ldi	r31, 0x00	; 0
     c8a:	e8 56       	subi	r30, 0x68	; 104
     c8c:	f6 4f       	sbci	r31, 0xF6	; 246
     c8e:	e4 91       	lpm	r30, Z
     c90:	eb 83       	std	Y+3, r30	; 0x03
     c92:	e2 2f       	mov	r30, r18
     c94:	f0 e0       	ldi	r31, 0x00	; 0
     c96:	e8 56       	subi	r30, 0x68	; 104
     c98:	f6 4f       	sbci	r31, 0xF6	; 246
     c9a:	e4 91       	lpm	r30, Z
     c9c:	ec 83       	std	Y+4, r30	; 0x04
     c9e:	a7 fe       	sbrs	r10, 7
     ca0:	29 c0       	rjmp	.+82     	;  0xcf4
     ca2:	aa 0c       	add	r10, r10
     ca4:	a8 24       	eor	r10, r8
     ca6:	9a 01       	movw	r18, r20
     ca8:	2f 5d       	subi	r18, 0xDF	; 223
     caa:	3a 4f       	sbci	r19, 0xFA	; 250
     cac:	29 01       	movw	r4, r18
     cae:	2b 2d       	mov	r18, r11
     cb0:	2e 19       	sub	r18, r14
     cb2:	30 e0       	ldi	r19, 0x00	; 0
     cb4:	fc 01       	movw	r30, r24
     cb6:	71 90       	ld	r7, Z+
     cb8:	cf 01       	movw	r24, r30
     cba:	62 01       	movw	r12, r4
     cbc:	c4 1a       	sub	r12, r20
     cbe:	d5 0a       	sbc	r13, r21
     cc0:	c2 0e       	add	r12, r18
     cc2:	d3 1e       	adc	r13, r19
     cc4:	f6 01       	movw	r30, r12
     cc6:	d0 80       	ld	r13, Z
     cc8:	d7 24       	eor	r13, r7
     cca:	f2 01       	movw	r30, r4
     ccc:	d1 92       	st	Z+, r13
     cce:	2f 01       	movw	r4, r30
     cd0:	8a 17       	cp	r24, r26
     cd2:	9b 07       	cpc	r25, r27
     cd4:	79 f7       	brne	.-34     	;  0xcb4
     cd6:	f4 e0       	ldi	r31, 0x04	; 4
     cd8:	bf 0e       	add	r11, r31
     cda:	b3 cf       	rjmp	.-154    	;  0xc42
     cdc:	2c e0       	ldi	r18, 0x0C	; 12
     cde:	20 93 1e 05 	sts	0x051E, r18	;  0x80051e
     ce2:	08 e1       	ldi	r16, 0x18	; 24
     ce4:	10 e0       	ldi	r17, 0x00	; 0
     ce6:	97 cf       	rjmp	.-210    	;  0xc16
     ce8:	2e e0       	ldi	r18, 0x0E	; 14
     cea:	20 93 1e 05 	sts	0x051E, r18	;  0x80051e
     cee:	00 e2       	ldi	r16, 0x20	; 32
     cf0:	10 e0       	ldi	r17, 0x00	; 0
     cf2:	91 cf       	rjmp	.-222    	;  0xc16
     cf4:	aa 0c       	add	r10, r10
     cf6:	d7 cf       	rjmp	.-82     	;  0xca6
     cf8:	00 32       	cpi	r16, 0x20	; 32
     cfa:	11 05       	cpc	r17, r1
     cfc:	a1 f6       	brne	.-88     	;  0xca6
     cfe:	2b 2d       	mov	r18, r11
     d00:	2f 71       	andi	r18, 0x1F	; 31
     d02:	20 31       	cpi	r18, 0x10	; 16
     d04:	81 f6       	brne	.-96     	;  0xca6
     d06:	9c 01       	movw	r18, r24
     d08:	f9 01       	movw	r30, r18
     d0a:	d1 90       	ld	r13, Z+
     d0c:	9f 01       	movw	r18, r30
     d0e:	ed 2d       	mov	r30, r13
     d10:	f0 e0       	ldi	r31, 0x00	; 0
     d12:	e8 56       	subi	r30, 0x68	; 104
     d14:	f6 4f       	sbci	r31, 0xF6	; 246
     d16:	d4 90       	lpm	r13, Z
     d18:	f9 01       	movw	r30, r18
     d1a:	31 97       	sbiw	r30, 0x01	; 1
     d1c:	d0 82       	st	Z, r13
     d1e:	2a 17       	cp	r18, r26
     d20:	3b 07       	cpc	r19, r27
     d22:	91 f7       	brne	.-28     	;  0xd08
     d24:	c0 cf       	rjmp	.-128    	;  0xca6
     d26:	80 e0       	ldi	r24, 0x00	; 0
     d28:	51 cf       	rjmp	.-350    	;  0xbcc
     d2a:	83 30       	cpi	r24, 0x03	; 3
     d2c:	81 f0       	breq	.+32     	;  0xd4e
     d2e:	28 f4       	brcc	.+10     	;  0xd3a
     d30:	81 30       	cpi	r24, 0x01	; 1
     d32:	99 f0       	breq	.+38     	;  0xd5a
     d34:	82 30       	cpi	r24, 0x02	; 2
     d36:	a9 f0       	breq	.+42     	;  0xd62
     d38:	08 95       	ret
     d3a:	87 30       	cpi	r24, 0x07	; 7
     d3c:	a9 f0       	breq	.+42     	;  0xd68
     d3e:	88 30       	cpi	r24, 0x08	; 8
     d40:	c9 f0       	breq	.+50     	;  0xd74
     d42:	84 30       	cpi	r24, 0x04	; 4
     d44:	b1 f4       	brne	.+44     	;  0xd72
     d46:	80 91 80 00 	lds	r24, 0x0080	;  0x800080
     d4a:	8f 7d       	andi	r24, 0xDF	; 223
     d4c:	03 c0       	rjmp	.+6      	;  0xd54
     d4e:	80 91 80 00 	lds	r24, 0x0080	;  0x800080
     d52:	8f 77       	andi	r24, 0x7F	; 127
     d54:	80 93 80 00 	sts	0x0080, r24	;  0x800080
     d58:	08 95       	ret
     d5a:	84 b5       	in	r24, 0x24	; 36
     d5c:	8f 77       	andi	r24, 0x7F	; 127
     d5e:	84 bd       	out	0x24, r24	; 36
     d60:	08 95       	ret
     d62:	84 b5       	in	r24, 0x24	; 36
     d64:	8f 7d       	andi	r24, 0xDF	; 223
     d66:	fb cf       	rjmp	.-10     	;  0xd5e
     d68:	80 91 b0 00 	lds	r24, 0x00B0	;  0x8000b0
     d6c:	8f 77       	andi	r24, 0x7F	; 127
     d6e:	80 93 b0 00 	sts	0x00B0, r24	;  0x8000b0
     d72:	08 95       	ret
     d74:	80 91 b0 00 	lds	r24, 0x00B0	;  0x8000b0
     d78:	8f 7d       	andi	r24, 0xDF	; 223
     d7a:	f9 cf       	rjmp	.-14     	;  0xd6e
     d7c:	1f 93       	push	r17
     d7e:	cf 93       	push	r28
     d80:	df 93       	push	r29
     d82:	28 2f       	mov	r18, r24
     d84:	30 e0       	ldi	r19, 0x00	; 0
     d86:	f9 01       	movw	r30, r18
     d88:	ec 57       	subi	r30, 0x7C	; 124
     d8a:	f6 4f       	sbci	r31, 0xF6	; 246
     d8c:	84 91       	lpm	r24, Z
     d8e:	f9 01       	movw	r30, r18
     d90:	e0 54       	subi	r30, 0x40	; 64
     d92:	f5 4f       	sbci	r31, 0xF5	; 245
     d94:	d4 91       	lpm	r29, Z
     d96:	f9 01       	movw	r30, r18
     d98:	e4 55       	subi	r30, 0x54	; 84
     d9a:	f5 4f       	sbci	r31, 0xF5	; 245
     d9c:	c4 91       	lpm	r28, Z
     d9e:	cc 23       	and	r28, r28
     da0:	a9 f0       	breq	.+42     	;  0xdcc
     da2:	16 2f       	mov	r17, r22
     da4:	81 11       	cpse	r24, r1
     da6:	0e 94 95 06 	call	0xd2a	;  0xd2a
     daa:	ec 2f       	mov	r30, r28
     dac:	f0 e0       	ldi	r31, 0x00	; 0
     dae:	ee 0f       	add	r30, r30
     db0:	ff 1f       	adc	r31, r31
     db2:	ee 55       	subi	r30, 0x5E	; 94
     db4:	f5 4f       	sbci	r31, 0xF5	; 245
     db6:	a5 91       	lpm	r26, Z+
     db8:	b4 91       	lpm	r27, Z
     dba:	8f b7       	in	r24, 0x3f	; 63
     dbc:	f8 94       	cli
     dbe:	ec 91       	ld	r30, X
     dc0:	11 11       	cpse	r17, r1
     dc2:	08 c0       	rjmp	.+16     	;  0xdd4
     dc4:	d0 95       	com	r29
     dc6:	de 23       	and	r29, r30
     dc8:	dc 93       	st	X, r29
     dca:	8f bf       	out	0x3f, r24	; 63
     dcc:	df 91       	pop	r29
     dce:	cf 91       	pop	r28
     dd0:	1f 91       	pop	r17
     dd2:	08 95       	ret
     dd4:	de 2b       	or	r29, r30
     dd6:	f8 cf       	rjmp	.-16     	;  0xdc8
     dd8:	cf 93       	push	r28
     dda:	df 93       	push	r29
     ddc:	90 e0       	ldi	r25, 0x00	; 0
     dde:	fc 01       	movw	r30, r24
     de0:	e0 54       	subi	r30, 0x40	; 64
     de2:	f5 4f       	sbci	r31, 0xF5	; 245
     de4:	24 91       	lpm	r18, Z
     de6:	84 55       	subi	r24, 0x54	; 84
     de8:	95 4f       	sbci	r25, 0xF5	; 245
     dea:	fc 01       	movw	r30, r24
     dec:	84 91       	lpm	r24, Z
     dee:	88 23       	and	r24, r24
     df0:	c9 f0       	breq	.+50     	;  0xe24
     df2:	90 e0       	ldi	r25, 0x00	; 0
     df4:	88 0f       	add	r24, r24
     df6:	99 1f       	adc	r25, r25
     df8:	fc 01       	movw	r30, r24
     dfa:	e6 58       	subi	r30, 0x86	; 134
     dfc:	f6 4f       	sbci	r31, 0xF6	; 246
     dfe:	a5 91       	lpm	r26, Z+
     e00:	b4 91       	lpm	r27, Z
     e02:	fc 01       	movw	r30, r24
     e04:	ee 55       	subi	r30, 0x5E	; 94
     e06:	f5 4f       	sbci	r31, 0xF5	; 245
     e08:	c5 91       	lpm	r28, Z+
     e0a:	d4 91       	lpm	r29, Z
     e0c:	61 11       	cpse	r22, r1
     e0e:	0d c0       	rjmp	.+26     	;  0xe2a
     e10:	9f b7       	in	r25, 0x3f	; 63
     e12:	f8 94       	cli
     e14:	8c 91       	ld	r24, X
     e16:	20 95       	com	r18
     e18:	82 23       	and	r24, r18
     e1a:	8c 93       	st	X, r24
     e1c:	88 81       	ld	r24, Y
     e1e:	28 23       	and	r18, r24
     e20:	28 83       	st	Y, r18
     e22:	9f bf       	out	0x3f, r25	; 63
     e24:	df 91       	pop	r29
     e26:	cf 91       	pop	r28
     e28:	08 95       	ret
     e2a:	62 30       	cpi	r22, 0x02	; 2
     e2c:	51 f4       	brne	.+20     	;  0xe42
     e2e:	9f b7       	in	r25, 0x3f	; 63
     e30:	f8 94       	cli
     e32:	3c 91       	ld	r19, X
     e34:	82 2f       	mov	r24, r18
     e36:	80 95       	com	r24
     e38:	83 23       	and	r24, r19
     e3a:	8c 93       	st	X, r24
     e3c:	e8 81       	ld	r30, Y
     e3e:	2e 2b       	or	r18, r30
     e40:	ef cf       	rjmp	.-34     	;  0xe20
     e42:	8f b7       	in	r24, 0x3f	; 63
     e44:	f8 94       	cli
     e46:	ec 91       	ld	r30, X
     e48:	2e 2b       	or	r18, r30
     e4a:	2c 93       	st	X, r18
     e4c:	8f bf       	out	0x3f, r24	; 63
     e4e:	ea cf       	rjmp	.-44     	;  0xe24
     e50:	3f b7       	in	r19, 0x3f	; 63
     e52:	f8 94       	cli
     e54:	80 91 46 04 	lds	r24, 0x0446	;  0x800446
     e58:	90 91 47 04 	lds	r25, 0x0447	;  0x800447
     e5c:	a0 91 48 04 	lds	r26, 0x0448	;  0x800448
     e60:	b0 91 49 04 	lds	r27, 0x0449	;  0x800449
     e64:	26 b5       	in	r18, 0x26	; 38
     e66:	a8 9b       	sbis	0x15, 0	; 21
     e68:	05 c0       	rjmp	.+10     	;  0xe74
     e6a:	2f 3f       	cpi	r18, 0xFF	; 255
     e6c:	19 f0       	breq	.+6      	;  0xe74
     e6e:	01 96       	adiw	r24, 0x01	; 1
     e70:	a1 1d       	adc	r26, r1
     e72:	b1 1d       	adc	r27, r1
     e74:	3f bf       	out	0x3f, r19	; 63
     e76:	ba 2f       	mov	r27, r26
     e78:	a9 2f       	mov	r26, r25
     e7a:	98 2f       	mov	r25, r24
     e7c:	88 27       	eor	r24, r24
     e7e:	bc 01       	movw	r22, r24
     e80:	cd 01       	movw	r24, r26
     e82:	62 0f       	add	r22, r18
     e84:	71 1d       	adc	r23, r1
     e86:	81 1d       	adc	r24, r1
     e88:	91 1d       	adc	r25, r1
     e8a:	42 e0       	ldi	r20, 0x02	; 2
     e8c:	66 0f       	add	r22, r22
     e8e:	77 1f       	adc	r23, r23
     e90:	88 1f       	adc	r24, r24
     e92:	99 1f       	adc	r25, r25
     e94:	4a 95       	dec	r20
     e96:	d1 f7       	brne	.-12     	;  0xe8c
     e98:	08 95       	ret
     e9a:	8f 92       	push	r8
     e9c:	9f 92       	push	r9
     e9e:	af 92       	push	r10
     ea0:	bf 92       	push	r11
     ea2:	cf 92       	push	r12
     ea4:	df 92       	push	r13
     ea6:	ef 92       	push	r14
     ea8:	ff 92       	push	r15
     eaa:	4b 01       	movw	r8, r22
     eac:	5c 01       	movw	r10, r24
     eae:	0e 94 28 07 	call	0xe50	;  0xe50
     eb2:	6b 01       	movw	r12, r22
     eb4:	7c 01       	movw	r14, r24
     eb6:	0e 94 28 07 	call	0xe50	;  0xe50
     eba:	6c 19       	sub	r22, r12
     ebc:	7d 09       	sbc	r23, r13
     ebe:	8e 09       	sbc	r24, r14
     ec0:	9f 09       	sbc	r25, r15
     ec2:	68 3e       	cpi	r22, 0xE8	; 232
     ec4:	73 40       	sbci	r23, 0x03	; 3
     ec6:	81 05       	cpc	r24, r1
     ec8:	91 05       	cpc	r25, r1
     eca:	a8 f3       	brcs	.-22     	;  0xeb6
     ecc:	21 e0       	ldi	r18, 0x01	; 1
     ece:	82 1a       	sub	r8, r18
     ed0:	91 08       	sbc	r9, r1
     ed2:	a1 08       	sbc	r10, r1
     ed4:	b1 08       	sbc	r11, r1
     ed6:	88 ee       	ldi	r24, 0xE8	; 232
     ed8:	c8 0e       	add	r12, r24
     eda:	83 e0       	ldi	r24, 0x03	; 3
     edc:	d8 1e       	adc	r13, r24
     ede:	e1 1c       	adc	r14, r1
     ee0:	f1 1c       	adc	r15, r1
     ee2:	81 14       	cp	r8, r1
     ee4:	91 04       	cpc	r9, r1
     ee6:	a1 04       	cpc	r10, r1
     ee8:	b1 04       	cpc	r11, r1
     eea:	29 f7       	brne	.-54     	;  0xeb6
     eec:	ff 90       	pop	r15
     eee:	ef 90       	pop	r14
     ef0:	df 90       	pop	r13
     ef2:	cf 90       	pop	r12
     ef4:	bf 90       	pop	r11
     ef6:	af 90       	pop	r10
     ef8:	9f 90       	pop	r9
     efa:	8f 90       	pop	r8
     efc:	08 95       	ret
     efe:	dc 01       	movw	r26, r24
     f00:	ed 91       	ld	r30, X+
     f02:	fc 91       	ld	r31, X
     f04:	01 90       	ld	r0, Z+
     f06:	f0 81       	ld	r31, Z
     f08:	e0 2d       	mov	r30, r0
     f0a:	09 94       	ijmp
     f0c:	ef 92       	push	r14
     f0e:	ff 92       	push	r15
     f10:	0f 93       	push	r16
     f12:	1f 93       	push	r17
     f14:	cf 93       	push	r28
     f16:	df 93       	push	r29
     f18:	8c 01       	movw	r16, r24
     f1a:	7b 01       	movw	r14, r22
     f1c:	d0 e0       	ldi	r29, 0x00	; 0
     f1e:	c0 e0       	ldi	r28, 0x00	; 0
     f20:	f7 01       	movw	r30, r14
     f22:	ec 0f       	add	r30, r28
     f24:	fd 1f       	adc	r31, r29
     f26:	64 91       	lpm	r22, Z
     f28:	66 23       	and	r22, r22
     f2a:	61 f0       	breq	.+24     	;  0xf44
     f2c:	d8 01       	movw	r26, r16
     f2e:	ed 91       	ld	r30, X+
     f30:	fc 91       	ld	r31, X
     f32:	01 90       	ld	r0, Z+
     f34:	f0 81       	ld	r31, Z
     f36:	e0 2d       	mov	r30, r0
     f38:	c8 01       	movw	r24, r16
     f3a:	09 95       	icall
     f3c:	89 2b       	or	r24, r25
     f3e:	11 f0       	breq	.+4      	;  0xf44
     f40:	21 96       	adiw	r28, 0x01	; 1
     f42:	ee cf       	rjmp	.-36     	;  0xf20
     f44:	ce 01       	movw	r24, r28
     f46:	df 91       	pop	r29
     f48:	cf 91       	pop	r28
     f4a:	1f 91       	pop	r17
     f4c:	0f 91       	pop	r16
     f4e:	ff 90       	pop	r15
     f50:	ef 90       	pop	r14
     f52:	08 95       	ret
     f54:	af 92       	push	r10
     f56:	bf 92       	push	r11
     f58:	cf 92       	push	r12
     f5a:	df 92       	push	r13
     f5c:	ef 92       	push	r14
     f5e:	ff 92       	push	r15
     f60:	0f 93       	push	r16
     f62:	1f 93       	push	r17
     f64:	cf 93       	push	r28
     f66:	df 93       	push	r29
     f68:	6c 01       	movw	r12, r24
     f6a:	7b 01       	movw	r14, r22
     f6c:	8b 01       	movw	r16, r22
     f6e:	04 0f       	add	r16, r20
     f70:	15 1f       	adc	r17, r21
     f72:	eb 01       	movw	r28, r22
     f74:	5e 01       	movw	r10, r28
     f76:	ae 18       	sub	r10, r14
     f78:	bf 08       	sbc	r11, r15
     f7a:	c0 17       	cp	r28, r16
     f7c:	d1 07       	cpc	r29, r17
     f7e:	59 f0       	breq	.+22     	;  0xf96
     f80:	69 91       	ld	r22, Y+
     f82:	d6 01       	movw	r26, r12
     f84:	ed 91       	ld	r30, X+
     f86:	fc 91       	ld	r31, X
     f88:	01 90       	ld	r0, Z+
     f8a:	f0 81       	ld	r31, Z
     f8c:	e0 2d       	mov	r30, r0
     f8e:	c6 01       	movw	r24, r12
     f90:	09 95       	icall
     f92:	89 2b       	or	r24, r25
     f94:	79 f7       	brne	.-34     	;  0xf74
     f96:	c5 01       	movw	r24, r10
     f98:	df 91       	pop	r29
     f9a:	cf 91       	pop	r28
     f9c:	1f 91       	pop	r17
     f9e:	0f 91       	pop	r16
     fa0:	ff 90       	pop	r15
     fa2:	ef 90       	pop	r14
     fa4:	df 90       	pop	r13
     fa6:	cf 90       	pop	r12
     fa8:	bf 90       	pop	r11
     faa:	af 90       	pop	r10
     fac:	08 95       	ret
     fae:	fc 01       	movw	r30, r24
     fb0:	53 8d       	ldd	r21, Z+27	; 0x1b
     fb2:	44 8d       	ldd	r20, Z+28	; 0x1c
     fb4:	25 2f       	mov	r18, r21
     fb6:	30 e0       	ldi	r19, 0x00	; 0
     fb8:	84 2f       	mov	r24, r20
     fba:	90 e0       	ldi	r25, 0x00	; 0
     fbc:	82 1b       	sub	r24, r18
     fbe:	93 0b       	sbc	r25, r19
     fc0:	54 17       	cp	r21, r20
     fc2:	10 f0       	brcs	.+4      	;  0xfc8
     fc4:	cf 96       	adiw	r24, 0x3f	; 63
     fc6:	08 95       	ret
     fc8:	01 97       	sbiw	r24, 0x01	; 1
     fca:	08 95       	ret
     fcc:	fc 01       	movw	r30, r24
     fce:	91 8d       	ldd	r25, Z+25	; 0x19
     fd0:	82 8d       	ldd	r24, Z+26	; 0x1a
     fd2:	98 17       	cp	r25, r24
     fd4:	61 f0       	breq	.+24     	;  0xfee
     fd6:	a2 8d       	ldd	r26, Z+26	; 0x1a
     fd8:	ae 0f       	add	r26, r30
     fda:	bf 2f       	mov	r27, r31
     fdc:	b1 1d       	adc	r27, r1
     fde:	5d 96       	adiw	r26, 0x1d	; 29
     fe0:	8c 91       	ld	r24, X
     fe2:	92 8d       	ldd	r25, Z+26	; 0x1a
     fe4:	9f 5f       	subi	r25, 0xFF	; 255
     fe6:	9f 73       	andi	r25, 0x3F	; 63
     fe8:	92 8f       	std	Z+26, r25	; 0x1a
     fea:	90 e0       	ldi	r25, 0x00	; 0
     fec:	08 95       	ret
     fee:	8f ef       	ldi	r24, 0xFF	; 255
     ff0:	9f ef       	ldi	r25, 0xFF	; 255
     ff2:	08 95       	ret
     ff4:	fc 01       	movw	r30, r24
     ff6:	91 8d       	ldd	r25, Z+25	; 0x19
     ff8:	82 8d       	ldd	r24, Z+26	; 0x1a
     ffa:	98 17       	cp	r25, r24
     ffc:	31 f0       	breq	.+12     	;  0x100a
     ffe:	82 8d       	ldd	r24, Z+26	; 0x1a
    1000:	e8 0f       	add	r30, r24
    1002:	f1 1d       	adc	r31, r1
    1004:	85 8d       	ldd	r24, Z+29	; 0x1d
    1006:	90 e0       	ldi	r25, 0x00	; 0
    1008:	08 95       	ret
    100a:	8f ef       	ldi	r24, 0xFF	; 255
    100c:	9f ef       	ldi	r25, 0xFF	; 255
    100e:	08 95       	ret
    1010:	fc 01       	movw	r30, r24
    1012:	91 8d       	ldd	r25, Z+25	; 0x19
    1014:	22 8d       	ldd	r18, Z+26	; 0x1a
    1016:	89 2f       	mov	r24, r25
    1018:	90 e0       	ldi	r25, 0x00	; 0
    101a:	80 5c       	subi	r24, 0xC0	; 192
    101c:	9f 4f       	sbci	r25, 0xFF	; 255
    101e:	82 1b       	sub	r24, r18
    1020:	91 09       	sbc	r25, r1
    1022:	8f 73       	andi	r24, 0x3F	; 63
    1024:	99 27       	eor	r25, r25
    1026:	08 95       	ret
    1028:	8a e4       	ldi	r24, 0x4A	; 74
    102a:	94 e0       	ldi	r25, 0x04	; 4
    102c:	0e 94 08 08 	call	0x1010	;  0x1010
    1030:	21 e0       	ldi	r18, 0x01	; 1
    1032:	89 2b       	or	r24, r25
    1034:	09 f4       	brne	.+2      	;  0x1038
    1036:	20 e0       	ldi	r18, 0x00	; 0
    1038:	82 2f       	mov	r24, r18
    103a:	08 95       	ret
    103c:	80 e0       	ldi	r24, 0x00	; 0
    103e:	90 e0       	ldi	r25, 0x00	; 0
    1040:	89 2b       	or	r24, r25
    1042:	29 f0       	breq	.+10     	;  0x104e
    1044:	0e 94 14 08 	call	0x1028	;  0x1028
    1048:	81 11       	cpse	r24, r1
    104a:	0c 94 00 00 	jmp	0	;  0x0
    104e:	08 95       	ret
    1050:	fc 01       	movw	r30, r24
    1052:	a4 8d       	ldd	r26, Z+28	; 0x1c
    1054:	a8 0f       	add	r26, r24
    1056:	b9 2f       	mov	r27, r25
    1058:	b1 1d       	adc	r27, r1
    105a:	a3 5a       	subi	r26, 0xA3	; 163
    105c:	bf 4f       	sbci	r27, 0xFF	; 255
    105e:	2c 91       	ld	r18, X
    1060:	84 8d       	ldd	r24, Z+28	; 0x1c
    1062:	90 e0       	ldi	r25, 0x00	; 0
    1064:	01 96       	adiw	r24, 0x01	; 1
    1066:	8f 73       	andi	r24, 0x3F	; 63
    1068:	99 27       	eor	r25, r25
    106a:	84 8f       	std	Z+28, r24	; 0x1c
    106c:	a6 89       	ldd	r26, Z+22	; 0x16
    106e:	b7 89       	ldd	r27, Z+23	; 0x17
    1070:	2c 93       	st	X, r18
    1072:	a0 89       	ldd	r26, Z+16	; 0x10
    1074:	b1 89       	ldd	r27, Z+17	; 0x11
    1076:	8c 91       	ld	r24, X
    1078:	83 70       	andi	r24, 0x03	; 3
    107a:	80 64       	ori	r24, 0x40	; 64
    107c:	8c 93       	st	X, r24
    107e:	93 8d       	ldd	r25, Z+27	; 0x1b
    1080:	84 8d       	ldd	r24, Z+28	; 0x1c
    1082:	98 13       	cpse	r25, r24
    1084:	06 c0       	rjmp	.+12     	;  0x1092
    1086:	02 88       	ldd	r0, Z+18	; 0x12
    1088:	f3 89       	ldd	r31, Z+19	; 0x13
    108a:	e0 2d       	mov	r30, r0
    108c:	80 81       	ld	r24, Z
    108e:	8f 7d       	andi	r24, 0xDF	; 223
    1090:	80 83       	st	Z, r24
    1092:	08 95       	ret
    1094:	ef 92       	push	r14
    1096:	ff 92       	push	r15
    1098:	0f 93       	push	r16
    109a:	1f 93       	push	r17
    109c:	cf 93       	push	r28
    109e:	df 93       	push	r29
    10a0:	ec 01       	movw	r28, r24
    10a2:	81 e0       	ldi	r24, 0x01	; 1
    10a4:	88 8f       	std	Y+24, r24	; 0x18
    10a6:	9b 8d       	ldd	r25, Y+27	; 0x1b
    10a8:	8c 8d       	ldd	r24, Y+28	; 0x1c
    10aa:	98 13       	cpse	r25, r24
    10ac:	1a c0       	rjmp	.+52     	;  0x10e2
    10ae:	e8 89       	ldd	r30, Y+16	; 0x10
    10b0:	f9 89       	ldd	r31, Y+17	; 0x11
    10b2:	80 81       	ld	r24, Z
    10b4:	85 ff       	sbrs	r24, 5
    10b6:	15 c0       	rjmp	.+42     	;  0x10e2
    10b8:	9f b7       	in	r25, 0x3f	; 63
    10ba:	f8 94       	cli
    10bc:	ee 89       	ldd	r30, Y+22	; 0x16
    10be:	ff 89       	ldd	r31, Y+23	; 0x17
    10c0:	60 83       	st	Z, r22
    10c2:	e8 89       	ldd	r30, Y+16	; 0x10
    10c4:	f9 89       	ldd	r31, Y+17	; 0x11
    10c6:	80 81       	ld	r24, Z
    10c8:	83 70       	andi	r24, 0x03	; 3
    10ca:	80 64       	ori	r24, 0x40	; 64
    10cc:	80 83       	st	Z, r24
    10ce:	9f bf       	out	0x3f, r25	; 63
    10d0:	81 e0       	ldi	r24, 0x01	; 1
    10d2:	90 e0       	ldi	r25, 0x00	; 0
    10d4:	df 91       	pop	r29
    10d6:	cf 91       	pop	r28
    10d8:	1f 91       	pop	r17
    10da:	0f 91       	pop	r16
    10dc:	ff 90       	pop	r15
    10de:	ef 90       	pop	r14
    10e0:	08 95       	ret
    10e2:	f6 2e       	mov	r15, r22
    10e4:	0b 8d       	ldd	r16, Y+27	; 0x1b
    10e6:	10 e0       	ldi	r17, 0x00	; 0
    10e8:	0f 5f       	subi	r16, 0xFF	; 255
    10ea:	1f 4f       	sbci	r17, 0xFF	; 255
    10ec:	0f 73       	andi	r16, 0x3F	; 63
    10ee:	11 27       	eor	r17, r17
    10f0:	e0 2e       	mov	r14, r16
    10f2:	8c 8d       	ldd	r24, Y+28	; 0x1c
    10f4:	8e 11       	cpse	r24, r14
    10f6:	0c c0       	rjmp	.+24     	;  0x1110
    10f8:	0f b6       	in	r0, 0x3f	; 63
    10fa:	07 fc       	sbrc	r0, 7
    10fc:	fa cf       	rjmp	.-12     	;  0x10f2
    10fe:	e8 89       	ldd	r30, Y+16	; 0x10
    1100:	f9 89       	ldd	r31, Y+17	; 0x11
    1102:	80 81       	ld	r24, Z
    1104:	85 ff       	sbrs	r24, 5
    1106:	f5 cf       	rjmp	.-22     	;  0x10f2
    1108:	ce 01       	movw	r24, r28
    110a:	0e 94 28 08 	call	0x1050	;  0x1050
    110e:	f1 cf       	rjmp	.-30     	;  0x10f2
    1110:	eb 8d       	ldd	r30, Y+27	; 0x1b
    1112:	ec 0f       	add	r30, r28
    1114:	fd 2f       	mov	r31, r29
    1116:	f1 1d       	adc	r31, r1
    1118:	e3 5a       	subi	r30, 0xA3	; 163
    111a:	ff 4f       	sbci	r31, 0xFF	; 255
    111c:	f0 82       	st	Z, r15
    111e:	9f b7       	in	r25, 0x3f	; 63
    1120:	f8 94       	cli
    1122:	0b 8f       	std	Y+27, r16	; 0x1b
    1124:	ea 89       	ldd	r30, Y+18	; 0x12
    1126:	fb 89       	ldd	r31, Y+19	; 0x13
    1128:	80 81       	ld	r24, Z
    112a:	80 62       	ori	r24, 0x20	; 32
    112c:	cf cf       	rjmp	.-98     	;  0x10cc
    112e:	cf 93       	push	r28
    1130:	df 93       	push	r29
    1132:	ec 01       	movw	r28, r24
    1134:	88 8d       	ldd	r24, Y+24	; 0x18
    1136:	88 23       	and	r24, r24
    1138:	b9 f0       	breq	.+46     	;  0x1168
    113a:	aa 89       	ldd	r26, Y+18	; 0x12
    113c:	bb 89       	ldd	r27, Y+19	; 0x13
    113e:	e8 89       	ldd	r30, Y+16	; 0x10
    1140:	f9 89       	ldd	r31, Y+17	; 0x11
    1142:	8c 91       	ld	r24, X
    1144:	85 fd       	sbrc	r24, 5
    1146:	03 c0       	rjmp	.+6      	;  0x114e
    1148:	80 81       	ld	r24, Z
    114a:	86 fd       	sbrc	r24, 6
    114c:	0d c0       	rjmp	.+26     	;  0x1168
    114e:	0f b6       	in	r0, 0x3f	; 63
    1150:	07 fc       	sbrc	r0, 7
    1152:	f7 cf       	rjmp	.-18     	;  0x1142
    1154:	8c 91       	ld	r24, X
    1156:	85 ff       	sbrs	r24, 5
    1158:	f2 cf       	rjmp	.-28     	;  0x113e
    115a:	80 81       	ld	r24, Z
    115c:	85 ff       	sbrs	r24, 5
    115e:	ed cf       	rjmp	.-38     	;  0x113a
    1160:	ce 01       	movw	r24, r28
    1162:	0e 94 28 08 	call	0x1050	;  0x1050
    1166:	e9 cf       	rjmp	.-46     	;  0x113a
    1168:	df 91       	pop	r29
    116a:	cf 91       	pop	r28
    116c:	08 95       	ret
    116e:	cf 93       	push	r28
    1170:	df 93       	push	r29
    1172:	fc 01       	movw	r30, r24
    1174:	eb 01       	movw	r28, r22
    1176:	da 01       	movw	r26, r20
    1178:	9c 01       	movw	r18, r24
    117a:	20 5f       	subi	r18, 0xF0	; 240
    117c:	3f 4f       	sbci	r19, 0xFF	; 255
    117e:	88 81       	ld	r24, Y
    1180:	9c 91       	ld	r25, X
    1182:	89 27       	eor	r24, r25
    1184:	80 83       	st	Z, r24
    1186:	89 81       	ldd	r24, Y+1	; 0x01
    1188:	11 96       	adiw	r26, 0x01	; 1
    118a:	9c 91       	ld	r25, X
    118c:	11 97       	sbiw	r26, 0x01	; 1
    118e:	89 27       	eor	r24, r25
    1190:	81 83       	std	Z+1, r24	; 0x01
    1192:	8a 81       	ldd	r24, Y+2	; 0x02
    1194:	12 96       	adiw	r26, 0x02	; 2
    1196:	9c 91       	ld	r25, X
    1198:	12 97       	sbiw	r26, 0x02	; 2
    119a:	89 27       	eor	r24, r25
    119c:	82 83       	std	Z+2, r24	; 0x02
    119e:	8b 81       	ldd	r24, Y+3	; 0x03
    11a0:	13 96       	adiw	r26, 0x03	; 3
    11a2:	9c 91       	ld	r25, X
    11a4:	13 97       	sbiw	r26, 0x03	; 3
    11a6:	89 27       	eor	r24, r25
    11a8:	83 83       	std	Z+3, r24	; 0x03
    11aa:	34 96       	adiw	r30, 0x04	; 4
    11ac:	24 96       	adiw	r28, 0x04	; 4
    11ae:	14 96       	adiw	r26, 0x04	; 4
    11b0:	e2 17       	cp	r30, r18
    11b2:	f3 07       	cpc	r31, r19
    11b4:	21 f7       	brne	.-56     	;  0x117e
    11b6:	df 91       	pop	r29
    11b8:	cf 91       	pop	r28
    11ba:	08 95       	ret
    11bc:	20 91 0c 02 	lds	r18, 0x020C	;  0x80020c
    11c0:	30 91 0d 02 	lds	r19, 0x020D	;  0x80020d
    11c4:	28 17       	cp	r18, r24
    11c6:	39 07       	cpc	r19, r25
    11c8:	71 f4       	brne	.+28     	;  0x11e6
    11ca:	90 91 0a 02 	lds	r25, 0x020A	;  0x80020a
    11ce:	80 91 0b 02 	lds	r24, 0x020B	;  0x80020b
    11d2:	98 17       	cp	r25, r24
    11d4:	41 f0       	breq	.+16     	;  0x11e6
    11d6:	e0 91 0a 02 	lds	r30, 0x020A	;  0x80020a
    11da:	f0 e0       	ldi	r31, 0x00	; 0
    11dc:	e6 53       	subi	r30, 0x36	; 54
    11de:	fe 4f       	sbci	r31, 0xFE	; 254
    11e0:	80 81       	ld	r24, Z
    11e2:	90 e0       	ldi	r25, 0x00	; 0
    11e4:	08 95       	ret
    11e6:	8f ef       	ldi	r24, 0xFF	; 255
    11e8:	9f ef       	ldi	r25, 0xFF	; 255
    11ea:	08 95       	ret
    11ec:	08 95       	ret
    11ee:	ef 92       	push	r14
    11f0:	ff 92       	push	r15
    11f2:	0f 93       	push	r16
    11f4:	1f 93       	push	r17
    11f6:	cf 93       	push	r28
    11f8:	df 93       	push	r29
    11fa:	dc 01       	movw	r26, r24
    11fc:	5c 96       	adiw	r26, 0x1c	; 28
    11fe:	ed 90       	ld	r14, X+
    1200:	fc 90       	ld	r15, X
    1202:	5d 97       	sbiw	r26, 0x1d	; 29
    1204:	e1 14       	cp	r14, r1
    1206:	f1 04       	cpc	r15, r1
    1208:	79 f4       	brne	.+30     	;  0x1228
    120a:	81 e0       	ldi	r24, 0x01	; 1
    120c:	90 e0       	ldi	r25, 0x00	; 0
    120e:	13 96       	adiw	r26, 0x03	; 3
    1210:	9c 93       	st	X, r25
    1212:	8e 93       	st	-X, r24
    1214:	12 97       	sbiw	r26, 0x02	; 2
    1216:	90 e0       	ldi	r25, 0x00	; 0
    1218:	80 e0       	ldi	r24, 0x00	; 0
    121a:	df 91       	pop	r29
    121c:	cf 91       	pop	r28
    121e:	1f 91       	pop	r17
    1220:	0f 91       	pop	r16
    1222:	ff 90       	pop	r15
    1224:	ef 90       	pop	r14
    1226:	08 95       	ret
    1228:	51 96       	adiw	r26, 0x11	; 17
    122a:	ed 91       	ld	r30, X+
    122c:	fc 91       	ld	r31, X
    122e:	52 97       	sbiw	r26, 0x12	; 18
    1230:	50 96       	adiw	r26, 0x10	; 16
    1232:	8c 91       	ld	r24, X
    1234:	50 97       	sbiw	r26, 0x10	; 16
    1236:	98 2f       	mov	r25, r24
    1238:	90 95       	com	r25
    123a:	0f b7       	in	r16, 0x3f	; 63
    123c:	5e 96       	adiw	r26, 0x1e	; 30
    123e:	2c 91       	ld	r18, X
    1240:	5e 97       	sbiw	r26, 0x1e	; 30
    1242:	12 2f       	mov	r17, r18
    1244:	12 70       	andi	r17, 0x02	; 2
    1246:	21 fd       	sbrc	r18, 1
    1248:	60 95       	com	r22
    124a:	f8 94       	cli
    124c:	20 81       	ld	r18, Z
    124e:	11 23       	and	r17, r17
    1250:	19 f1       	breq	.+70     	;  0x1298
    1252:	28 2b       	or	r18, r24
    1254:	20 83       	st	Z, r18
    1256:	e7 01       	movw	r28, r14
    1258:	21 97       	sbiw	r28, 0x01	; 1
    125a:	f1 f7       	brne	.-4      	;  0x1258
    125c:	28 e0       	ldi	r18, 0x08	; 8
    125e:	46 2f       	mov	r20, r22
    1260:	50 e0       	ldi	r21, 0x00	; 0
    1262:	30 81       	ld	r19, Z
    1264:	60 ff       	sbrs	r22, 0
    1266:	1a c0       	rjmp	.+52     	;  0x129c
    1268:	38 2b       	or	r19, r24
    126a:	30 83       	st	Z, r19
    126c:	e7 01       	movw	r28, r14
    126e:	21 97       	sbiw	r28, 0x01	; 1
    1270:	f1 f7       	brne	.-4      	;  0x126e
    1272:	ba 01       	movw	r22, r20
    1274:	75 95       	asr	r23
    1276:	67 95       	ror	r22
    1278:	21 50       	subi	r18, 0x01	; 1
    127a:	89 f7       	brne	.-30     	;  0x125e
    127c:	11 23       	and	r17, r17
    127e:	81 f0       	breq	.+32     	;  0x12a0
    1280:	80 81       	ld	r24, Z
    1282:	89 23       	and	r24, r25
    1284:	80 83       	st	Z, r24
    1286:	0f bf       	out	0x3f, r16	; 63
    1288:	5c 96       	adiw	r26, 0x1c	; 28
    128a:	8d 91       	ld	r24, X+
    128c:	9c 91       	ld	r25, X
    128e:	01 97       	sbiw	r24, 0x01	; 1
    1290:	f1 f7       	brne	.-4      	;  0x128e
    1292:	81 e0       	ldi	r24, 0x01	; 1
    1294:	90 e0       	ldi	r25, 0x00	; 0
    1296:	c1 cf       	rjmp	.-126    	;  0x121a
    1298:	29 23       	and	r18, r25
    129a:	dc cf       	rjmp	.-72     	;  0x1254
    129c:	39 23       	and	r19, r25
    129e:	e5 cf       	rjmp	.-54     	;  0x126a
    12a0:	90 81       	ld	r25, Z
    12a2:	89 2b       	or	r24, r25
    12a4:	ef cf       	rjmp	.-34     	;  0x1284
    12a6:	20 91 0c 02 	lds	r18, 0x020C	;  0x80020c
    12aa:	30 91 0d 02 	lds	r19, 0x020D	;  0x80020d
    12ae:	28 17       	cp	r18, r24
    12b0:	39 07       	cpc	r19, r25
    12b2:	61 f4       	brne	.+24     	;  0x12cc
    12b4:	80 91 0b 02 	lds	r24, 0x020B	;  0x80020b
    12b8:	20 91 0a 02 	lds	r18, 0x020A	;  0x80020a
    12bc:	90 e0       	ldi	r25, 0x00	; 0
    12be:	80 5c       	subi	r24, 0xC0	; 192
    12c0:	9f 4f       	sbci	r25, 0xFF	; 255
    12c2:	82 1b       	sub	r24, r18
    12c4:	91 09       	sbc	r25, r1
    12c6:	8f 73       	andi	r24, 0x3F	; 63
    12c8:	99 27       	eor	r25, r25
    12ca:	08 95       	ret
    12cc:	90 e0       	ldi	r25, 0x00	; 0
    12ce:	80 e0       	ldi	r24, 0x00	; 0
    12d0:	08 95       	ret
    12d2:	20 91 0c 02 	lds	r18, 0x020C	;  0x80020c
    12d6:	30 91 0d 02 	lds	r19, 0x020D	;  0x80020d
    12da:	28 17       	cp	r18, r24
    12dc:	39 07       	cpc	r19, r25
    12de:	b9 f4       	brne	.+46     	;  0x130e
    12e0:	90 91 0a 02 	lds	r25, 0x020A	;  0x80020a
    12e4:	80 91 0b 02 	lds	r24, 0x020B	;  0x80020b
    12e8:	98 17       	cp	r25, r24
    12ea:	89 f0       	breq	.+34     	;  0x130e
    12ec:	e0 91 0a 02 	lds	r30, 0x020A	;  0x80020a
    12f0:	f0 e0       	ldi	r31, 0x00	; 0
    12f2:	e6 53       	subi	r30, 0x36	; 54
    12f4:	fe 4f       	sbci	r31, 0xFE	; 254
    12f6:	80 81       	ld	r24, Z
    12f8:	20 91 0a 02 	lds	r18, 0x020A	;  0x80020a
    12fc:	30 e0       	ldi	r19, 0x00	; 0
    12fe:	2f 5f       	subi	r18, 0xFF	; 255
    1300:	3f 4f       	sbci	r19, 0xFF	; 255
    1302:	2f 73       	andi	r18, 0x3F	; 63
    1304:	33 27       	eor	r19, r19
    1306:	20 93 0a 02 	sts	0x020A, r18	;  0x80020a
    130a:	90 e0       	ldi	r25, 0x00	; 0
    130c:	08 95       	ret
    130e:	8f ef       	ldi	r24, 0xFF	; 255
    1310:	9f ef       	ldi	r25, 0xFF	; 255
    1312:	08 95       	ret
    1314:	08 95       	ret
    1316:	90 e0       	ldi	r25, 0x00	; 0
    1318:	80 e0       	ldi	r24, 0x00	; 0
    131a:	08 95       	ret
    131c:	cf 93       	push	r28
    131e:	df 93       	push	r29
    1320:	d6 2f       	mov	r29, r22
    1322:	80 31       	cpi	r24, 0x10	; 16
    1324:	48 f4       	brcc	.+18     	;  0x1338
    1326:	c0 e1       	ldi	r28, 0x10	; 16
    1328:	c8 1b       	sub	r28, r24
    132a:	60 e2       	ldi	r22, 0x20	; 32
    132c:	87 ee       	ldi	r24, 0xE7	; 231
    132e:	94 e0       	ldi	r25, 0x04	; 4
    1330:	0e 94 7f 07 	call	0xefe	;  0xefe
    1334:	c1 50       	subi	r28, 0x01	; 1
    1336:	c9 f7       	brne	.-14     	;  0x132a
    1338:	dd 23       	and	r29, r29
    133a:	41 f0       	breq	.+16     	;  0x134c
    133c:	68 eb       	ldi	r22, 0xB8	; 184
    133e:	7b e0       	ldi	r23, 0x0B	; 11
    1340:	80 e0       	ldi	r24, 0x00	; 0
    1342:	90 e0       	ldi	r25, 0x00	; 0
    1344:	df 91       	pop	r29
    1346:	cf 91       	pop	r28
    1348:	0c 94 4d 07 	jmp	0xe9a	;  0xe9a
    134c:	df 91       	pop	r29
    134e:	cf 91       	pop	r28
    1350:	08 95       	ret
    1352:	cf 93       	push	r28
    1354:	df 93       	push	r29
    1356:	ec 01       	movw	r28, r24
    1358:	60 e0       	ldi	r22, 0x00	; 0
    135a:	8e 81       	ldd	r24, Y+6	; 0x06
    135c:	0e 94 be 06 	call	0xd7c	;  0xd7c
    1360:	61 e0       	ldi	r22, 0x01	; 1
    1362:	8e 81       	ldd	r24, Y+6	; 0x06
    1364:	0e 94 be 06 	call	0xd7c	;  0xd7c
    1368:	60 e0       	ldi	r22, 0x00	; 0
    136a:	8e 81       	ldd	r24, Y+6	; 0x06
    136c:	0e 94 be 06 	call	0xd7c	;  0xd7c
    1370:	8b e8       	ldi	r24, 0x8B	; 139
    1372:	91 e0       	ldi	r25, 0x01	; 1
    1374:	01 97       	sbiw	r24, 0x01	; 1
    1376:	f1 f7       	brne	.-4      	;  0x1374
    1378:	df 91       	pop	r29
    137a:	cf 91       	pop	r28
    137c:	08 95       	ret
    137e:	cf 92       	push	r12
    1380:	df 92       	push	r13
    1382:	ef 92       	push	r14
    1384:	ff 92       	push	r15
    1386:	0f 93       	push	r16
    1388:	1f 93       	push	r17
    138a:	cf 93       	push	r28
    138c:	df 93       	push	r29
    138e:	6c 01       	movw	r12, r24
    1390:	7c 01       	movw	r14, r24
    1392:	87 e0       	ldi	r24, 0x07	; 7
    1394:	e8 0e       	add	r14, r24
    1396:	f1 1c       	adc	r15, r1
    1398:	d0 e0       	ldi	r29, 0x00	; 0
    139a:	c0 e0       	ldi	r28, 0x00	; 0
    139c:	06 2f       	mov	r16, r22
    139e:	10 e0       	ldi	r17, 0x00	; 0
    13a0:	b8 01       	movw	r22, r16
    13a2:	0c 2e       	mov	r0, r28
    13a4:	02 c0       	rjmp	.+4      	;  0x13aa
    13a6:	75 95       	asr	r23
    13a8:	67 95       	ror	r22
    13aa:	0a 94       	dec	r0
    13ac:	e2 f7       	brpl	.-8      	;  0x13a6
    13ae:	61 70       	andi	r22, 0x01	; 1
    13b0:	f7 01       	movw	r30, r14
    13b2:	81 91       	ld	r24, Z+
    13b4:	7f 01       	movw	r14, r30
    13b6:	0e 94 be 06 	call	0xd7c	;  0xd7c
    13ba:	21 96       	adiw	r28, 0x01	; 1
    13bc:	c4 30       	cpi	r28, 0x04	; 4
    13be:	d1 05       	cpc	r29, r1
    13c0:	79 f7       	brne	.-34     	;  0x13a0
    13c2:	c6 01       	movw	r24, r12
    13c4:	df 91       	pop	r29
    13c6:	cf 91       	pop	r28
    13c8:	1f 91       	pop	r17
    13ca:	0f 91       	pop	r16
    13cc:	ff 90       	pop	r15
    13ce:	ef 90       	pop	r14
    13d0:	df 90       	pop	r13
    13d2:	cf 90       	pop	r12
    13d4:	0c 94 a9 09 	jmp	0x1352	;  0x1352
    13d8:	cf 92       	push	r12
    13da:	df 92       	push	r13
    13dc:	ef 92       	push	r14
    13de:	ff 92       	push	r15
    13e0:	0f 93       	push	r16
    13e2:	1f 93       	push	r17
    13e4:	cf 93       	push	r28
    13e6:	df 93       	push	r29
    13e8:	ec 01       	movw	r28, r24
    13ea:	f6 2e       	mov	r15, r22
    13ec:	64 2f       	mov	r22, r20
    13ee:	8c 81       	ldd	r24, Y+4	; 0x04
    13f0:	0e 94 be 06 	call	0xd7c	;  0xd7c
    13f4:	8d 81       	ldd	r24, Y+5	; 0x05
    13f6:	8f 3f       	cpi	r24, 0xFF	; 255
    13f8:	19 f0       	breq	.+6      	;  0x1400
    13fa:	60 e0       	ldi	r22, 0x00	; 0
    13fc:	0e 94 be 06 	call	0xd7c	;  0xd7c
    1400:	0f 2d       	mov	r16, r15
    1402:	10 e0       	ldi	r17, 0x00	; 0
    1404:	8f 85       	ldd	r24, Y+15	; 0x0f
    1406:	84 ff       	sbrs	r24, 4
    1408:	25 c0       	rjmp	.+74     	;  0x1454
    140a:	6e 01       	movw	r12, r28
    140c:	87 e0       	ldi	r24, 0x07	; 7
    140e:	c8 0e       	add	r12, r24
    1410:	d1 1c       	adc	r13, r1
    1412:	f1 2c       	mov	r15, r1
    1414:	e1 2c       	mov	r14, r1
    1416:	b8 01       	movw	r22, r16
    1418:	0e 2c       	mov	r0, r14
    141a:	02 c0       	rjmp	.+4      	;  0x1420
    141c:	75 95       	asr	r23
    141e:	67 95       	ror	r22
    1420:	0a 94       	dec	r0
    1422:	e2 f7       	brpl	.-8      	;  0x141c
    1424:	61 70       	andi	r22, 0x01	; 1
    1426:	f6 01       	movw	r30, r12
    1428:	81 91       	ld	r24, Z+
    142a:	6f 01       	movw	r12, r30
    142c:	0e 94 be 06 	call	0xd7c	;  0xd7c
    1430:	ff ef       	ldi	r31, 0xFF	; 255
    1432:	ef 1a       	sub	r14, r31
    1434:	ff 0a       	sbc	r15, r31
    1436:	88 e0       	ldi	r24, 0x08	; 8
    1438:	e8 16       	cp	r14, r24
    143a:	f1 04       	cpc	r15, r1
    143c:	61 f7       	brne	.-40     	;  0x1416
    143e:	ce 01       	movw	r24, r28
    1440:	df 91       	pop	r29
    1442:	cf 91       	pop	r28
    1444:	1f 91       	pop	r17
    1446:	0f 91       	pop	r16
    1448:	ff 90       	pop	r15
    144a:	ef 90       	pop	r14
    144c:	df 90       	pop	r13
    144e:	cf 90       	pop	r12
    1450:	0c 94 a9 09 	jmp	0x1352	;  0x1352
    1454:	b8 01       	movw	r22, r16
    1456:	84 e0       	ldi	r24, 0x04	; 4
    1458:	75 95       	asr	r23
    145a:	67 95       	ror	r22
    145c:	8a 95       	dec	r24
    145e:	e1 f7       	brne	.-8      	;  0x1458
    1460:	ce 01       	movw	r24, r28
    1462:	0e 94 bf 09 	call	0x137e	;  0x137e
    1466:	6f 2d       	mov	r22, r15
    1468:	ce 01       	movw	r24, r28
    146a:	df 91       	pop	r29
    146c:	cf 91       	pop	r28
    146e:	1f 91       	pop	r17
    1470:	0f 91       	pop	r16
    1472:	ff 90       	pop	r15
    1474:	ef 90       	pop	r14
    1476:	df 90       	pop	r13
    1478:	cf 90       	pop	r12
    147a:	0c 94 bf 09 	jmp	0x137e	;  0x137e
    147e:	40 e0       	ldi	r20, 0x00	; 0
    1480:	68 2f       	mov	r22, r24
    1482:	87 ee       	ldi	r24, 0xE7	; 231
    1484:	94 e0       	ldi	r25, 0x04	; 4
    1486:	0c 94 ec 09 	jmp	0x13d8	;  0x13d8
    148a:	cf 93       	push	r28
    148c:	df 93       	push	r29
    148e:	82 30       	cpi	r24, 0x02	; 2
    1490:	29 f4       	brne	.+10     	;  0x149c
    1492:	90 91 f6 04 	lds	r25, 0x04F6	;  0x8004f6
    1496:	98 60       	ori	r25, 0x08	; 8
    1498:	90 93 f6 04 	sts	0x04F6, r25	;  0x8004f6
    149c:	80 93 fa 04 	sts	0x04FA, r24	;  0x8004fa
    14a0:	10 92 fb 04 	sts	0x04FB, r1	;  0x8004fb
    14a4:	80 e4       	ldi	r24, 0x40	; 64
    14a6:	80 93 fc 04 	sts	0x04FC, r24	;  0x8004fc
    14aa:	80 e1       	ldi	r24, 0x10	; 16
    14ac:	80 93 fd 04 	sts	0x04FD, r24	;  0x8004fd
    14b0:	80 e5       	ldi	r24, 0x50	; 80
    14b2:	80 93 fe 04 	sts	0x04FE, r24	;  0x8004fe
    14b6:	61 e0       	ldi	r22, 0x01	; 1
    14b8:	80 91 eb 04 	lds	r24, 0x04EB	;  0x8004eb
    14bc:	0e 94 ec 06 	call	0xdd8	;  0xdd8
    14c0:	80 91 ec 04 	lds	r24, 0x04EC	;  0x8004ec
    14c4:	8f 3f       	cpi	r24, 0xFF	; 255
    14c6:	19 f0       	breq	.+6      	;  0x14ce
    14c8:	61 e0       	ldi	r22, 0x01	; 1
    14ca:	0e 94 ec 06 	call	0xdd8	;  0xdd8
    14ce:	61 e0       	ldi	r22, 0x01	; 1
    14d0:	80 91 ed 04 	lds	r24, 0x04ED	;  0x8004ed
    14d4:	0e 94 ec 06 	call	0xdd8	;  0xdd8
    14d8:	c7 ee       	ldi	r28, 0xE7	; 231
    14da:	d4 e0       	ldi	r29, 0x04	; 4
    14dc:	9e 01       	movw	r18, r28
    14de:	27 5e       	subi	r18, 0xE7	; 231
    14e0:	34 40       	sbci	r19, 0x04	; 4
    14e2:	80 91 f6 04 	lds	r24, 0x04F6	;  0x8004f6
    14e6:	84 fd       	sbrc	r24, 4
    14e8:	0b c0       	rjmp	.+22     	;  0x1500
    14ea:	84 e0       	ldi	r24, 0x04	; 4
    14ec:	90 e0       	ldi	r25, 0x00	; 0
    14ee:	21 96       	adiw	r28, 0x01	; 1
    14f0:	28 17       	cp	r18, r24
    14f2:	39 07       	cpc	r19, r25
    14f4:	44 f4       	brge	.+16     	;  0x1506
    14f6:	61 e0       	ldi	r22, 0x01	; 1
    14f8:	8e 81       	ldd	r24, Y+6	; 0x06
    14fa:	0e 94 ec 06 	call	0xdd8	;  0xdd8
    14fe:	ee cf       	rjmp	.-36     	;  0x14dc
    1500:	88 e0       	ldi	r24, 0x08	; 8
    1502:	90 e0       	ldi	r25, 0x00	; 0
    1504:	f4 cf       	rjmp	.-24     	;  0x14ee
    1506:	8b e3       	ldi	r24, 0x3B	; 59
    1508:	9d e0       	ldi	r25, 0x0D	; 13
    150a:	01 97       	sbiw	r24, 0x01	; 1
    150c:	f1 f7       	brne	.-4      	;  0x150a
    150e:	60 e0       	ldi	r22, 0x00	; 0
    1510:	80 91 eb 04 	lds	r24, 0x04EB	;  0x8004eb
    1514:	0e 94 be 06 	call	0xd7c	;  0xd7c
    1518:	60 e0       	ldi	r22, 0x00	; 0
    151a:	80 91 ed 04 	lds	r24, 0x04ED	;  0x8004ed
    151e:	0e 94 be 06 	call	0xd7c	;  0xd7c
    1522:	80 91 ec 04 	lds	r24, 0x04EC	;  0x8004ec
    1526:	8f 3f       	cpi	r24, 0xFF	; 255
    1528:	19 f0       	breq	.+6      	;  0x1530
    152a:	60 e0       	ldi	r22, 0x00	; 0
    152c:	0e 94 be 06 	call	0xd7c	;  0xd7c
    1530:	80 91 f6 04 	lds	r24, 0x04F6	;  0x8004f6
    1534:	84 fd       	sbrc	r24, 4
    1536:	39 c0       	rjmp	.+114    	;  0x15aa
    1538:	63 e0       	ldi	r22, 0x03	; 3
    153a:	87 ee       	ldi	r24, 0xE7	; 231
    153c:	94 e0       	ldi	r25, 0x04	; 4
    153e:	0e 94 bf 09 	call	0x137e	;  0x137e
    1542:	cb e4       	ldi	r28, 0x4B	; 75
    1544:	d6 e4       	ldi	r29, 0x46	; 70
    1546:	ce 01       	movw	r24, r28
    1548:	01 97       	sbiw	r24, 0x01	; 1
    154a:	f1 f7       	brne	.-4      	;  0x1548
    154c:	63 e0       	ldi	r22, 0x03	; 3
    154e:	87 ee       	ldi	r24, 0xE7	; 231
    1550:	94 e0       	ldi	r25, 0x04	; 4
    1552:	0e 94 bf 09 	call	0x137e	;  0x137e
    1556:	21 97       	sbiw	r28, 0x01	; 1
    1558:	f1 f7       	brne	.-4      	;  0x1556
    155a:	63 e0       	ldi	r22, 0x03	; 3
    155c:	87 ee       	ldi	r24, 0xE7	; 231
    155e:	94 e0       	ldi	r25, 0x04	; 4
    1560:	0e 94 bf 09 	call	0x137e	;  0x137e
    1564:	83 e5       	ldi	r24, 0x53	; 83
    1566:	92 e0       	ldi	r25, 0x02	; 2
    1568:	01 97       	sbiw	r24, 0x01	; 1
    156a:	f1 f7       	brne	.-4      	;  0x1568
    156c:	62 e0       	ldi	r22, 0x02	; 2
    156e:	87 ee       	ldi	r24, 0xE7	; 231
    1570:	94 e0       	ldi	r25, 0x04	; 4
    1572:	0e 94 bf 09 	call	0x137e	;  0x137e
    1576:	80 91 f6 04 	lds	r24, 0x04F6	;  0x8004f6
    157a:	80 62       	ori	r24, 0x20	; 32
    157c:	0e 94 3f 0a 	call	0x147e	;  0x147e
    1580:	84 e0       	ldi	r24, 0x04	; 4
    1582:	80 93 f7 04 	sts	0x04F7, r24	;  0x8004f7
    1586:	8c e0       	ldi	r24, 0x0C	; 12
    1588:	0e 94 3f 0a 	call	0x147e	;  0x147e
    158c:	81 e0       	ldi	r24, 0x01	; 1
    158e:	0e 94 3f 0a 	call	0x147e	;  0x147e
    1592:	8b e3       	ldi	r24, 0x3B	; 59
    1594:	9f e1       	ldi	r25, 0x1F	; 31
    1596:	01 97       	sbiw	r24, 0x01	; 1
    1598:	f1 f7       	brne	.-4      	;  0x1596
    159a:	82 e0       	ldi	r24, 0x02	; 2
    159c:	80 93 f8 04 	sts	0x04F8, r24	;  0x8004f8
    15a0:	86 e0       	ldi	r24, 0x06	; 6
    15a2:	df 91       	pop	r29
    15a4:	cf 91       	pop	r28
    15a6:	0c 94 3f 0a 	jmp	0x147e	;  0x147e
    15aa:	80 62       	ori	r24, 0x20	; 32
    15ac:	0e 94 3f 0a 	call	0x147e	;  0x147e
    15b0:	8b e4       	ldi	r24, 0x4B	; 75
    15b2:	96 e4       	ldi	r25, 0x46	; 70
    15b4:	01 97       	sbiw	r24, 0x01	; 1
    15b6:	f1 f7       	brne	.-4      	;  0x15b4
    15b8:	80 91 f6 04 	lds	r24, 0x04F6	;  0x8004f6
    15bc:	80 62       	ori	r24, 0x20	; 32
    15be:	0e 94 3f 0a 	call	0x147e	;  0x147e
    15c2:	83 e5       	ldi	r24, 0x53	; 83
    15c4:	92 e0       	ldi	r25, 0x02	; 2
    15c6:	01 97       	sbiw	r24, 0x01	; 1
    15c8:	f1 f7       	brne	.-4      	;  0x15c6
    15ca:	80 91 f6 04 	lds	r24, 0x04F6	;  0x8004f6
    15ce:	80 62       	ori	r24, 0x20	; 32
    15d0:	0e 94 3f 0a 	call	0x147e	;  0x147e
    15d4:	d0 cf       	rjmp	.-96     	;  0x1576
    15d6:	41 e0       	ldi	r20, 0x01	; 1
    15d8:	0e 94 ec 09 	call	0x13d8	;  0x13d8
    15dc:	81 e0       	ldi	r24, 0x01	; 1
    15de:	90 e0       	ldi	r25, 0x00	; 0
    15e0:	08 95       	ret
    15e2:	fb 01       	movw	r30, r22
    15e4:	01 90       	ld	r0, Z+
    15e6:	00 20       	and	r0, r0
    15e8:	e9 f7       	brne	.-6      	;  0x15e4
    15ea:	31 97       	sbiw	r30, 0x01	; 1
    15ec:	af 01       	movw	r20, r30
    15ee:	46 1b       	sub	r20, r22
    15f0:	57 0b       	sbc	r21, r23
    15f2:	dc 01       	movw	r26, r24
    15f4:	ed 91       	ld	r30, X+
    15f6:	fc 91       	ld	r31, X
    15f8:	02 80       	ldd	r0, Z+2	; 0x02
    15fa:	f3 81       	ldd	r31, Z+3	; 0x03
    15fc:	e0 2d       	mov	r30, r0
    15fe:	09 94       	ijmp
    1600:	cf 93       	push	r28
    1602:	df 93       	push	r29
    1604:	bc 01       	movw	r22, r24
    1606:	8a e4       	ldi	r24, 0x4A	; 74
    1608:	94 e0       	ldi	r25, 0x04	; 4
    160a:	0e 94 86 07 	call	0xf0c	;  0xf0c
    160e:	ec 01       	movw	r28, r24
    1610:	6e e6       	ldi	r22, 0x6E	; 110
    1612:	71 e0       	ldi	r23, 0x01	; 1
    1614:	8a e4       	ldi	r24, 0x4A	; 74
    1616:	94 e0       	ldi	r25, 0x04	; 4
    1618:	0e 94 f1 0a 	call	0x15e2	;  0x15e2
    161c:	8c 0f       	add	r24, r28
    161e:	9d 1f       	adc	r25, r29
    1620:	df 91       	pop	r29
    1622:	cf 91       	pop	r28
    1624:	08 95       	ret
    1626:	1f 93       	push	r17
    1628:	cf 93       	push	r28
    162a:	df 93       	push	r29
    162c:	ec 01       	movw	r28, r24
    162e:	16 2f       	mov	r17, r22
    1630:	e0 91 fa 04 	lds	r30, 0x04FA	;  0x8004fa
    1634:	e2 30       	cpi	r30, 0x02	; 2
    1636:	e0 f4       	brcc	.+56     	;  0x1670
    1638:	e1 50       	subi	r30, 0x01	; 1
    163a:	f0 e0       	ldi	r31, 0x00	; 0
    163c:	e9 51       	subi	r30, 0x19	; 25
    163e:	fb 4f       	sbci	r31, 0xFB	; 251
    1640:	84 89       	ldd	r24, Z+20	; 0x14
    1642:	80 68       	ori	r24, 0x80	; 128
    1644:	0e 94 3f 0a 	call	0x147e	;  0x147e
    1648:	20 97       	sbiw	r28, 0x00	; 0
    164a:	29 f0       	breq	.+10     	;  0x1656
    164c:	be 01       	movw	r22, r28
    164e:	87 ee       	ldi	r24, 0xE7	; 231
    1650:	94 e0       	ldi	r25, 0x04	; 4
    1652:	0e 94 f1 0a 	call	0x15e2	;  0x15e2
    1656:	fe 01       	movw	r30, r28
    1658:	01 90       	ld	r0, Z+
    165a:	00 20       	and	r0, r0
    165c:	e9 f7       	brne	.-6      	;  0x1658
    165e:	cf 01       	movw	r24, r30
    1660:	01 97       	sbiw	r24, 0x01	; 1
    1662:	61 2f       	mov	r22, r17
    1664:	8c 1b       	sub	r24, r28
    1666:	df 91       	pop	r29
    1668:	cf 91       	pop	r28
    166a:	1f 91       	pop	r17
    166c:	0c 94 8e 09 	jmp	0x131c	;  0x131c
    1670:	e1 e0       	ldi	r30, 0x01	; 1
    1672:	e3 cf       	rjmp	.-58     	;  0x163a
    1674:	1f 93       	push	r17
    1676:	cf 93       	push	r28
    1678:	df 93       	push	r29
    167a:	eb 01       	movw	r28, r22
    167c:	14 2f       	mov	r17, r20
    167e:	90 91 fa 04 	lds	r25, 0x04FA	;  0x8004fa
    1682:	89 17       	cp	r24, r25
    1684:	10 f0       	brcs	.+4      	;  0x168a
    1686:	8f ef       	ldi	r24, 0xFF	; 255
    1688:	89 0f       	add	r24, r25
    168a:	e8 2f       	mov	r30, r24
    168c:	f0 e0       	ldi	r31, 0x00	; 0
    168e:	e9 51       	subi	r30, 0x19	; 25
    1690:	fb 4f       	sbci	r31, 0xFB	; 251
    1692:	84 89       	ldd	r24, Z+20	; 0x14
    1694:	80 68       	ori	r24, 0x80	; 128
    1696:	0e 94 3f 0a 	call	0x147e	;  0x147e
    169a:	be 01       	movw	r22, r28
    169c:	87 ee       	ldi	r24, 0xE7	; 231
    169e:	94 e0       	ldi	r25, 0x04	; 4
    16a0:	0e 94 86 07 	call	0xf0c	;  0xf0c
    16a4:	ce 01       	movw	r24, r28
    16a6:	0e 94 d5 14 	call	0x29aa	;  0x29aa
    16aa:	61 2f       	mov	r22, r17
    16ac:	df 91       	pop	r29
    16ae:	cf 91       	pop	r28
    16b0:	1f 91       	pop	r17
    16b2:	0c 94 8e 09 	jmp	0x131c	;  0x131c
    16b6:	1f 92       	push	r1
    16b8:	0f 92       	push	r0
    16ba:	0f b6       	in	r0, 0x3f	; 63
    16bc:	0f 92       	push	r0
    16be:	11 24       	eor	r1, r1
    16c0:	2f 93       	push	r18
    16c2:	3f 93       	push	r19
    16c4:	8f 93       	push	r24
    16c6:	9f 93       	push	r25
    16c8:	af 93       	push	r26
    16ca:	bf 93       	push	r27
    16cc:	80 91 42 04 	lds	r24, 0x0442	;  0x800442
    16d0:	90 91 43 04 	lds	r25, 0x0443	;  0x800443
    16d4:	a0 91 44 04 	lds	r26, 0x0444	;  0x800444
    16d8:	b0 91 45 04 	lds	r27, 0x0445	;  0x800445
    16dc:	30 91 41 04 	lds	r19, 0x0441	;  0x800441
    16e0:	23 e0       	ldi	r18, 0x03	; 3
    16e2:	23 0f       	add	r18, r19
    16e4:	2d 37       	cpi	r18, 0x7D	; 125
    16e6:	58 f5       	brcc	.+86     	;  0x173e
    16e8:	01 96       	adiw	r24, 0x01	; 1
    16ea:	a1 1d       	adc	r26, r1
    16ec:	b1 1d       	adc	r27, r1
    16ee:	20 93 41 04 	sts	0x0441, r18	;  0x800441
    16f2:	80 93 42 04 	sts	0x0442, r24	;  0x800442
    16f6:	90 93 43 04 	sts	0x0443, r25	;  0x800443
    16fa:	a0 93 44 04 	sts	0x0444, r26	;  0x800444
    16fe:	b0 93 45 04 	sts	0x0445, r27	;  0x800445
    1702:	80 91 46 04 	lds	r24, 0x0446	;  0x800446
    1706:	90 91 47 04 	lds	r25, 0x0447	;  0x800447
    170a:	a0 91 48 04 	lds	r26, 0x0448	;  0x800448
    170e:	b0 91 49 04 	lds	r27, 0x0449	;  0x800449
    1712:	01 96       	adiw	r24, 0x01	; 1
    1714:	a1 1d       	adc	r26, r1
    1716:	b1 1d       	adc	r27, r1
    1718:	80 93 46 04 	sts	0x0446, r24	;  0x800446
    171c:	90 93 47 04 	sts	0x0447, r25	;  0x800447
    1720:	a0 93 48 04 	sts	0x0448, r26	;  0x800448
    1724:	b0 93 49 04 	sts	0x0449, r27	;  0x800449
    1728:	bf 91       	pop	r27
    172a:	af 91       	pop	r26
    172c:	9f 91       	pop	r25
    172e:	8f 91       	pop	r24
    1730:	3f 91       	pop	r19
    1732:	2f 91       	pop	r18
    1734:	0f 90       	pop	r0
    1736:	0f be       	out	0x3f, r0	; 63
    1738:	0f 90       	pop	r0
    173a:	1f 90       	pop	r1
    173c:	18 95       	reti
    173e:	26 e8       	ldi	r18, 0x86	; 134
    1740:	23 0f       	add	r18, r19
    1742:	02 96       	adiw	r24, 0x02	; 2
    1744:	a1 1d       	adc	r26, r1
    1746:	b1 1d       	adc	r27, r1
    1748:	d2 cf       	rjmp	.-92     	;  0x16ee
    174a:	1f 92       	push	r1
    174c:	0f 92       	push	r0
    174e:	0f b6       	in	r0, 0x3f	; 63
    1750:	0f 92       	push	r0
    1752:	11 24       	eor	r1, r1
    1754:	2f 93       	push	r18
    1756:	3f 93       	push	r19
    1758:	4f 93       	push	r20
    175a:	5f 93       	push	r21
    175c:	6f 93       	push	r22
    175e:	7f 93       	push	r23
    1760:	8f 93       	push	r24
    1762:	9f 93       	push	r25
    1764:	af 93       	push	r26
    1766:	bf 93       	push	r27
    1768:	ef 93       	push	r30
    176a:	ff 93       	push	r31
    176c:	8a e4       	ldi	r24, 0x4A	; 74
    176e:	94 e0       	ldi	r25, 0x04	; 4
    1770:	0e 94 28 08 	call	0x1050	;  0x1050
    1774:	ff 91       	pop	r31
    1776:	ef 91       	pop	r30
    1778:	bf 91       	pop	r27
    177a:	af 91       	pop	r26
    177c:	9f 91       	pop	r25
    177e:	8f 91       	pop	r24
    1780:	7f 91       	pop	r23
    1782:	6f 91       	pop	r22
    1784:	5f 91       	pop	r21
    1786:	4f 91       	pop	r20
    1788:	3f 91       	pop	r19
    178a:	2f 91       	pop	r18
    178c:	0f 90       	pop	r0
    178e:	0f be       	out	0x3f, r0	; 63
    1790:	0f 90       	pop	r0
    1792:	1f 90       	pop	r1
    1794:	18 95       	reti
    1796:	1f 92       	push	r1
    1798:	0f 92       	push	r0
    179a:	0f b6       	in	r0, 0x3f	; 63
    179c:	0f 92       	push	r0
    179e:	11 24       	eor	r1, r1
    17a0:	2f 93       	push	r18
    17a2:	8f 93       	push	r24
    17a4:	9f 93       	push	r25
    17a6:	ef 93       	push	r30
    17a8:	ff 93       	push	r31
    17aa:	e0 91 5a 04 	lds	r30, 0x045A	;  0x80045a
    17ae:	f0 91 5b 04 	lds	r31, 0x045B	;  0x80045b
    17b2:	80 81       	ld	r24, Z
    17b4:	e0 91 60 04 	lds	r30, 0x0460	;  0x800460
    17b8:	f0 91 61 04 	lds	r31, 0x0461	;  0x800461
    17bc:	82 fd       	sbrc	r24, 2
    17be:	1b c0       	rjmp	.+54     	;  0x17f6
    17c0:	90 81       	ld	r25, Z
    17c2:	80 91 63 04 	lds	r24, 0x0463	;  0x800463
    17c6:	8f 5f       	subi	r24, 0xFF	; 255
    17c8:	8f 73       	andi	r24, 0x3F	; 63
    17ca:	20 91 64 04 	lds	r18, 0x0464	;  0x800464
    17ce:	82 17       	cp	r24, r18
    17d0:	41 f0       	breq	.+16     	;  0x17e2
    17d2:	e0 91 63 04 	lds	r30, 0x0463	;  0x800463
    17d6:	f0 e0       	ldi	r31, 0x00	; 0
    17d8:	e6 5b       	subi	r30, 0xB6	; 182
    17da:	fb 4f       	sbci	r31, 0xFB	; 251
    17dc:	95 8f       	std	Z+29, r25	; 0x1d
    17de:	80 93 63 04 	sts	0x0463, r24	;  0x800463
    17e2:	ff 91       	pop	r31
    17e4:	ef 91       	pop	r30
    17e6:	9f 91       	pop	r25
    17e8:	8f 91       	pop	r24
    17ea:	2f 91       	pop	r18
    17ec:	0f 90       	pop	r0
    17ee:	0f be       	out	0x3f, r0	; 63
    17f0:	0f 90       	pop	r0
    17f2:	1f 90       	pop	r1
    17f4:	18 95       	reti
    17f6:	80 81       	ld	r24, Z
    17f8:	f4 cf       	rjmp	.-24     	;  0x17e2
    17fa:	1f 92       	push	r1
    17fc:	0f 92       	push	r0
    17fe:	0f b6       	in	r0, 0x3f	; 63
    1800:	0f 92       	push	r0
    1802:	11 24       	eor	r1, r1
    1804:	2f 93       	push	r18
    1806:	3f 93       	push	r19
    1808:	4f 93       	push	r20
    180a:	5f 93       	push	r21
    180c:	6f 93       	push	r22
    180e:	7f 93       	push	r23
    1810:	8f 93       	push	r24
    1812:	9f 93       	push	r25
    1814:	af 93       	push	r26
    1816:	bf 93       	push	r27
    1818:	ef 93       	push	r30
    181a:	ff 93       	push	r31
    181c:	e0 91 0c 02 	lds	r30, 0x020C	;  0x80020c
    1820:	f0 91 0d 02 	lds	r31, 0x020D	;  0x80020d
    1824:	30 97       	sbiw	r30, 0x00	; 0
    1826:	49 f0       	breq	.+18     	;  0x183a
    1828:	a6 85       	ldd	r26, Z+14	; 0x0e
    182a:	b7 85       	ldd	r27, Z+15	; 0x0f
    182c:	85 85       	ldd	r24, Z+13	; 0x0d
    182e:	96 8d       	ldd	r25, Z+30	; 0x1e
    1830:	91 ff       	sbrs	r25, 1
    1832:	14 c0       	rjmp	.+40     	;  0x185c
    1834:	9c 91       	ld	r25, X
    1836:	89 23       	and	r24, r25
    1838:	a1 f4       	brne	.+40     	;  0x1862
    183a:	ff 91       	pop	r31
    183c:	ef 91       	pop	r30
    183e:	bf 91       	pop	r27
    1840:	af 91       	pop	r26
    1842:	9f 91       	pop	r25
    1844:	8f 91       	pop	r24
    1846:	7f 91       	pop	r23
    1848:	6f 91       	pop	r22
    184a:	5f 91       	pop	r21
    184c:	4f 91       	pop	r20
    184e:	3f 91       	pop	r19
    1850:	2f 91       	pop	r18
    1852:	0f 90       	pop	r0
    1854:	0f be       	out	0x3f, r0	; 63
    1856:	0f 90       	pop	r0
    1858:	1f 90       	pop	r1
    185a:	18 95       	reti
    185c:	9c 91       	ld	r25, X
    185e:	89 23       	and	r24, r25
    1860:	61 f7       	brne	.-40     	;  0x183a
    1862:	a3 89       	ldd	r26, Z+19	; 0x13
    1864:	b4 89       	ldd	r27, Z+20	; 0x14
    1866:	9c 91       	ld	r25, X
    1868:	85 89       	ldd	r24, Z+21	; 0x15
    186a:	80 95       	com	r24
    186c:	89 23       	and	r24, r25
    186e:	8c 93       	st	X, r24
    1870:	86 89       	ldd	r24, Z+22	; 0x16
    1872:	97 89       	ldd	r25, Z+23	; 0x17
    1874:	01 97       	sbiw	r24, 0x01	; 1
    1876:	f1 f7       	brne	.-4      	;  0x1874
    1878:	60 8d       	ldd	r22, Z+24	; 0x18
    187a:	71 8d       	ldd	r23, Z+25	; 0x19
    187c:	a6 85       	ldd	r26, Z+14	; 0x0e
    187e:	b7 85       	ldd	r27, Z+15	; 0x0f
    1880:	55 85       	ldd	r21, Z+13	; 0x0d
    1882:	38 e0       	ldi	r19, 0x08	; 8
    1884:	20 e0       	ldi	r18, 0x00	; 0
    1886:	cb 01       	movw	r24, r22
    1888:	01 97       	sbiw	r24, 0x01	; 1
    188a:	f1 f7       	brne	.-4      	;  0x1888
    188c:	82 2f       	mov	r24, r18
    188e:	90 e0       	ldi	r25, 0x00	; 0
    1890:	95 95       	asr	r25
    1892:	87 95       	ror	r24
    1894:	28 2f       	mov	r18, r24
    1896:	4c 91       	ld	r20, X
    1898:	45 23       	and	r20, r21
    189a:	09 f0       	breq	.+2      	;  0x189e
    189c:	20 68       	ori	r18, 0x80	; 128
    189e:	31 50       	subi	r19, 0x01	; 1
    18a0:	91 f7       	brne	.-28     	;  0x1886
    18a2:	86 8d       	ldd	r24, Z+30	; 0x1e
    18a4:	81 fd       	sbrc	r24, 1
    18a6:	20 95       	com	r18
    18a8:	80 91 0b 02 	lds	r24, 0x020B	;  0x80020b
    18ac:	90 e0       	ldi	r25, 0x00	; 0
    18ae:	01 96       	adiw	r24, 0x01	; 1
    18b0:	8f 73       	andi	r24, 0x3F	; 63
    18b2:	99 27       	eor	r25, r25
    18b4:	30 91 0a 02 	lds	r19, 0x020A	;  0x80020a
    18b8:	38 17       	cp	r19, r24
    18ba:	99 f0       	breq	.+38     	;  0x18e2
    18bc:	a0 91 0b 02 	lds	r26, 0x020B	;  0x80020b
    18c0:	b0 e0       	ldi	r27, 0x00	; 0
    18c2:	a6 53       	subi	r26, 0x36	; 54
    18c4:	be 4f       	sbci	r27, 0xFE	; 254
    18c6:	2c 93       	st	X, r18
    18c8:	80 93 0b 02 	sts	0x020B, r24	;  0x80020b
    18cc:	82 8d       	ldd	r24, Z+26	; 0x1a
    18ce:	93 8d       	ldd	r25, Z+27	; 0x1b
    18d0:	01 97       	sbiw	r24, 0x01	; 1
    18d2:	f1 f7       	brne	.-4      	;  0x18d0
    18d4:	a3 89       	ldd	r26, Z+19	; 0x13
    18d6:	b4 89       	ldd	r27, Z+20	; 0x14
    18d8:	8c 91       	ld	r24, X
    18da:	95 89       	ldd	r25, Z+21	; 0x15
    18dc:	89 2b       	or	r24, r25
    18de:	8c 93       	st	X, r24
    18e0:	ac cf       	rjmp	.-168    	;  0x183a
    18e2:	86 8d       	ldd	r24, Z+30	; 0x1e
    18e4:	81 60       	ori	r24, 0x01	; 1
    18e6:	86 8f       	std	Z+30, r24	; 0x1e
    18e8:	f1 cf       	rjmp	.-30     	;  0x18cc
    18ea:	10 92 4d 04 	sts	0x044D, r1	;  0x80044d
    18ee:	10 92 4c 04 	sts	0x044C, r1	;  0x80044c
    18f2:	88 ee       	ldi	r24, 0xE8	; 232
    18f4:	93 e0       	ldi	r25, 0x03	; 3
    18f6:	a0 e0       	ldi	r26, 0x00	; 0
    18f8:	b0 e0       	ldi	r27, 0x00	; 0
    18fa:	80 93 4e 04 	sts	0x044E, r24	;  0x80044e
    18fe:	90 93 4f 04 	sts	0x044F, r25	;  0x80044f
    1902:	a0 93 50 04 	sts	0x0450, r26	;  0x800450
    1906:	b0 93 51 04 	sts	0x0451, r27	;  0x800451
    190a:	22 e4       	ldi	r18, 0x42	; 66
    190c:	31 e0       	ldi	r19, 0x01	; 1
    190e:	30 93 4b 04 	sts	0x044B, r19	;  0x80044b
    1912:	20 93 4a 04 	sts	0x044A, r18	;  0x80044a
    1916:	25 ec       	ldi	r18, 0xC5	; 197
    1918:	30 e0       	ldi	r19, 0x00	; 0
    191a:	30 93 57 04 	sts	0x0457, r19	;  0x800457
    191e:	20 93 56 04 	sts	0x0456, r18	;  0x800456
    1922:	24 ec       	ldi	r18, 0xC4	; 196
    1924:	30 e0       	ldi	r19, 0x00	; 0
    1926:	30 93 59 04 	sts	0x0459, r19	;  0x800459
    192a:	20 93 58 04 	sts	0x0458, r18	;  0x800458
    192e:	20 ec       	ldi	r18, 0xC0	; 192
    1930:	30 e0       	ldi	r19, 0x00	; 0
    1932:	30 93 5b 04 	sts	0x045B, r19	;  0x80045b
    1936:	20 93 5a 04 	sts	0x045A, r18	;  0x80045a
    193a:	21 ec       	ldi	r18, 0xC1	; 193
    193c:	30 e0       	ldi	r19, 0x00	; 0
    193e:	30 93 5d 04 	sts	0x045D, r19	;  0x80045d
    1942:	20 93 5c 04 	sts	0x045C, r18	;  0x80045c
    1946:	22 ec       	ldi	r18, 0xC2	; 194
    1948:	30 e0       	ldi	r19, 0x00	; 0
    194a:	30 93 5f 04 	sts	0x045F, r19	;  0x80045f
    194e:	20 93 5e 04 	sts	0x045E, r18	;  0x80045e
    1952:	26 ec       	ldi	r18, 0xC6	; 198
    1954:	30 e0       	ldi	r19, 0x00	; 0
    1956:	30 93 61 04 	sts	0x0461, r19	;  0x800461
    195a:	20 93 60 04 	sts	0x0460, r18	;  0x800460
    195e:	10 92 63 04 	sts	0x0463, r1	;  0x800463
    1962:	10 92 64 04 	sts	0x0464, r1	;  0x800464
    1966:	10 92 65 04 	sts	0x0465, r1	;  0x800465
    196a:	10 92 66 04 	sts	0x0466, r1	;  0x800466
    196e:	22 e8       	ldi	r18, 0x82	; 130
    1970:	20 93 15 06 	sts	0x0615, r18	;  0x800615
    1974:	24 e8       	ldi	r18, 0x84	; 132
    1976:	20 93 16 06 	sts	0x0616, r18	;  0x800616
    197a:	28 e8       	ldi	r18, 0x88	; 136
    197c:	20 93 17 06 	sts	0x0617, r18	;  0x800617
    1980:	2f e9       	ldi	r18, 0x9F	; 159
    1982:	20 93 18 06 	sts	0x0618, r18	;  0x800618
    1986:	32 e9       	ldi	r19, 0x92	; 146
    1988:	30 93 19 06 	sts	0x0619, r19	;  0x800619
    198c:	34 e9       	ldi	r19, 0x94	; 148
    198e:	30 93 1a 06 	sts	0x061A, r19	;  0x80061a
    1992:	38 e9       	ldi	r19, 0x98	; 152
    1994:	30 93 1b 06 	sts	0x061B, r19	;  0x80061b
    1998:	20 93 1c 06 	sts	0x061C, r18	;  0x80061c
    199c:	22 ea       	ldi	r18, 0xA2	; 162
    199e:	20 93 1d 06 	sts	0x061D, r18	;  0x80061d
    19a2:	24 ea       	ldi	r18, 0xA4	; 164
    19a4:	20 93 1e 06 	sts	0x061E, r18	;  0x80061e
    19a8:	28 ea       	ldi	r18, 0xA8	; 168
    19aa:	20 93 1f 06 	sts	0x061F, r18	;  0x80061f
    19ae:	2f ea       	ldi	r18, 0xAF	; 175
    19b0:	20 93 20 06 	sts	0x0620, r18	;  0x800620
    19b4:	22 eb       	ldi	r18, 0xB2	; 178
    19b6:	20 93 21 06 	sts	0x0621, r18	;  0x800621
    19ba:	24 eb       	ldi	r18, 0xB4	; 180
    19bc:	20 93 22 06 	sts	0x0622, r18	;  0x800622
    19c0:	28 eb       	ldi	r18, 0xB8	; 184
    19c2:	20 93 23 06 	sts	0x0623, r18	;  0x800623
    19c6:	26 e0       	ldi	r18, 0x06	; 6
    19c8:	30 e0       	ldi	r19, 0x00	; 0
    19ca:	30 93 20 05 	sts	0x0520, r19	;  0x800520
    19ce:	20 93 1f 05 	sts	0x051F, r18	;  0x80051f
    19d2:	10 92 02 05 	sts	0x0502, r1	;  0x800502
    19d6:	10 92 01 05 	sts	0x0501, r1	;  0x800501
    19da:	80 93 03 05 	sts	0x0503, r24	;  0x800503
    19de:	90 93 04 05 	sts	0x0504, r25	;  0x800504
    19e2:	a0 93 05 05 	sts	0x0505, r26	;  0x800505
    19e6:	b0 93 06 05 	sts	0x0506, r27	;  0x800506
    19ea:	80 e6       	ldi	r24, 0x60	; 96
    19ec:	91 e0       	ldi	r25, 0x01	; 1
    19ee:	90 93 00 05 	sts	0x0500, r25	;  0x800500
    19f2:	80 93 ff 04 	sts	0x04FF, r24	;  0x8004ff
    19f6:	10 92 16 05 	sts	0x0516, r1	;  0x800516
    19fa:	10 92 15 05 	sts	0x0515, r1	;  0x800515
    19fe:	10 92 18 05 	sts	0x0518, r1	;  0x800518
    1a02:	10 92 17 05 	sts	0x0517, r1	;  0x800517
    1a06:	10 92 1a 05 	sts	0x051A, r1	;  0x80051a
    1a0a:	10 92 19 05 	sts	0x0519, r1	;  0x800519
    1a0e:	10 92 1c 05 	sts	0x051C, r1	;  0x80051c
    1a12:	10 92 1b 05 	sts	0x051B, r1	;  0x80051b
    1a16:	60 91 1d 05 	lds	r22, 0x051D	;  0x80051d
    1a1a:	6e 7f       	andi	r22, 0xFE	; 254
    1a1c:	6d 7f       	andi	r22, 0xFD	; 253
    1a1e:	60 93 1d 05 	sts	0x051D, r22	;  0x80051d
    1a22:	66 95       	lsr	r22
    1a24:	61 70       	andi	r22, 0x01	; 1
    1a26:	81 e0       	ldi	r24, 0x01	; 1
    1a28:	68 27       	eor	r22, r24
    1a2a:	89 e0       	ldi	r24, 0x09	; 9
    1a2c:	0e 94 be 06 	call	0xd7c	;  0xd7c
    1a30:	61 e0       	ldi	r22, 0x01	; 1
    1a32:	89 e0       	ldi	r24, 0x09	; 9
    1a34:	0e 94 ec 06 	call	0xdd8	;  0xdd8
    1a38:	e9 ec       	ldi	r30, 0xC9	; 201
    1a3a:	fa e0       	ldi	r31, 0x0A	; 10
    1a3c:	e4 91       	lpm	r30, Z
    1a3e:	e0 93 0f 05 	sts	0x050F, r30	;  0x80050f
    1a42:	e5 eb       	ldi	r30, 0xB5	; 181
    1a44:	fa e0       	ldi	r31, 0x0A	; 10
    1a46:	e4 91       	lpm	r30, Z
    1a48:	f0 e0       	ldi	r31, 0x00	; 0
    1a4a:	ee 0f       	add	r30, r30
    1a4c:	ff 1f       	adc	r31, r31
    1a4e:	ee 55       	subi	r30, 0x5E	; 94
    1a50:	f5 4f       	sbci	r31, 0xF5	; 245
    1a52:	85 91       	lpm	r24, Z+
    1a54:	94 91       	lpm	r25, Z
    1a56:	90 93 11 05 	sts	0x0511, r25	;  0x800511
    1a5a:	80 93 10 05 	sts	0x0510, r24	;  0x800510
    1a5e:	60 e0       	ldi	r22, 0x00	; 0
    1a60:	8a e0       	ldi	r24, 0x0A	; 10
    1a62:	0e 94 ec 06 	call	0xdd8	;  0xdd8
    1a66:	80 91 1d 05 	lds	r24, 0x051D	;  0x80051d
    1a6a:	81 fd       	sbrc	r24, 1
    1a6c:	04 c0       	rjmp	.+8      	;  0x1a76
    1a6e:	61 e0       	ldi	r22, 0x01	; 1
    1a70:	8a e0       	ldi	r24, 0x0A	; 10
    1a72:	0e 94 be 06 	call	0xd7c	;  0xd7c
    1a76:	8a e0       	ldi	r24, 0x0A	; 10
    1a78:	80 93 0b 05 	sts	0x050B, r24	;  0x80050b
    1a7c:	ea ec       	ldi	r30, 0xCA	; 202
    1a7e:	fa e0       	ldi	r31, 0x0A	; 10
    1a80:	e4 91       	lpm	r30, Z
    1a82:	e0 93 0c 05 	sts	0x050C, r30	;  0x80050c
    1a86:	e6 eb       	ldi	r30, 0xB6	; 182
    1a88:	fa e0       	ldi	r31, 0x0A	; 10
    1a8a:	e4 91       	lpm	r30, Z
    1a8c:	f0 e0       	ldi	r31, 0x00	; 0
    1a8e:	ee 0f       	add	r30, r30
    1a90:	ff 1f       	adc	r31, r31
    1a92:	e8 56       	subi	r30, 0x68	; 104
    1a94:	f5 4f       	sbci	r31, 0xF5	; 245
    1a96:	85 91       	lpm	r24, Z+
    1a98:	94 91       	lpm	r25, Z
    1a9a:	90 93 0e 05 	sts	0x050E, r25	;  0x80050e
    1a9e:	80 93 0d 05 	sts	0x050D, r24	;  0x80050d
    1aa2:	10 92 ea 04 	sts	0x04EA, r1	;  0x8004ea
    1aa6:	10 92 e9 04 	sts	0x04E9, r1	;  0x8004e9
    1aaa:	84 e5       	ldi	r24, 0x54	; 84
    1aac:	91 e0       	ldi	r25, 0x01	; 1
    1aae:	90 93 e8 04 	sts	0x04E8, r25	;  0x8004e8
    1ab2:	80 93 e7 04 	sts	0x04E7, r24	;  0x8004e7
    1ab6:	88 e0       	ldi	r24, 0x08	; 8
    1ab8:	80 93 eb 04 	sts	0x04EB, r24	;  0x8004eb
    1abc:	8f ef       	ldi	r24, 0xFF	; 255
    1abe:	80 93 ec 04 	sts	0x04EC, r24	;  0x8004ec
    1ac2:	87 e0       	ldi	r24, 0x07	; 7
    1ac4:	80 93 ed 04 	sts	0x04ED, r24	;  0x8004ed
    1ac8:	86 e0       	ldi	r24, 0x06	; 6
    1aca:	80 93 ee 04 	sts	0x04EE, r24	;  0x8004ee
    1ace:	85 e0       	ldi	r24, 0x05	; 5
    1ad0:	80 93 ef 04 	sts	0x04EF, r24	;  0x8004ef
    1ad4:	84 e0       	ldi	r24, 0x04	; 4
    1ad6:	80 93 f0 04 	sts	0x04F0, r24	;  0x8004f0
    1ada:	83 e0       	ldi	r24, 0x03	; 3
    1adc:	80 93 f1 04 	sts	0x04F1, r24	;  0x8004f1
    1ae0:	10 92 f2 04 	sts	0x04F2, r1	;  0x8004f2
    1ae4:	10 92 f3 04 	sts	0x04F3, r1	;  0x8004f3
    1ae8:	10 92 f4 04 	sts	0x04F4, r1	;  0x8004f4
    1aec:	10 92 f5 04 	sts	0x04F5, r1	;  0x8004f5
    1af0:	10 92 f6 04 	sts	0x04F6, r1	;  0x8004f6
    1af4:	81 e0       	ldi	r24, 0x01	; 1
    1af6:	0c 94 45 0a 	jmp	0x148a	;  0x148a
    1afa:	cf 93       	push	r28
    1afc:	df 93       	push	r29
    1afe:	cd b7       	in	r28, 0x3d	; 61
    1b00:	de b7       	in	r29, 0x3e	; 62
    1b02:	c6 55       	subi	r28, 0x56	; 86
    1b04:	d1 09       	sbc	r29, r1
    1b06:	0f b6       	in	r0, 0x3f	; 63
    1b08:	f8 94       	cli
    1b0a:	de bf       	out	0x3e, r29	; 62
    1b0c:	0f be       	out	0x3f, r0	; 63
    1b0e:	cd bf       	out	0x3d, r28	; 61
    1b10:	78 94       	sei
    1b12:	84 b5       	in	r24, 0x24	; 36
    1b14:	82 60       	ori	r24, 0x02	; 2
    1b16:	84 bd       	out	0x24, r24	; 36
    1b18:	84 b5       	in	r24, 0x24	; 36
    1b1a:	81 60       	ori	r24, 0x01	; 1
    1b1c:	84 bd       	out	0x24, r24	; 36
    1b1e:	85 b5       	in	r24, 0x25	; 37
    1b20:	82 60       	ori	r24, 0x02	; 2
    1b22:	85 bd       	out	0x25, r24	; 37
    1b24:	85 b5       	in	r24, 0x25	; 37
    1b26:	81 60       	ori	r24, 0x01	; 1
    1b28:	85 bd       	out	0x25, r24	; 37
    1b2a:	80 91 6e 00 	lds	r24, 0x006E	;  0x80006e
    1b2e:	81 60       	ori	r24, 0x01	; 1
    1b30:	80 93 6e 00 	sts	0x006E, r24	;  0x80006e
    1b34:	10 92 81 00 	sts	0x0081, r1	;  0x800081
    1b38:	80 91 81 00 	lds	r24, 0x0081	;  0x800081
    1b3c:	82 60       	ori	r24, 0x02	; 2
    1b3e:	80 93 81 00 	sts	0x0081, r24	;  0x800081
    1b42:	80 91 81 00 	lds	r24, 0x0081	;  0x800081
    1b46:	81 60       	ori	r24, 0x01	; 1
    1b48:	80 93 81 00 	sts	0x0081, r24	;  0x800081
    1b4c:	80 91 80 00 	lds	r24, 0x0080	;  0x800080
    1b50:	81 60       	ori	r24, 0x01	; 1
    1b52:	80 93 80 00 	sts	0x0080, r24	;  0x800080
    1b56:	80 91 b1 00 	lds	r24, 0x00B1	;  0x8000b1
    1b5a:	84 60       	ori	r24, 0x04	; 4
    1b5c:	80 93 b1 00 	sts	0x00B1, r24	;  0x8000b1
    1b60:	80 91 b0 00 	lds	r24, 0x00B0	;  0x8000b0
    1b64:	81 60       	ori	r24, 0x01	; 1
    1b66:	80 93 b0 00 	sts	0x00B0, r24	;  0x8000b0
    1b6a:	80 91 7a 00 	lds	r24, 0x007A	;  0x80007a
    1b6e:	84 60       	ori	r24, 0x04	; 4
    1b70:	80 93 7a 00 	sts	0x007A, r24	;  0x80007a
    1b74:	80 91 7a 00 	lds	r24, 0x007A	;  0x80007a
    1b78:	82 60       	ori	r24, 0x02	; 2
    1b7a:	80 93 7a 00 	sts	0x007A, r24	;  0x80007a
    1b7e:	80 91 7a 00 	lds	r24, 0x007A	;  0x80007a
    1b82:	81 60       	ori	r24, 0x01	; 1
    1b84:	80 93 7a 00 	sts	0x007A, r24	;  0x80007a
    1b88:	80 91 7a 00 	lds	r24, 0x007A	;  0x80007a
    1b8c:	80 68       	ori	r24, 0x80	; 128
    1b8e:	80 93 7a 00 	sts	0x007A, r24	;  0x80007a
    1b92:	10 92 c1 00 	sts	0x00C1, r1	;  0x8000c1
    1b96:	82 e0       	ldi	r24, 0x02	; 2
    1b98:	0e 94 45 0a 	call	0x148a	;  0x148a
    1b9c:	e0 91 5a 04 	lds	r30, 0x045A	;  0x80045a
    1ba0:	f0 91 5b 04 	lds	r31, 0x045B	;  0x80045b
    1ba4:	82 e0       	ldi	r24, 0x02	; 2
    1ba6:	80 83       	st	Z, r24
    1ba8:	e0 91 56 04 	lds	r30, 0x0456	;  0x800456
    1bac:	f0 91 57 04 	lds	r31, 0x0457	;  0x800457
    1bb0:	10 82       	st	Z, r1
    1bb2:	e0 91 58 04 	lds	r30, 0x0458	;  0x800458
    1bb6:	f0 91 59 04 	lds	r31, 0x0459	;  0x800459
    1bba:	8f ec       	ldi	r24, 0xCF	; 207
    1bbc:	80 83       	st	Z, r24
    1bbe:	10 92 62 04 	sts	0x0462, r1	;  0x800462
    1bc2:	e0 91 5e 04 	lds	r30, 0x045E	;  0x80045e
    1bc6:	f0 91 5f 04 	lds	r31, 0x045F	;  0x80045f
    1bca:	86 e0       	ldi	r24, 0x06	; 6
    1bcc:	80 83       	st	Z, r24
    1bce:	e0 91 5c 04 	lds	r30, 0x045C	;  0x80045c
    1bd2:	f0 91 5d 04 	lds	r31, 0x045D	;  0x80045d
    1bd6:	80 81       	ld	r24, Z
    1bd8:	80 61       	ori	r24, 0x10	; 16
    1bda:	80 83       	st	Z, r24
    1bdc:	e0 91 5c 04 	lds	r30, 0x045C	;  0x80045c
    1be0:	f0 91 5d 04 	lds	r31, 0x045D	;  0x80045d
    1be4:	80 81       	ld	r24, Z
    1be6:	88 60       	ori	r24, 0x08	; 8
    1be8:	80 83       	st	Z, r24
    1bea:	e0 91 5c 04 	lds	r30, 0x045C	;  0x80045c
    1bee:	f0 91 5d 04 	lds	r31, 0x045D	;  0x80045d
    1bf2:	80 81       	ld	r24, Z
    1bf4:	80 68       	ori	r24, 0x80	; 128
    1bf6:	80 83       	st	Z, r24
    1bf8:	e0 91 5c 04 	lds	r30, 0x045C	;  0x80045c
    1bfc:	f0 91 5d 04 	lds	r31, 0x045D	;  0x80045d
    1c00:	80 81       	ld	r24, Z
    1c02:	8f 7d       	andi	r24, 0xDF	; 223
    1c04:	80 83       	st	Z, r24
    1c06:	10 92 1a 05 	sts	0x051A, r1	;  0x80051a
    1c0a:	10 92 19 05 	sts	0x0519, r1	;  0x800519
    1c0e:	10 92 18 05 	sts	0x0518, r1	;  0x800518
    1c12:	10 92 17 05 	sts	0x0517, r1	;  0x800517
    1c16:	10 92 16 05 	sts	0x0516, r1	;  0x800516
    1c1a:	10 92 15 05 	sts	0x0515, r1	;  0x800515
    1c1e:	8f e1       	ldi	r24, 0x1F	; 31
    1c20:	90 e0       	ldi	r25, 0x00	; 0
    1c22:	90 93 1c 05 	sts	0x051C, r25	;  0x80051c
    1c26:	80 93 1b 05 	sts	0x051B, r24	;  0x80051b
    1c2a:	90 91 0b 05 	lds	r25, 0x050B	;  0x80050b
    1c2e:	96 31       	cpi	r25, 0x16	; 22
    1c30:	08 f0       	brcs	.+2      	;  0x1c34
    1c32:	47 c0       	rjmp	.+142    	;  0x1cc2
    1c34:	21 e0       	ldi	r18, 0x01	; 1
    1c36:	30 e0       	ldi	r19, 0x00	; 0
    1c38:	30 93 16 05 	sts	0x0516, r19	;  0x800516
    1c3c:	20 93 15 05 	sts	0x0515, r18	;  0x800515
    1c40:	2d e1       	ldi	r18, 0x1D	; 29
    1c42:	30 e0       	ldi	r19, 0x00	; 0
    1c44:	30 93 18 05 	sts	0x0518, r19	;  0x800518
    1c48:	20 93 17 05 	sts	0x0517, r18	;  0x800517
    1c4c:	2d e0       	ldi	r18, 0x0D	; 13
    1c4e:	30 e0       	ldi	r19, 0x00	; 0
    1c50:	30 93 1a 05 	sts	0x051A, r19	;  0x80051a
    1c54:	20 93 19 05 	sts	0x0519, r18	;  0x800519
    1c58:	20 91 68 00 	lds	r18, 0x0068	;  0x800068
    1c5c:	84 e0       	ldi	r24, 0x04	; 4
    1c5e:	98 30       	cpi	r25, 0x08	; 8
    1c60:	48 f0       	brcs	.+18     	;  0x1c74
    1c62:	31 e0       	ldi	r19, 0x01	; 1
    1c64:	9e 30       	cpi	r25, 0x0E	; 14
    1c66:	08 f4       	brcc	.+2      	;  0x1c6a
    1c68:	30 e0       	ldi	r19, 0x00	; 0
    1c6a:	81 e0       	ldi	r24, 0x01	; 1
    1c6c:	01 c0       	rjmp	.+2      	;  0x1c70
    1c6e:	88 0f       	add	r24, r24
    1c70:	3a 95       	dec	r19
    1c72:	ea f7       	brpl	.-6      	;  0x1c6e
    1c74:	82 2b       	or	r24, r18
    1c76:	80 93 68 00 	sts	0x0068, r24	;  0x800068
    1c7a:	2d e6       	ldi	r18, 0x6D	; 109
    1c7c:	30 e0       	ldi	r19, 0x00	; 0
    1c7e:	98 30       	cpi	r25, 0x08	; 8
    1c80:	50 f0       	brcs	.+20     	;  0x1c96
    1c82:	2b e6       	ldi	r18, 0x6B	; 107
    1c84:	30 e0       	ldi	r19, 0x00	; 0
    1c86:	9e 30       	cpi	r25, 0x0E	; 14
    1c88:	30 f0       	brcs	.+12     	;  0x1c96
    1c8a:	2c e6       	ldi	r18, 0x6C	; 108
    1c8c:	30 e0       	ldi	r19, 0x00	; 0
    1c8e:	96 31       	cpi	r25, 0x16	; 22
    1c90:	10 f0       	brcs	.+4      	;  0x1c96
    1c92:	30 e0       	ldi	r19, 0x00	; 0
    1c94:	20 e0       	ldi	r18, 0x00	; 0
    1c96:	30 93 13 05 	sts	0x0513, r19	;  0x800513
    1c9a:	20 93 12 05 	sts	0x0512, r18	;  0x800512
    1c9e:	29 2f       	mov	r18, r25
    1ca0:	30 e0       	ldi	r19, 0x00	; 0
    1ca2:	98 30       	cpi	r25, 0x08	; 8
    1ca4:	08 f0       	brcs	.+2      	;  0x1ca8
    1ca6:	9f c0       	rjmp	.+318    	;  0x1de6
    1ca8:	81 e0       	ldi	r24, 0x01	; 1
    1caa:	01 c0       	rjmp	.+2      	;  0x1cae
    1cac:	88 0f       	add	r24, r24
    1cae:	9a 95       	dec	r25
    1cb0:	ea f7       	brpl	.-6      	;  0x1cac
    1cb2:	80 93 14 05 	sts	0x0514, r24	;  0x800514
    1cb6:	80 91 1b 05 	lds	r24, 0x051B	;  0x80051b
    1cba:	90 91 1c 05 	lds	r25, 0x051C	;  0x80051c
    1cbe:	01 97       	sbiw	r24, 0x01	; 1
    1cc0:	f1 f7       	brne	.-4      	;  0x1cbe
    1cc2:	80 91 19 05 	lds	r24, 0x0519	;  0x800519
    1cc6:	90 91 1a 05 	lds	r25, 0x051A	;  0x80051a
    1cca:	89 2b       	or	r24, r25
    1ccc:	49 f1       	breq	.+82     	;  0x1d20
    1cce:	e0 91 0c 02 	lds	r30, 0x020C	;  0x80020c
    1cd2:	f0 91 0d 02 	lds	r31, 0x020D	;  0x80020d
    1cd6:	14 e0       	ldi	r17, 0x04	; 4
    1cd8:	ef 3f       	cpi	r30, 0xFF	; 255
    1cda:	f1 07       	cpc	r31, r17
    1cdc:	09 f1       	breq	.+66     	;  0x1d20
    1cde:	30 97       	sbiw	r30, 0x00	; 0
    1ce0:	39 f0       	breq	.+14     	;  0x1cf0
    1ce2:	a3 89       	ldd	r26, Z+19	; 0x13
    1ce4:	b4 89       	ldd	r27, Z+20	; 0x14
    1ce6:	9c 91       	ld	r25, X
    1ce8:	85 89       	ldd	r24, Z+21	; 0x15
    1cea:	80 95       	com	r24
    1cec:	89 23       	and	r24, r25
    1cee:	8c 93       	st	X, r24
    1cf0:	80 91 1d 05 	lds	r24, 0x051D	;  0x80051d
    1cf4:	8e 7f       	andi	r24, 0xFE	; 254
    1cf6:	80 93 1d 05 	sts	0x051D, r24	;  0x80051d
    1cfa:	10 92 0b 02 	sts	0x020B, r1	;  0x80020b
    1cfe:	10 92 0a 02 	sts	0x020A, r1	;  0x80020a
    1d02:	8f ef       	ldi	r24, 0xFF	; 255
    1d04:	94 e0       	ldi	r25, 0x04	; 4
    1d06:	90 93 0d 02 	sts	0x020D, r25	;  0x80020d
    1d0a:	80 93 0c 02 	sts	0x020C, r24	;  0x80020c
    1d0e:	e0 91 12 05 	lds	r30, 0x0512	;  0x800512
    1d12:	f0 91 13 05 	lds	r31, 0x0513	;  0x800513
    1d16:	80 81       	ld	r24, Z
    1d18:	90 91 14 05 	lds	r25, 0x0514	;  0x800514
    1d1c:	89 2b       	or	r24, r25
    1d1e:	80 83       	st	Z, r24
    1d20:	05 e1       	ldi	r16, 0x15	; 21
    1d22:	11 e0       	ldi	r17, 0x01	; 1
    1d24:	90 e0       	ldi	r25, 0x00	; 0
    1d26:	69 2e       	mov	r6, r25
    1d28:	91 e0       	ldi	r25, 0x01	; 1
    1d2a:	79 2e       	mov	r7, r25
    1d2c:	62 e0       	ldi	r22, 0x02	; 2
    1d2e:	f3 01       	movw	r30, r6
    1d30:	81 81       	ldd	r24, Z+1	; 0x01
    1d32:	0e 94 ec 06 	call	0xdd8	;  0xdd8
    1d36:	f3 e0       	ldi	r31, 0x03	; 3
    1d38:	6f 0e       	add	r6, r31
    1d3a:	71 1c       	adc	r7, r1
    1d3c:	06 15       	cp	r16, r6
    1d3e:	17 05       	cpc	r17, r7
    1d40:	a9 f7       	brne	.-22     	;  0x1d2c
    1d42:	40 e0       	ldi	r20, 0x00	; 0
    1d44:	63 e1       	ldi	r22, 0x13	; 19
    1d46:	76 e0       	ldi	r23, 0x06	; 6
    1d48:	80 e0       	ldi	r24, 0x00	; 0
    1d4a:	0e 94 3a 0b 	call	0x1674	;  0x1674
    1d4e:	61 e0       	ldi	r22, 0x01	; 1
    1d50:	8e e1       	ldi	r24, 0x1E	; 30
    1d52:	91 e0       	ldi	r25, 0x01	; 1
    1d54:	0e 94 13 0b 	call	0x1626	;  0x1626
    1d58:	5e 01       	movw	r10, r28
    1d5a:	12 e3       	ldi	r17, 0x32	; 50
    1d5c:	a1 0e       	add	r10, r17
    1d5e:	b1 1c       	adc	r11, r1
    1d60:	9e 01       	movw	r18, r28
    1d62:	2f 5e       	subi	r18, 0xEF	; 239
    1d64:	3f 4f       	sbci	r19, 0xFF	; 255
    1d66:	64 96       	adiw	r28, 0x14	; 20
    1d68:	3f af       	std	Y+63, r19	; 0x3f
    1d6a:	2e af       	std	Y+62, r18	; 0x3e
    1d6c:	64 97       	sbiw	r28, 0x14	; 20
    1d6e:	00 e0       	ldi	r16, 0x00	; 0
    1d70:	11 e0       	ldi	r17, 0x01	; 1
    1d72:	f8 01       	movw	r30, r16
    1d74:	21 81       	ldd	r18, Z+1	; 0x01
    1d76:	30 e0       	ldi	r19, 0x00	; 0
    1d78:	f9 01       	movw	r30, r18
    1d7a:	ec 57       	subi	r30, 0x7C	; 124
    1d7c:	f6 4f       	sbci	r31, 0xF6	; 246
    1d7e:	84 91       	lpm	r24, Z
    1d80:	f9 01       	movw	r30, r18
    1d82:	e0 54       	subi	r30, 0x40	; 64
    1d84:	f5 4f       	sbci	r31, 0xF5	; 245
    1d86:	f4 90       	lpm	r15, Z
    1d88:	f9 01       	movw	r30, r18
    1d8a:	e4 55       	subi	r30, 0x54	; 84
    1d8c:	f5 4f       	sbci	r31, 0xF5	; 245
    1d8e:	e4 90       	lpm	r14, Z
    1d90:	ee 20       	and	r14, r14
    1d92:	b1 f1       	breq	.+108    	;  0x1e00
    1d94:	81 11       	cpse	r24, r1
    1d96:	0e 94 95 06 	call	0xd2a	;  0xd2a
    1d9a:	ee 2d       	mov	r30, r14
    1d9c:	f0 e0       	ldi	r31, 0x00	; 0
    1d9e:	ee 0f       	add	r30, r30
    1da0:	ff 1f       	adc	r31, r31
    1da2:	e8 56       	subi	r30, 0x68	; 104
    1da4:	f5 4f       	sbci	r31, 0xF5	; 245
    1da6:	a5 91       	lpm	r26, Z+
    1da8:	b4 91       	lpm	r27, Z
    1daa:	ec 91       	ld	r30, X
    1dac:	fe 22       	and	r15, r30
    1dae:	81 e0       	ldi	r24, 0x01	; 1
    1db0:	09 f4       	brne	.+2      	;  0x1db4
    1db2:	80 e0       	ldi	r24, 0x00	; 0
    1db4:	f8 2e       	mov	r15, r24
    1db6:	f1 e0       	ldi	r31, 0x01	; 1
    1db8:	8f 13       	cpse	r24, r31
    1dba:	23 c0       	rjmp	.+70     	;  0x1e02
    1dbc:	f8 01       	movw	r30, r16
    1dbe:	92 81       	ldd	r25, Z+2	; 0x02
    1dc0:	91 11       	cpse	r25, r1
    1dc2:	1f c0       	rjmp	.+62     	;  0x1e02
    1dc4:	60 81       	ld	r22, Z
    1dc6:	66 35       	cpi	r22, 0x56	; 86
    1dc8:	09 f0       	breq	.+2      	;  0x1dcc
    1dca:	4d c0       	rjmp	.+154    	;  0x1e66
    1dcc:	80 93 2e 03 	sts	0x032E, r24	;  0x80032e
    1dd0:	64 e3       	ldi	r22, 0x34	; 52
    1dd2:	76 e0       	ldi	r23, 0x06	; 6
    1dd4:	8a e4       	ldi	r24, 0x4A	; 74
    1dd6:	94 e0       	ldi	r25, 0x04	; 4
    1dd8:	0e 94 86 07 	call	0xf0c	;  0xf0c
    1ddc:	84 e2       	ldi	r24, 0x24	; 36
    1dde:	96 e0       	ldi	r25, 0x06	; 6
    1de0:	0e 94 00 0b 	call	0x1600	;  0x1600
    1de4:	0e c0       	rjmp	.+28     	;  0x1e02
    1de6:	9e 30       	cpi	r25, 0x0E	; 14
    1de8:	40 f4       	brcc	.+16     	;  0x1dfa
    1dea:	28 50       	subi	r18, 0x08	; 8
    1dec:	31 09       	sbc	r19, r1
    1dee:	81 e0       	ldi	r24, 0x01	; 1
    1df0:	01 c0       	rjmp	.+2      	;  0x1df4
    1df2:	88 0f       	add	r24, r24
    1df4:	2a 95       	dec	r18
    1df6:	ea f7       	brpl	.-6      	;  0x1df2
    1df8:	5c cf       	rjmp	.-328    	;  0x1cb2
    1dfa:	2e 50       	subi	r18, 0x0E	; 14
    1dfc:	31 09       	sbc	r19, r1
    1dfe:	f7 cf       	rjmp	.-18     	;  0x1dee
    1e00:	f1 2c       	mov	r15, r1
    1e02:	f8 01       	movw	r30, r16
    1e04:	f2 82       	std	Z+2, r15	; 0x02
    1e06:	0d 5f       	subi	r16, 0xFD	; 253
    1e08:	1f 4f       	sbci	r17, 0xFF	; 255
    1e0a:	60 16       	cp	r6, r16
    1e0c:	71 06       	cpc	r7, r17
    1e0e:	09 f0       	breq	.+2      	;  0x1e12
    1e10:	b0 cf       	rjmp	.-160    	;  0x1d72
    1e12:	8f ef       	ldi	r24, 0xFF	; 255
    1e14:	94 e0       	ldi	r25, 0x04	; 4
    1e16:	0e 94 53 09 	call	0x12a6	;  0x12a6
    1e1a:	89 2b       	or	r24, r25
    1e1c:	09 f4       	brne	.+2      	;  0x1e20
    1e1e:	57 c0       	rjmp	.+174    	;  0x1ece
    1e20:	10 92 22 02 	sts	0x0222, r1	;  0x800222
    1e24:	8f ef       	ldi	r24, 0xFF	; 255
    1e26:	94 e0       	ldi	r25, 0x04	; 4
    1e28:	0e 94 53 09 	call	0x12a6	;  0x12a6
    1e2c:	89 2b       	or	r24, r25
    1e2e:	99 f1       	breq	.+102    	;  0x1e96
    1e30:	8f ef       	ldi	r24, 0xFF	; 255
    1e32:	94 e0       	ldi	r25, 0x04	; 4
    1e34:	0e 94 69 09 	call	0x12d2	;  0x12d2
    1e38:	90 ee       	ldi	r25, 0xE0	; 224
    1e3a:	98 0f       	add	r25, r24
    1e3c:	9f 35       	cpi	r25, 0x5F	; 95
    1e3e:	60 f4       	brcc	.+24     	;  0x1e58
    1e40:	90 91 22 02 	lds	r25, 0x0222	;  0x800222
    1e44:	94 31       	cpi	r25, 0x14	; 20
    1e46:	40 f4       	brcc	.+16     	;  0x1e58
    1e48:	e9 2f       	mov	r30, r25
    1e4a:	f0 e0       	ldi	r31, 0x00	; 0
    1e4c:	e2 5f       	subi	r30, 0xF2	; 242
    1e4e:	fd 4f       	sbci	r31, 0xFD	; 253
    1e50:	80 83       	st	Z, r24
    1e52:	9f 5f       	subi	r25, 0xFF	; 255
    1e54:	90 93 22 02 	sts	0x0222, r25	;  0x800222
    1e58:	65 e0       	ldi	r22, 0x05	; 5
    1e5a:	70 e0       	ldi	r23, 0x00	; 0
    1e5c:	80 e0       	ldi	r24, 0x00	; 0
    1e5e:	90 e0       	ldi	r25, 0x00	; 0
    1e60:	0e 94 4d 07 	call	0xe9a	;  0xe9a
    1e64:	df cf       	rjmp	.-66     	;  0x1e24
    1e66:	68 35       	cpi	r22, 0x58	; 88
    1e68:	29 f4       	brne	.+10     	;  0x1e74
    1e6a:	80 93 2d 03 	sts	0x032D, r24	;  0x80032d
    1e6e:	6d e2       	ldi	r22, 0x2D	; 45
    1e70:	76 e0       	ldi	r23, 0x06	; 6
    1e72:	b0 cf       	rjmp	.-160    	;  0x1dd4
    1e74:	80 91 3e 04 	lds	r24, 0x043E	;  0x80043e
    1e78:	84 31       	cpi	r24, 0x14	; 20
    1e7a:	40 f4       	brcc	.+16     	;  0x1e8c
    1e7c:	e8 2f       	mov	r30, r24
    1e7e:	f0 e0       	ldi	r31, 0x00	; 0
    1e80:	e6 5d       	subi	r30, 0xD6	; 214
    1e82:	fb 4f       	sbci	r31, 0xFB	; 251
    1e84:	60 83       	st	Z, r22
    1e86:	8f 5f       	subi	r24, 0xFF	; 255
    1e88:	80 93 3e 04 	sts	0x043E, r24	;  0x80043e
    1e8c:	8a e4       	ldi	r24, 0x4A	; 74
    1e8e:	94 e0       	ldi	r25, 0x04	; 4
    1e90:	0e 94 7f 07 	call	0xefe	;  0xefe
    1e94:	a3 cf       	rjmp	.-186    	;  0x1ddc
    1e96:	69 e3       	ldi	r22, 0x39	; 57
    1e98:	76 e0       	ldi	r23, 0x06	; 6
    1e9a:	8a e4       	ldi	r24, 0x4A	; 74
    1e9c:	94 e0       	ldi	r25, 0x04	; 4
    1e9e:	0e 94 86 07 	call	0xf0c	;  0xf0c
    1ea2:	10 e0       	ldi	r17, 0x00	; 0
    1ea4:	80 91 22 02 	lds	r24, 0x0222	;  0x800222
    1ea8:	18 17       	cp	r17, r24
    1eaa:	58 f4       	brcc	.+22     	;  0x1ec2
    1eac:	e1 2f       	mov	r30, r17
    1eae:	f0 e0       	ldi	r31, 0x00	; 0
    1eb0:	e2 5f       	subi	r30, 0xF2	; 242
    1eb2:	fd 4f       	sbci	r31, 0xFD	; 253
    1eb4:	60 81       	ld	r22, Z
    1eb6:	8a e4       	ldi	r24, 0x4A	; 74
    1eb8:	94 e0       	ldi	r25, 0x04	; 4
    1eba:	0e 94 7f 07 	call	0xefe	;  0xefe
    1ebe:	1f 5f       	subi	r17, 0xFF	; 255
    1ec0:	f1 cf       	rjmp	.-30     	;  0x1ea4
    1ec2:	6e e6       	ldi	r22, 0x6E	; 110
    1ec4:	71 e0       	ldi	r23, 0x01	; 1
    1ec6:	8a e4       	ldi	r24, 0x4A	; 74
    1ec8:	94 e0       	ldi	r25, 0x04	; 4
    1eca:	0e 94 f1 0a 	call	0x15e2	;  0x15e2
    1ece:	80 91 40 04 	lds	r24, 0x0440	;  0x800440
    1ed2:	81 11       	cpse	r24, r1
    1ed4:	b2 c0       	rjmp	.+356    	;  0x203a
    1ed6:	40 e0       	ldi	r20, 0x00	; 0
    1ed8:	6a e6       	ldi	r22, 0x6A	; 106
    1eda:	79 e0       	ldi	r23, 0x09	; 9
    1edc:	0e 94 3a 0b 	call	0x1674	;  0x1674
    1ee0:	40 e0       	ldi	r20, 0x00	; 0
    1ee2:	69 e5       	ldi	r22, 0x59	; 89
    1ee4:	79 e0       	ldi	r23, 0x09	; 9
    1ee6:	81 e0       	ldi	r24, 0x01	; 1
    1ee8:	0e 94 3a 0b 	call	0x1674	;  0x1674
    1eec:	80 91 22 02 	lds	r24, 0x0222	;  0x800222
    1ef0:	88 30       	cpi	r24, 0x08	; 8
    1ef2:	09 f0       	breq	.+2      	;  0x1ef6
    1ef4:	9b c0       	rjmp	.+310    	;  0x202c
    1ef6:	ee e0       	ldi	r30, 0x0E	; 14
    1ef8:	f2 e0       	ldi	r31, 0x02	; 2
    1efa:	46 e1       	ldi	r20, 0x16	; 22
    1efc:	52 e0       	ldi	r21, 0x02	; 2
    1efe:	80 e0       	ldi	r24, 0x00	; 0
    1f00:	90 e0       	ldi	r25, 0x00	; 0
    1f02:	dc 01       	movw	r26, r24
    1f04:	21 91       	ld	r18, Z+
    1f06:	30 ed       	ldi	r19, 0xD0	; 208
    1f08:	32 0f       	add	r19, r18
    1f0a:	3a 30       	cpi	r19, 0x0A	; 10
    1f0c:	38 f0       	brcs	.+14     	;  0x1f1c
    1f0e:	3f eb       	ldi	r19, 0xBF	; 191
    1f10:	32 0f       	add	r19, r18
    1f12:	36 30       	cpi	r19, 0x06	; 6
    1f14:	08 f0       	brcs	.+2      	;  0x1f18
    1f16:	84 c0       	rjmp	.+264    	;  0x2020
    1f18:	39 ec       	ldi	r19, 0xC9	; 201
    1f1a:	32 0f       	add	r19, r18
    1f1c:	14 e0       	ldi	r17, 0x04	; 4
    1f1e:	88 0f       	add	r24, r24
    1f20:	99 1f       	adc	r25, r25
    1f22:	aa 1f       	adc	r26, r26
    1f24:	bb 1f       	adc	r27, r27
    1f26:	1a 95       	dec	r17
    1f28:	d1 f7       	brne	.-12     	;  0x1f1e
    1f2a:	83 2b       	or	r24, r19
    1f2c:	4e 17       	cp	r20, r30
    1f2e:	5f 07       	cpc	r21, r31
    1f30:	49 f7       	brne	.-46     	;  0x1f04
    1f32:	10 92 22 02 	sts	0x0222, r1	;  0x800222
    1f36:	8f 3f       	cpi	r24, 0xFF	; 255
    1f38:	ff ef       	ldi	r31, 0xFF	; 255
    1f3a:	9f 07       	cpc	r25, r31
    1f3c:	af 07       	cpc	r26, r31
    1f3e:	bf 07       	cpc	r27, r31
    1f40:	09 f4       	brne	.+2      	;  0x1f44
    1f42:	76 c0       	rjmp	.+236    	;  0x2030
    1f44:	2e eb       	ldi	r18, 0xBE	; 190
    1f46:	36 e0       	ldi	r19, 0x06	; 6
    1f48:	40 e0       	ldi	r20, 0x00	; 0
    1f4a:	f9 01       	movw	r30, r18
    1f4c:	c5 90       	lpm	r12, Z+
    1f4e:	d5 90       	lpm	r13, Z+
    1f50:	e5 90       	lpm	r14, Z+
    1f52:	f4 90       	lpm	r15, Z
    1f54:	8c 15       	cp	r24, r12
    1f56:	9d 05       	cpc	r25, r13
    1f58:	ae 05       	cpc	r26, r14
    1f5a:	bf 05       	cpc	r27, r15
    1f5c:	09 f0       	breq	.+2      	;  0x1f60
    1f5e:	8e c0       	rjmp	.+284    	;  0x207c
    1f60:	40 93 19 01 	sts	0x0119, r20	;  0x800119
    1f64:	c0 92 15 01 	sts	0x0115, r12	;  0x800115
    1f68:	d0 92 16 01 	sts	0x0116, r13	;  0x800116
    1f6c:	e0 92 17 01 	sts	0x0117, r14	;  0x800117
    1f70:	f0 92 18 01 	sts	0x0118, r15	;  0x800118
    1f74:	68 e4       	ldi	r22, 0x48	; 72
    1f76:	76 e0       	ldi	r23, 0x06	; 6
    1f78:	8a e4       	ldi	r24, 0x4A	; 74
    1f7a:	94 e0       	ldi	r25, 0x04	; 4
    1f7c:	0e 94 86 07 	call	0xf0c	;  0xf0c
    1f80:	e0 91 19 01 	lds	r30, 0x0119	;  0x800119
    1f84:	16 e0       	ldi	r17, 0x06	; 6
    1f86:	e1 02       	muls	r30, r17
    1f88:	f0 01       	movw	r30, r0
    1f8a:	11 24       	eor	r1, r1
    1f8c:	ee 53       	subi	r30, 0x3E	; 62
    1f8e:	f9 4f       	sbci	r31, 0xF9	; 249
    1f90:	85 91       	lpm	r24, Z+
    1f92:	94 91       	lpm	r25, Z
    1f94:	0e 94 00 0b 	call	0x1600	;  0x1600
    1f98:	80 91 19 01 	lds	r24, 0x0119	;  0x800119
    1f9c:	8f 3f       	cpi	r24, 0xFF	; 255
    1f9e:	09 f4       	brne	.+2      	;  0x1fa2
    1fa0:	47 c0       	rjmp	.+142    	;  0x2030
    1fa2:	e0 e1       	ldi	r30, 0x10	; 16
    1fa4:	f9 e0       	ldi	r31, 0x09	; 9
    1fa6:	85 91       	lpm	r24, Z+
    1fa8:	95 91       	lpm	r25, Z+
    1faa:	a5 91       	lpm	r26, Z+
    1fac:	b4 91       	lpm	r27, Z
    1fae:	0b 2f       	mov	r16, r27
    1fb0:	11 27       	eor	r17, r17
    1fb2:	22 27       	eor	r18, r18
    1fb4:	33 27       	eor	r19, r19
    1fb6:	45 ed       	ldi	r20, 0xD5	; 213
    1fb8:	04 27       	eor	r16, r20
    1fba:	78 2f       	mov	r23, r24
    1fbc:	66 27       	eor	r22, r22
    1fbe:	55 27       	eor	r21, r21
    1fc0:	44 27       	eor	r20, r20
    1fc2:	e4 e5       	ldi	r30, 0x54	; 84
    1fc4:	7e 27       	eor	r23, r30
    1fc6:	40 2b       	or	r20, r16
    1fc8:	51 2b       	or	r21, r17
    1fca:	62 2b       	or	r22, r18
    1fcc:	73 2b       	or	r23, r19
    1fce:	09 2f       	mov	r16, r25
    1fd0:	1a 2f       	mov	r17, r26
    1fd2:	2b 2f       	mov	r18, r27
    1fd4:	33 27       	eor	r19, r19
    1fd6:	00 27       	eor	r16, r16
    1fd8:	22 27       	eor	r18, r18
    1fda:	33 27       	eor	r19, r19
    1fdc:	fa e8       	ldi	r31, 0x8A	; 138
    1fde:	1f 27       	eor	r17, r31
    1fe0:	40 2b       	or	r20, r16
    1fe2:	51 2b       	or	r21, r17
    1fe4:	62 2b       	or	r22, r18
    1fe6:	73 2b       	or	r23, r19
    1fe8:	ba 2f       	mov	r27, r26
    1fea:	a9 2f       	mov	r26, r25
    1fec:	98 2f       	mov	r25, r24
    1fee:	88 27       	eor	r24, r24
    1ff0:	88 27       	eor	r24, r24
    1ff2:	99 27       	eor	r25, r25
    1ff4:	bb 27       	eor	r27, r27
    1ff6:	17 e1       	ldi	r17, 0x17	; 23
    1ff8:	a1 27       	eor	r26, r17
    1ffa:	84 2b       	or	r24, r20
    1ffc:	95 2b       	or	r25, r21
    1ffe:	a6 2b       	or	r26, r22
    2000:	b7 2b       	or	r27, r23
    2002:	8c 15       	cp	r24, r12
    2004:	9d 05       	cpc	r25, r13
    2006:	ae 05       	cpc	r26, r14
    2008:	bf 05       	cpc	r27, r15
    200a:	09 f0       	breq	.+2      	;  0x200e
    200c:	41 c0       	rjmp	.+130    	;  0x2090
    200e:	81 e0       	ldi	r24, 0x01	; 1
    2010:	80 93 3f 04 	sts	0x043F, r24	;  0x80043f
    2014:	10 92 3e 04 	sts	0x043E, r1	;  0x80043e
    2018:	81 e0       	ldi	r24, 0x01	; 1
    201a:	80 93 40 04 	sts	0x0440, r24	;  0x800440
    201e:	08 c0       	rjmp	.+16     	;  0x2030
    2020:	3f e9       	ldi	r19, 0x9F	; 159
    2022:	32 0f       	add	r19, r18
    2024:	36 30       	cpi	r19, 0x06	; 6
    2026:	10 f4       	brcc	.+4      	;  0x202c
    2028:	39 ea       	ldi	r19, 0xA9	; 169
    202a:	77 cf       	rjmp	.-274    	;  0x1f1a
    202c:	10 92 22 02 	sts	0x0222, r1	;  0x800222
    2030:	80 91 40 04 	lds	r24, 0x0440	;  0x800440
    2034:	88 23       	and	r24, r24
    2036:	09 f4       	brne	.+2      	;  0x203a
    2038:	92 c0       	rjmp	.+292    	;  0x215e
    203a:	80 91 3f 04 	lds	r24, 0x043F	;  0x80043f
    203e:	88 23       	and	r24, r24
    2040:	09 f4       	brne	.+2      	;  0x2044
    2042:	56 c3       	rjmp	.+1708   	;  0x26f0
    2044:	40 e0       	ldi	r20, 0x00	; 0
    2046:	69 e4       	ldi	r22, 0x49	; 73
    2048:	79 e0       	ldi	r23, 0x09	; 9
    204a:	80 e0       	ldi	r24, 0x00	; 0
    204c:	0e 94 3a 0b 	call	0x1674	;  0x1674
    2050:	40 e0       	ldi	r20, 0x00	; 0
    2052:	68 e3       	ldi	r22, 0x38	; 56
    2054:	79 e0       	ldi	r23, 0x09	; 9
    2056:	81 e0       	ldi	r24, 0x01	; 1
    2058:	0e 94 3a 0b 	call	0x1674	;  0x1674
    205c:	80 91 2d 03 	lds	r24, 0x032D	;  0x80032d
    2060:	88 23       	and	r24, r24
    2062:	c9 f0       	breq	.+50     	;  0x2096
    2064:	10 92 2d 03 	sts	0x032D, r1	;  0x80032d
    2068:	10 92 3e 04 	sts	0x043E, r1	;  0x80043e
    206c:	10 92 40 04 	sts	0x0440, r1	;  0x800440
    2070:	61 e0       	ldi	r22, 0x01	; 1
    2072:	81 e7       	ldi	r24, 0x71	; 113
    2074:	91 e0       	ldi	r25, 0x01	; 1
    2076:	0e 94 13 0b 	call	0x1626	;  0x1626
    207a:	71 c0       	rjmp	.+226    	;  0x215e
    207c:	4f 5f       	subi	r20, 0xFF	; 255
    207e:	2a 5f       	subi	r18, 0xFA	; 250
    2080:	3f 4f       	sbci	r19, 0xFF	; 255
    2082:	44 36       	cpi	r20, 0x64	; 100
    2084:	09 f0       	breq	.+2      	;  0x2088
    2086:	61 cf       	rjmp	.-318    	;  0x1f4a
    2088:	8f ef       	ldi	r24, 0xFF	; 255
    208a:	80 93 19 01 	sts	0x0119, r24	;  0x800119
    208e:	84 cf       	rjmp	.-248    	;  0x1f98
    2090:	10 92 3f 04 	sts	0x043F, r1	;  0x80043f
    2094:	bf cf       	rjmp	.-130    	;  0x2014
    2096:	80 91 2e 03 	lds	r24, 0x032E	;  0x80032e
    209a:	88 23       	and	r24, r24
    209c:	a9 f0       	breq	.+42     	;  0x20c8
    209e:	10 92 2e 03 	sts	0x032E, r1	;  0x80032e
    20a2:	8a e7       	ldi	r24, 0x7A	; 122
    20a4:	96 e0       	ldi	r25, 0x06	; 6
    20a6:	0e 94 00 0b 	call	0x1600	;  0x1600
    20aa:	00 91 29 04 	lds	r16, 0x0429	;  0x800429
    20ae:	01 11       	cpse	r16, r1
    20b0:	69 c0       	rjmp	.+210    	;  0x2184
    20b2:	85 e5       	ldi	r24, 0x55	; 85
    20b4:	96 e0       	ldi	r25, 0x06	; 6
    20b6:	0e 94 00 0b 	call	0x1600	;  0x1600
    20ba:	41 e0       	ldi	r20, 0x01	; 1
    20bc:	67 e2       	ldi	r22, 0x27	; 39
    20be:	79 e0       	ldi	r23, 0x09	; 9
    20c0:	81 e0       	ldi	r24, 0x01	; 1
    20c2:	0e 94 3a 0b 	call	0x1674	;  0x1674
    20c6:	4b c0       	rjmp	.+150    	;  0x215e
    20c8:	80 91 3e 04 	lds	r24, 0x043E	;  0x80043e
    20cc:	88 23       	and	r24, r24
    20ce:	09 f4       	brne	.+2      	;  0x20d2
    20d0:	46 c0       	rjmp	.+140    	;  0x215e
    20d2:	10 91 2a 04 	lds	r17, 0x042A	;  0x80042a
    20d6:	6c e8       	ldi	r22, 0x8C	; 140
    20d8:	76 e0       	ldi	r23, 0x06	; 6
    20da:	8a e4       	ldi	r24, 0x4A	; 74
    20dc:	94 e0       	ldi	r25, 0x04	; 4
    20de:	0e 94 86 07 	call	0xf0c	;  0xf0c
    20e2:	11 34       	cpi	r17, 0x41	; 65
    20e4:	09 f4       	brne	.+2      	;  0x20e8
    20e6:	e7 c2       	rjmp	.+1486   	;  0x26b6
    20e8:	12 34       	cpi	r17, 0x42	; 66
    20ea:	09 f4       	brne	.+2      	;  0x20ee
    20ec:	f8 c2       	rjmp	.+1520   	;  0x26de
    20ee:	13 34       	cpi	r17, 0x43	; 67
    20f0:	09 f4       	brne	.+2      	;  0x20f4
    20f2:	f8 c2       	rjmp	.+1520   	;  0x26e4
    20f4:	14 34       	cpi	r17, 0x44	; 68
    20f6:	09 f4       	brne	.+2      	;  0x20fa
    20f8:	f8 c2       	rjmp	.+1520   	;  0x26ea
    20fa:	84 e0       	ldi	r24, 0x04	; 4
    20fc:	90 e0       	ldi	r25, 0x00	; 0
    20fe:	15 34       	cpi	r17, 0x45	; 69
    2100:	09 f4       	brne	.+2      	;  0x2104
    2102:	db c2       	rjmp	.+1462   	;  0x26ba
    2104:	6e e6       	ldi	r22, 0x6E	; 110
    2106:	71 e0       	ldi	r23, 0x01	; 1
    2108:	8a e4       	ldi	r24, 0x4A	; 74
    210a:	94 e0       	ldi	r25, 0x04	; 4
    210c:	0e 94 f1 0a 	call	0x15e2	;  0x15e2
    2110:	2e eb       	ldi	r18, 0xBE	; 190
    2112:	36 e0       	ldi	r19, 0x06	; 6
    2114:	4a ee       	ldi	r20, 0xEA	; 234
    2116:	57 e0       	ldi	r21, 0x07	; 7
    2118:	80 e0       	ldi	r24, 0x00	; 0
    211a:	95 e0       	ldi	r25, 0x05	; 5
    211c:	f9 01       	movw	r30, r18
    211e:	c5 90       	lpm	r12, Z+
    2120:	d5 90       	lpm	r13, Z+
    2122:	e5 90       	lpm	r14, Z+
    2124:	f4 90       	lpm	r15, Z
    2126:	82 33       	cpi	r24, 0x32	; 50
    2128:	58 f4       	brcc	.+22     	;  0x2140
    212a:	98 9f       	mul	r25, r24
    212c:	f0 01       	movw	r30, r0
    212e:	11 24       	eor	r1, r1
    2130:	e1 5d       	subi	r30, 0xD1	; 209
    2132:	fc 4f       	sbci	r31, 0xFC	; 252
    2134:	c0 82       	st	Z, r12
    2136:	d1 82       	std	Z+1, r13	; 0x01
    2138:	e2 82       	std	Z+2, r14	; 0x02
    213a:	f3 82       	std	Z+3, r15	; 0x03
    213c:	14 83       	std	Z+4, r17	; 0x04
    213e:	8f 5f       	subi	r24, 0xFF	; 255
    2140:	2a 5f       	subi	r18, 0xFA	; 250
    2142:	3f 4f       	sbci	r19, 0xFF	; 255
    2144:	42 17       	cp	r20, r18
    2146:	53 07       	cpc	r21, r19
    2148:	49 f7       	brne	.-46     	;  0x211c
    214a:	80 93 29 04 	sts	0x0429, r24	;  0x800429
    214e:	41 e0       	ldi	r20, 0x01	; 1
    2150:	66 e1       	ldi	r22, 0x16	; 22
    2152:	79 e0       	ldi	r23, 0x09	; 9
    2154:	81 e0       	ldi	r24, 0x01	; 1
    2156:	0e 94 3a 0b 	call	0x1674	;  0x1674
    215a:	10 92 3e 04 	sts	0x043E, r1	;  0x80043e
    215e:	64 e6       	ldi	r22, 0x64	; 100
    2160:	70 e0       	ldi	r23, 0x00	; 0
    2162:	80 e0       	ldi	r24, 0x00	; 0
    2164:	90 e0       	ldi	r25, 0x00	; 0
    2166:	0e 94 4d 07 	call	0xe9a	;  0xe9a
    216a:	80 e0       	ldi	r24, 0x00	; 0
    216c:	90 e0       	ldi	r25, 0x00	; 0
    216e:	89 2b       	or	r24, r25
    2170:	09 f4       	brne	.+2      	;  0x2174
    2172:	fd cd       	rjmp	.-1030   	;  0x1d6e
    2174:	0e 94 14 08 	call	0x1028	;  0x1028
    2178:	88 23       	and	r24, r24
    217a:	09 f4       	brne	.+2      	;  0x217e
    217c:	f8 cd       	rjmp	.-1040   	;  0x1d6e
    217e:	0e 94 00 00 	call	0	;  0x0
    2182:	f5 cd       	rjmp	.-1046   	;  0x1d6e
    2184:	80 e1       	ldi	r24, 0x10	; 16
    2186:	f5 01       	movw	r30, r10
    2188:	11 92       	st	Z+, r1
    218a:	8a 95       	dec	r24
    218c:	e9 f7       	brne	.-6      	;  0x2188
    218e:	ae e1       	ldi	r26, 0x1E	; 30
    2190:	b1 e0       	ldi	r27, 0x01	; 1
    2192:	fe 01       	movw	r30, r28
    2194:	ee 5b       	subi	r30, 0xBE	; 190
    2196:	ff 4f       	sbci	r31, 0xFF	; 255
    2198:	2e e2       	ldi	r18, 0x2E	; 46
    219a:	31 e0       	ldi	r19, 0x01	; 1
    219c:	2f 01       	movw	r4, r30
    219e:	4d 91       	ld	r20, X+
    21a0:	5d 91       	ld	r21, X+
    21a2:	6d 91       	ld	r22, X+
    21a4:	7d 91       	ld	r23, X+
    21a6:	8b ed       	ldi	r24, 0xDB	; 219
    21a8:	90 e0       	ldi	r25, 0x00	; 0
    21aa:	45 52       	subi	r20, 0x25	; 37
    21ac:	54 42       	sbci	r21, 0x24	; 36
    21ae:	64 42       	sbci	r22, 0x24	; 36
    21b0:	74 42       	sbci	r23, 0x24	; 36
    21b2:	40 fb       	bst	r20, 0
    21b4:	77 95       	ror	r23
    21b6:	67 95       	ror	r22
    21b8:	57 95       	ror	r21
    21ba:	47 95       	ror	r20
    21bc:	77 f9       	bld	r23, 7
    21be:	1b ed       	ldi	r17, 0xDB	; 219
    21c0:	41 27       	eor	r20, r17
    21c2:	51 27       	eor	r21, r17
    21c4:	61 27       	eor	r22, r17
    21c6:	71 27       	eor	r23, r17
    21c8:	01 97       	sbiw	r24, 0x01	; 1
    21ca:	79 f7       	brne	.-34     	;  0x21aa
    21cc:	41 93       	st	Z+, r20
    21ce:	51 93       	st	Z+, r21
    21d0:	61 93       	st	Z+, r22
    21d2:	71 93       	st	Z+, r23
    21d4:	2a 17       	cp	r18, r26
    21d6:	3b 07       	cpc	r19, r27
    21d8:	11 f7       	brne	.-60     	;  0x219e
    21da:	10 92 20 05 	sts	0x0520, r1	;  0x800520
    21de:	10 92 1f 05 	sts	0x051F, r1	;  0x80051f
    21e2:	25 e0       	ldi	r18, 0x05	; 5
    21e4:	02 9f       	mul	r16, r18
    21e6:	80 01       	movw	r16, r0
    21e8:	11 24       	eor	r1, r1
    21ea:	60 e1       	ldi	r22, 0x10	; 16
    21ec:	70 e0       	ldi	r23, 0x00	; 0
    21ee:	c2 01       	movw	r24, r4
    21f0:	0e 94 c4 05 	call	0xb88	;  0xb88
    21f4:	8d b7       	in	r24, 0x3d	; 61
    21f6:	9e b7       	in	r25, 0x3e	; 62
    21f8:	67 96       	adiw	r28, 0x17	; 23
    21fa:	9f af       	std	Y+63, r25	; 0x3f
    21fc:	8e af       	std	Y+62, r24	; 0x3e
    21fe:	67 97       	sbiw	r28, 0x17	; 23
    2200:	80 91 1f 05 	lds	r24, 0x051F	;  0x80051f
    2204:	90 91 20 05 	lds	r25, 0x0520	;  0x800520
    2208:	97 fd       	sbrc	r25, 7
    220a:	1a c0       	rjmp	.+52     	;  0x2240
    220c:	83 30       	cpi	r24, 0x03	; 3
    220e:	91 05       	cpc	r25, r1
    2210:	0c f4       	brge	.+2      	;  0x2214
    2212:	58 c0       	rjmp	.+176    	;  0x22c4
    2214:	07 97       	sbiw	r24, 0x07	; 7
    2216:	a4 f4       	brge	.+40     	;  0x2240
    2218:	c8 01       	movw	r24, r16
    221a:	8f 70       	andi	r24, 0x0F	; 15
    221c:	99 27       	eor	r25, r25
    221e:	00 97       	sbiw	r24, 0x00	; 0
    2220:	09 f0       	breq	.+2      	;  0x2224
    2222:	46 c0       	rjmp	.+140    	;  0x22b0
    2224:	10 93 14 06 	sts	0x0614, r17	;  0x800614
    2228:	00 93 13 06 	sts	0x0613, r16	;  0x800613
    222c:	80 91 13 06 	lds	r24, 0x0613	;  0x800613
    2230:	90 91 14 06 	lds	r25, 0x0614	;  0x800614
    2234:	80 1b       	sub	r24, r16
    2236:	91 0b       	sbc	r25, r17
    2238:	90 93 12 06 	sts	0x0612, r25	;  0x800612
    223c:	80 93 11 06 	sts	0x0611, r24	;  0x800611
    2240:	c0 90 13 06 	lds	r12, 0x0613	;  0x800613
    2244:	d0 90 14 06 	lds	r13, 0x0614	;  0x800614
    2248:	2d b7       	in	r18, 0x3d	; 61
    224a:	3e b7       	in	r19, 0x3e	; 62
    224c:	2c 19       	sub	r18, r12
    224e:	3d 09       	sbc	r19, r13
    2250:	0f b6       	in	r0, 0x3f	; 63
    2252:	f8 94       	cli
    2254:	3e bf       	out	0x3e, r19	; 62
    2256:	0f be       	out	0x3f, r0	; 63
    2258:	2d bf       	out	0x3d, r18	; 61
    225a:	8d b7       	in	r24, 0x3d	; 61
    225c:	9e b7       	in	r25, 0x3e	; 62
    225e:	01 96       	adiw	r24, 0x01	; 1
    2260:	7c 01       	movw	r14, r24
    2262:	4c 01       	movw	r8, r24
    2264:	a6 01       	movw	r20, r12
    2266:	6f e2       	ldi	r22, 0x2F	; 47
    2268:	73 e0       	ldi	r23, 0x03	; 3
    226a:	0e 94 6f 15 	call	0x2ade	;  0x2ade
    226e:	80 91 11 06 	lds	r24, 0x0611	;  0x800611
    2272:	90 91 12 06 	lds	r25, 0x0612	;  0x800612
    2276:	c8 1a       	sub	r12, r24
    2278:	d9 0a       	sbc	r13, r25
    227a:	22 24       	eor	r2, r2
    227c:	2a 94       	dec	r2
    227e:	31 2c       	mov	r3, r1
    2280:	00 91 13 06 	lds	r16, 0x0613	;  0x800613
    2284:	10 91 14 06 	lds	r17, 0x0614	;  0x800614
    2288:	80 91 1f 05 	lds	r24, 0x051F	;  0x80051f
    228c:	90 91 20 05 	lds	r25, 0x0520	;  0x800520
    2290:	c0 16       	cp	r12, r16
    2292:	d1 06       	cpc	r13, r17
    2294:	0c f0       	brlt	.+2      	;  0x2298
    2296:	48 c0       	rjmp	.+144    	;  0x2328
    2298:	84 30       	cpi	r24, 0x04	; 4
    229a:	91 05       	cpc	r25, r1
    229c:	e4 f4       	brge	.+56     	;  0x22d6
    229e:	81 30       	cpi	r24, 0x01	; 1
    22a0:	91 05       	cpc	r25, r1
    22a2:	74 f5       	brge	.+92     	;  0x2300
    22a4:	89 2b       	or	r24, r25
    22a6:	29 f1       	breq	.+74     	;  0x22f2
    22a8:	ef ef       	ldi	r30, 0xFF	; 255
    22aa:	ce 1a       	sub	r12, r30
    22ac:	de 0a       	sbc	r13, r30
    22ae:	e8 cf       	rjmp	.-48     	;  0x2280
    22b0:	f8 01       	movw	r30, r16
    22b2:	e8 1b       	sub	r30, r24
    22b4:	f9 0b       	sbc	r31, r25
    22b6:	cf 01       	movw	r24, r30
    22b8:	40 96       	adiw	r24, 0x10	; 16
    22ba:	90 93 14 06 	sts	0x0614, r25	;  0x800614
    22be:	80 93 13 06 	sts	0x0613, r24	;  0x800613
    22c2:	b4 cf       	rjmp	.-152    	;  0x222c
    22c4:	c8 01       	movw	r24, r16
    22c6:	80 7f       	andi	r24, 0xF0	; 240
    22c8:	97 70       	andi	r25, 0x07	; 7
    22ca:	40 96       	adiw	r24, 0x10	; 16
    22cc:	90 93 14 06 	sts	0x0614, r25	;  0x800614
    22d0:	80 93 13 06 	sts	0x0613, r24	;  0x800613
    22d4:	af cf       	rjmp	.-162    	;  0x2234
    22d6:	85 30       	cpi	r24, 0x05	; 5
    22d8:	91 05       	cpc	r25, r1
    22da:	e9 f0       	breq	.+58     	;  0x2316
    22dc:	b4 f0       	brlt	.+44     	;  0x230a
    22de:	06 97       	sbiw	r24, 0x06	; 6
    22e0:	19 f7       	brne	.-58     	;  0x22a8
    22e2:	e0 91 11 06 	lds	r30, 0x0611	;  0x800611
    22e6:	f0 91 12 06 	lds	r31, 0x0612	;  0x800612
    22ea:	ec 5e       	subi	r30, 0xEC	; 236
    22ec:	f9 4f       	sbci	r31, 0xF9	; 249
    22ee:	80 81       	ld	r24, Z
    22f0:	02 c0       	rjmp	.+4      	;  0x22f6
    22f2:	80 91 11 06 	lds	r24, 0x0611	;  0x800611
    22f6:	f7 01       	movw	r30, r14
    22f8:	ec 0d       	add	r30, r12
    22fa:	fd 1d       	adc	r31, r13
    22fc:	80 83       	st	Z, r24
    22fe:	d4 cf       	rjmp	.-88     	;  0x22a8
    2300:	f7 01       	movw	r30, r14
    2302:	ec 0d       	add	r30, r12
    2304:	fd 1d       	adc	r31, r13
    2306:	10 82       	st	Z, r1
    2308:	cf cf       	rjmp	.-98     	;  0x22a8
    230a:	f7 01       	movw	r30, r14
    230c:	ec 0d       	add	r30, r12
    230e:	fd 1d       	adc	r31, r13
    2310:	90 e2       	ldi	r25, 0x20	; 32
    2312:	90 83       	st	Z, r25
    2314:	c9 cf       	rjmp	.-110    	;  0x22a8
    2316:	0e 94 c5 14 	call	0x298a	;  0x298a
    231a:	f7 01       	movw	r30, r14
    231c:	ec 0d       	add	r30, r12
    231e:	fd 1d       	adc	r31, r13
    2320:	b1 01       	movw	r22, r2
    2322:	0e 94 41 15 	call	0x2a82	;  0x2a82
    2326:	ea cf       	rjmp	.-44     	;  0x22fc
    2328:	81 30       	cpi	r24, 0x01	; 1
    232a:	91 05       	cpc	r25, r1
    232c:	09 f0       	breq	.+2      	;  0x2330
    232e:	e8 c0       	rjmp	.+464    	;  0x2500
    2330:	80 91 11 06 	lds	r24, 0x0611	;  0x800611
    2334:	90 91 12 06 	lds	r25, 0x0612	;  0x800612
    2338:	98 01       	movw	r18, r16
    233a:	28 1b       	sub	r18, r24
    233c:	39 0b       	sbc	r19, r25
    233e:	e2 0e       	add	r14, r18
    2340:	f3 1e       	adc	r15, r19
    2342:	80 e8       	ldi	r24, 0x80	; 128
    2344:	f7 01       	movw	r30, r14
    2346:	80 83       	st	Z, r24
    2348:	60 e1       	ldi	r22, 0x10	; 16
    234a:	70 e0       	ldi	r23, 0x00	; 0
    234c:	c2 01       	movw	r24, r4
    234e:	0e 94 c4 05 	call	0xb88	;  0xb88
    2352:	17 ff       	sbrs	r17, 7
    2354:	02 c0       	rjmp	.+4      	;  0x235a
    2356:	01 5f       	subi	r16, 0xF1	; 241
    2358:	1f 4f       	sbci	r17, 0xFF	; 255
    235a:	f4 e0       	ldi	r31, 0x04	; 4
    235c:	15 95       	asr	r17
    235e:	07 95       	ror	r16
    2360:	fa 95       	dec	r31
    2362:	e1 f7       	brne	.-8      	;  0x235c
    2364:	a3 e2       	ldi	r26, 0x23	; 35
    2366:	ea 2e       	mov	r14, r26
    2368:	a2 e0       	ldi	r26, 0x02	; 2
    236a:	fa 2e       	mov	r15, r26
    236c:	bb e1       	ldi	r27, 0x1B	; 27
    236e:	cb 2e       	mov	r12, r27
    2370:	01 15       	cp	r16, r1
    2372:	11 05       	cpc	r17, r1
    2374:	09 f4       	brne	.+2      	;  0x2378
    2376:	4c c1       	rjmp	.+664    	;  0x2610
    2378:	d4 01       	movw	r26, r8
    237a:	f5 01       	movw	r30, r10
    237c:	94 01       	movw	r18, r8
    237e:	20 5f       	subi	r18, 0xF0	; 240
    2380:	3f 4f       	sbci	r19, 0xFF	; 255
    2382:	80 81       	ld	r24, Z
    2384:	9c 91       	ld	r25, X
    2386:	89 27       	eor	r24, r25
    2388:	80 83       	st	Z, r24
    238a:	81 81       	ldd	r24, Z+1	; 0x01
    238c:	11 96       	adiw	r26, 0x01	; 1
    238e:	9c 91       	ld	r25, X
    2390:	11 97       	sbiw	r26, 0x01	; 1
    2392:	89 27       	eor	r24, r25
    2394:	81 83       	std	Z+1, r24	; 0x01
    2396:	82 81       	ldd	r24, Z+2	; 0x02
    2398:	12 96       	adiw	r26, 0x02	; 2
    239a:	9c 91       	ld	r25, X
    239c:	12 97       	sbiw	r26, 0x02	; 2
    239e:	89 27       	eor	r24, r25
    23a0:	82 83       	std	Z+2, r24	; 0x02
    23a2:	83 81       	ldd	r24, Z+3	; 0x03
    23a4:	13 96       	adiw	r26, 0x03	; 3
    23a6:	9c 91       	ld	r25, X
    23a8:	13 97       	sbiw	r26, 0x03	; 3
    23aa:	89 27       	eor	r24, r25
    23ac:	83 83       	std	Z+3, r24	; 0x03
    23ae:	14 96       	adiw	r26, 0x04	; 4
    23b0:	34 96       	adiw	r30, 0x04	; 4
    23b2:	2a 17       	cp	r18, r26
    23b4:	3b 07       	cpc	r19, r27
    23b6:	29 f7       	brne	.-54     	;  0x2382
    23b8:	80 91 1e 05 	lds	r24, 0x051E	;  0x80051e
    23bc:	88 23       	and	r24, r24
    23be:	09 f4       	brne	.+2      	;  0x23c2
    23c0:	27 c1       	rjmp	.+590    	;  0x2610
    23c2:	41 e2       	ldi	r20, 0x21	; 33
    23c4:	55 e0       	ldi	r21, 0x05	; 5
    23c6:	b5 01       	movw	r22, r10
    23c8:	ce 01       	movw	r24, r28
    23ca:	82 96       	adiw	r24, 0x22	; 34
    23cc:	0e 94 b7 08 	call	0x116e	;  0x116e
    23d0:	dd 24       	eor	r13, r13
    23d2:	d3 94       	inc	r13
    23d4:	80 91 1e 05 	lds	r24, 0x051E	;  0x80051e
    23d8:	d8 16       	cp	r13, r24
    23da:	08 f0       	brcs	.+2      	;  0x23de
    23dc:	9b c0       	rjmp	.+310    	;  0x2514
    23de:	9e 01       	movw	r18, r28
    23e0:	2e 5d       	subi	r18, 0xDE	; 222
    23e2:	3f 4f       	sbci	r19, 0xFF	; 255
    23e4:	de 01       	movw	r26, r28
    23e6:	11 96       	adiw	r26, 0x01	; 1
    23e8:	7f e0       	ldi	r23, 0x0F	; 15
    23ea:	57 2e       	mov	r5, r23
    23ec:	4a e0       	ldi	r20, 0x0A	; 10
    23ee:	65 96       	adiw	r28, 0x15	; 21
    23f0:	4f af       	std	Y+63, r20	; 0x3f
    23f2:	65 97       	sbiw	r28, 0x15	; 21
    23f4:	e5 e0       	ldi	r30, 0x05	; 5
    23f6:	2e 2e       	mov	r2, r30
    23f8:	e2 e2       	ldi	r30, 0x22	; 34
    23fa:	f0 e0       	ldi	r31, 0x00	; 0
    23fc:	ec 0f       	add	r30, r28
    23fe:	fd 1f       	adc	r31, r29
    2400:	e2 0d       	add	r30, r2
    2402:	f1 1d       	adc	r31, r1
    2404:	50 81       	ld	r21, Z
    2406:	84 e0       	ldi	r24, 0x04	; 4
    2408:	82 0d       	add	r24, r2
    240a:	8f 70       	andi	r24, 0x0F	; 15
    240c:	28 2e       	mov	r2, r24
    240e:	e2 e2       	ldi	r30, 0x22	; 34
    2410:	f0 e0       	ldi	r31, 0x00	; 0
    2412:	ec 0f       	add	r30, r28
    2414:	fd 1f       	adc	r31, r29
    2416:	65 96       	adiw	r28, 0x15	; 21
    2418:	8f ad       	ldd	r24, Y+63	; 0x3f
    241a:	65 97       	sbiw	r28, 0x15	; 21
    241c:	e8 0f       	add	r30, r24
    241e:	f1 1d       	adc	r31, r1
    2420:	60 81       	ld	r22, Z
    2422:	8c 5f       	subi	r24, 0xFC	; 252
    2424:	8f 70       	andi	r24, 0x0F	; 15
    2426:	65 96       	adiw	r28, 0x15	; 21
    2428:	8f af       	std	Y+63, r24	; 0x3f
    242a:	65 97       	sbiw	r28, 0x15	; 21
    242c:	e2 e2       	ldi	r30, 0x22	; 34
    242e:	f0 e0       	ldi	r31, 0x00	; 0
    2430:	ec 0f       	add	r30, r28
    2432:	fd 1f       	adc	r31, r29
    2434:	e5 0d       	add	r30, r5
    2436:	f1 1d       	adc	r31, r1
    2438:	90 81       	ld	r25, Z
    243a:	84 e0       	ldi	r24, 0x04	; 4
    243c:	85 0d       	add	r24, r5
    243e:	8f 70       	andi	r24, 0x0F	; 15
    2440:	58 2e       	mov	r5, r24
    2442:	f9 01       	movw	r30, r18
    2444:	80 81       	ld	r24, Z
    2446:	e8 2f       	mov	r30, r24
    2448:	f0 e0       	ldi	r31, 0x00	; 0
    244a:	e8 56       	subi	r30, 0x68	; 104
    244c:	f6 4f       	sbci	r31, 0xF6	; 246
    244e:	44 91       	lpm	r20, Z
    2450:	e5 2f       	mov	r30, r21
    2452:	f0 e0       	ldi	r31, 0x00	; 0
    2454:	e8 56       	subi	r30, 0x68	; 104
    2456:	f6 4f       	sbci	r31, 0xF6	; 246
    2458:	54 91       	lpm	r21, Z
    245a:	e6 2f       	mov	r30, r22
    245c:	f0 e0       	ldi	r31, 0x00	; 0
    245e:	e8 56       	subi	r30, 0x68	; 104
    2460:	f6 4f       	sbci	r31, 0xF6	; 246
    2462:	84 91       	lpm	r24, Z
    2464:	e9 2f       	mov	r30, r25
    2466:	f0 e0       	ldi	r31, 0x00	; 0
    2468:	e8 56       	subi	r30, 0x68	; 104
    246a:	f6 4f       	sbci	r31, 0xF6	; 246
    246c:	94 91       	lpm	r25, Z
    246e:	f4 2f       	mov	r31, r20
    2470:	ff 0f       	add	r31, r31
    2472:	47 fd       	sbrc	r20, 7
    2474:	fc 25       	eor	r31, r12
    2476:	35 2e       	mov	r3, r21
    2478:	33 0c       	add	r3, r3
    247a:	57 ff       	sbrs	r21, 7
    247c:	04 c0       	rjmp	.+8      	;  0x2486
    247e:	65 2f       	mov	r22, r21
    2480:	66 0f       	add	r22, r22
    2482:	36 2e       	mov	r3, r22
    2484:	3c 24       	eor	r3, r12
    2486:	48 2e       	mov	r4, r24
    2488:	44 0c       	add	r4, r4
    248a:	87 fd       	sbrc	r24, 7
    248c:	4c 24       	eor	r4, r12
    248e:	79 2f       	mov	r23, r25
    2490:	77 0f       	add	r23, r23
    2492:	97 fd       	sbrc	r25, 7
    2494:	7c 25       	eor	r23, r12
    2496:	65 2f       	mov	r22, r21
    2498:	68 27       	eor	r22, r24
    249a:	69 27       	eor	r22, r25
    249c:	6f 27       	eor	r22, r31
    249e:	63 25       	eor	r22, r3
    24a0:	6c 93       	st	X, r22
    24a2:	64 2f       	mov	r22, r20
    24a4:	68 27       	eor	r22, r24
    24a6:	69 27       	eor	r22, r25
    24a8:	63 25       	eor	r22, r3
    24aa:	64 25       	eor	r22, r4
    24ac:	11 96       	adiw	r26, 0x01	; 1
    24ae:	6c 93       	st	X, r22
    24b0:	11 97       	sbiw	r26, 0x01	; 1
    24b2:	45 27       	eor	r20, r21
    24b4:	94 27       	eor	r25, r20
    24b6:	94 25       	eor	r25, r4
    24b8:	97 27       	eor	r25, r23
    24ba:	12 96       	adiw	r26, 0x02	; 2
    24bc:	9c 93       	st	X, r25
    24be:	12 97       	sbiw	r26, 0x02	; 2
    24c0:	48 27       	eor	r20, r24
    24c2:	f4 27       	eor	r31, r20
    24c4:	7f 27       	eor	r23, r31
    24c6:	13 96       	adiw	r26, 0x03	; 3
    24c8:	7c 93       	st	X, r23
    24ca:	13 97       	sbiw	r26, 0x03	; 3
    24cc:	2c 5f       	subi	r18, 0xFC	; 252
    24ce:	3f 4f       	sbci	r19, 0xFF	; 255
    24d0:	14 96       	adiw	r26, 0x04	; 4
    24d2:	64 96       	adiw	r28, 0x14	; 20
    24d4:	8e ad       	ldd	r24, Y+62	; 0x3e
    24d6:	9f ad       	ldd	r25, Y+63	; 0x3f
    24d8:	64 97       	sbiw	r28, 0x14	; 20
    24da:	8a 17       	cp	r24, r26
    24dc:	9b 07       	cpc	r25, r27
    24de:	09 f0       	breq	.+2      	;  0x24e2
    24e0:	8b cf       	rjmp	.-234    	;  0x23f8
    24e2:	90 e1       	ldi	r25, 0x10	; 16
    24e4:	d9 9e       	mul	r13, r25
    24e6:	a0 01       	movw	r20, r0
    24e8:	11 24       	eor	r1, r1
    24ea:	4f 5d       	subi	r20, 0xDF	; 223
    24ec:	5a 4f       	sbci	r21, 0xFA	; 250
    24ee:	be 01       	movw	r22, r28
    24f0:	6f 5f       	subi	r22, 0xFF	; 255
    24f2:	7f 4f       	sbci	r23, 0xFF	; 255
    24f4:	ce 01       	movw	r24, r28
    24f6:	82 96       	adiw	r24, 0x22	; 34
    24f8:	0e 94 b7 08 	call	0x116e	;  0x116e
    24fc:	d3 94       	inc	r13
    24fe:	6a cf       	rjmp	.-300    	;  0x23d4
    2500:	02 97       	sbiw	r24, 0x02	; 2
    2502:	09 f0       	breq	.+2      	;  0x2506
    2504:	21 cf       	rjmp	.-446    	;  0x2348
    2506:	e0 0e       	add	r14, r16
    2508:	f1 1e       	adc	r15, r17
    250a:	f7 01       	movw	r30, r14
    250c:	31 97       	sbiw	r30, 0x01	; 1
    250e:	80 91 11 06 	lds	r24, 0x0611	;  0x800611
    2512:	19 cf       	rjmp	.-462    	;  0x2346
    2514:	ea a1       	ldd	r30, Y+34	; 0x22
    2516:	f0 e0       	ldi	r31, 0x00	; 0
    2518:	e8 56       	subi	r30, 0x68	; 104
    251a:	f6 4f       	sbci	r31, 0xF6	; 246
    251c:	e4 91       	lpm	r30, Z
    251e:	ea a3       	std	Y+34, r30	; 0x22
    2520:	ee a1       	ldd	r30, Y+38	; 0x26
    2522:	f0 e0       	ldi	r31, 0x00	; 0
    2524:	e8 56       	subi	r30, 0x68	; 104
    2526:	f6 4f       	sbci	r31, 0xF6	; 246
    2528:	e4 91       	lpm	r30, Z
    252a:	ee a3       	std	Y+38, r30	; 0x26
    252c:	ea a5       	ldd	r30, Y+42	; 0x2a
    252e:	f0 e0       	ldi	r31, 0x00	; 0
    2530:	e8 56       	subi	r30, 0x68	; 104
    2532:	f6 4f       	sbci	r31, 0xF6	; 246
    2534:	e4 91       	lpm	r30, Z
    2536:	ea a7       	std	Y+42, r30	; 0x2a
    2538:	ee a5       	ldd	r30, Y+46	; 0x2e
    253a:	f0 e0       	ldi	r31, 0x00	; 0
    253c:	e8 56       	subi	r30, 0x68	; 104
    253e:	f6 4f       	sbci	r31, 0xF6	; 246
    2540:	e4 91       	lpm	r30, Z
    2542:	ee a7       	std	Y+46, r30	; 0x2e
    2544:	8b a1       	ldd	r24, Y+35	; 0x23
    2546:	ef a1       	ldd	r30, Y+39	; 0x27
    2548:	f0 e0       	ldi	r31, 0x00	; 0
    254a:	e8 56       	subi	r30, 0x68	; 104
    254c:	f6 4f       	sbci	r31, 0xF6	; 246
    254e:	e4 91       	lpm	r30, Z
    2550:	eb a3       	std	Y+35, r30	; 0x23
    2552:	eb a5       	ldd	r30, Y+43	; 0x2b
    2554:	f0 e0       	ldi	r31, 0x00	; 0
    2556:	e8 56       	subi	r30, 0x68	; 104
    2558:	f6 4f       	sbci	r31, 0xF6	; 246
    255a:	e4 91       	lpm	r30, Z
    255c:	ef a3       	std	Y+39, r30	; 0x27
    255e:	ef a5       	ldd	r30, Y+47	; 0x2f
    2560:	f0 e0       	ldi	r31, 0x00	; 0
    2562:	e8 56       	subi	r30, 0x68	; 104
    2564:	f6 4f       	sbci	r31, 0xF6	; 246
    2566:	e4 91       	lpm	r30, Z
    2568:	eb a7       	std	Y+43, r30	; 0x2b
    256a:	e8 2f       	mov	r30, r24
    256c:	f0 e0       	ldi	r31, 0x00	; 0
    256e:	e8 56       	subi	r30, 0x68	; 104
    2570:	f6 4f       	sbci	r31, 0xF6	; 246
    2572:	e4 91       	lpm	r30, Z
    2574:	ef a7       	std	Y+47, r30	; 0x2f
    2576:	8c a1       	ldd	r24, Y+36	; 0x24
    2578:	ec a5       	ldd	r30, Y+44	; 0x2c
    257a:	f0 e0       	ldi	r31, 0x00	; 0
    257c:	e8 56       	subi	r30, 0x68	; 104
    257e:	f6 4f       	sbci	r31, 0xF6	; 246
    2580:	e4 91       	lpm	r30, Z
    2582:	ec a3       	std	Y+36, r30	; 0x24
    2584:	e8 2f       	mov	r30, r24
    2586:	f0 e0       	ldi	r31, 0x00	; 0
    2588:	e8 56       	subi	r30, 0x68	; 104
    258a:	f6 4f       	sbci	r31, 0xF6	; 246
    258c:	e4 91       	lpm	r30, Z
    258e:	ec a7       	std	Y+44, r30	; 0x2c
    2590:	88 a5       	ldd	r24, Y+40	; 0x28
    2592:	e8 a9       	ldd	r30, Y+48	; 0x30
    2594:	f0 e0       	ldi	r31, 0x00	; 0
    2596:	e8 56       	subi	r30, 0x68	; 104
    2598:	f6 4f       	sbci	r31, 0xF6	; 246
    259a:	e4 91       	lpm	r30, Z
    259c:	e8 a7       	std	Y+40, r30	; 0x28
    259e:	e8 2f       	mov	r30, r24
    25a0:	f0 e0       	ldi	r31, 0x00	; 0
    25a2:	e8 56       	subi	r30, 0x68	; 104
    25a4:	f6 4f       	sbci	r31, 0xF6	; 246
    25a6:	e4 91       	lpm	r30, Z
    25a8:	e8 ab       	std	Y+48, r30	; 0x30
    25aa:	89 a9       	ldd	r24, Y+49	; 0x31
    25ac:	ed a5       	ldd	r30, Y+45	; 0x2d
    25ae:	f0 e0       	ldi	r31, 0x00	; 0
    25b0:	e8 56       	subi	r30, 0x68	; 104
    25b2:	f6 4f       	sbci	r31, 0xF6	; 246
    25b4:	e4 91       	lpm	r30, Z
    25b6:	e9 ab       	std	Y+49, r30	; 0x31
    25b8:	e9 a5       	ldd	r30, Y+41	; 0x29
    25ba:	f0 e0       	ldi	r31, 0x00	; 0
    25bc:	e8 56       	subi	r30, 0x68	; 104
    25be:	f6 4f       	sbci	r31, 0xF6	; 246
    25c0:	e4 91       	lpm	r30, Z
    25c2:	ed a7       	std	Y+45, r30	; 0x2d
    25c4:	ed a1       	ldd	r30, Y+37	; 0x25
    25c6:	f0 e0       	ldi	r31, 0x00	; 0
    25c8:	e8 56       	subi	r30, 0x68	; 104
    25ca:	f6 4f       	sbci	r31, 0xF6	; 246
    25cc:	e4 91       	lpm	r30, Z
    25ce:	e9 a7       	std	Y+41, r30	; 0x29
    25d0:	e8 2f       	mov	r30, r24
    25d2:	f0 e0       	ldi	r31, 0x00	; 0
    25d4:	e8 56       	subi	r30, 0x68	; 104
    25d6:	f6 4f       	sbci	r31, 0xF6	; 246
    25d8:	e4 91       	lpm	r30, Z
    25da:	ed a3       	std	Y+37, r30	; 0x25
    25dc:	e0 e1       	ldi	r30, 0x10	; 16
    25de:	de 9e       	mul	r13, r30
    25e0:	a0 01       	movw	r20, r0
    25e2:	11 24       	eor	r1, r1
    25e4:	4f 5d       	subi	r20, 0xDF	; 223
    25e6:	5a 4f       	sbci	r21, 0xFA	; 250
    25e8:	be 01       	movw	r22, r28
    25ea:	6e 5d       	subi	r22, 0xDE	; 222
    25ec:	7f 4f       	sbci	r23, 0xFF	; 255
    25ee:	c5 01       	movw	r24, r10
    25f0:	0e 94 b7 08 	call	0x116e	;  0x116e
    25f4:	40 e1       	ldi	r20, 0x10	; 16
    25f6:	b5 01       	movw	r22, r10
    25f8:	c7 01       	movw	r24, r14
    25fa:	0e 94 96 05 	call	0xb2c	;  0xb2c
    25fe:	f0 e1       	ldi	r31, 0x10	; 16
    2600:	8f 0e       	add	r8, r31
    2602:	91 1c       	adc	r9, r1
    2604:	20 e1       	ldi	r18, 0x10	; 16
    2606:	e2 0e       	add	r14, r18
    2608:	f1 1c       	adc	r15, r1
    260a:	01 50       	subi	r16, 0x01	; 1
    260c:	11 09       	sbc	r17, r1
    260e:	b0 ce       	rjmp	.-672    	;  0x2370
    2610:	67 96       	adiw	r28, 0x17	; 23
    2612:	8e ad       	ldd	r24, Y+62	; 0x3e
    2614:	9f ad       	ldd	r25, Y+63	; 0x3f
    2616:	67 97       	sbiw	r28, 0x17	; 23
    2618:	0f b6       	in	r0, 0x3f	; 63
    261a:	f8 94       	cli
    261c:	9e bf       	out	0x3e, r25	; 62
    261e:	0f be       	out	0x3f, r0	; 63
    2620:	8d bf       	out	0x3d, r24	; 61
    2622:	c0 90 13 06 	lds	r12, 0x0613	;  0x800613
    2626:	d0 90 14 06 	lds	r13, 0x0614	;  0x800614
    262a:	63 e2       	ldi	r22, 0x23	; 35
    262c:	e6 2e       	mov	r14, r22
    262e:	62 e0       	ldi	r22, 0x02	; 2
    2630:	f6 2e       	mov	r15, r22
    2632:	10 e0       	ldi	r17, 0x00	; 0
    2634:	00 e0       	ldi	r16, 0x00	; 0
    2636:	0c 15       	cp	r16, r12
    2638:	1d 05       	cpc	r17, r13
    263a:	d4 f5       	brge	.+116    	;  0x26b0
    263c:	c8 01       	movw	r24, r16
    263e:	8f 70       	andi	r24, 0x0F	; 15
    2640:	99 27       	eor	r25, r25
    2642:	89 2b       	or	r24, r25
    2644:	31 f4       	brne	.+12     	;  0x2652
    2646:	6e e6       	ldi	r22, 0x6E	; 110
    2648:	71 e0       	ldi	r23, 0x01	; 1
    264a:	8a e4       	ldi	r24, 0x4A	; 74
    264c:	94 e0       	ldi	r25, 0x04	; 4
    264e:	0e 94 f1 0a 	call	0x15e2	;  0x15e2
    2652:	60 e2       	ldi	r22, 0x20	; 32
    2654:	8a e4       	ldi	r24, 0x4A	; 74
    2656:	94 e0       	ldi	r25, 0x04	; 4
    2658:	0e 94 7f 07 	call	0xefe	;  0xefe
    265c:	f7 01       	movw	r30, r14
    265e:	81 91       	ld	r24, Z+
    2660:	7f 01       	movw	r14, r30
    2662:	90 e0       	ldi	r25, 0x00	; 0
    2664:	b0 e0       	ldi	r27, 0x00	; 0
    2666:	a0 e0       	ldi	r26, 0x00	; 0
    2668:	19 a2       	std	Y+33, r1	; 0x21
    266a:	fe 01       	movw	r30, r28
    266c:	b1 96       	adiw	r30, 0x21	; 33
    266e:	ac 01       	movw	r20, r24
    2670:	bd 01       	movw	r22, r26
    2672:	4f 70       	andi	r20, 0x0F	; 15
    2674:	55 27       	eor	r21, r21
    2676:	66 27       	eor	r22, r22
    2678:	77 27       	eor	r23, r23
    267a:	54 e0       	ldi	r21, 0x04	; 4
    267c:	b6 95       	lsr	r27
    267e:	a7 95       	ror	r26
    2680:	97 95       	ror	r25
    2682:	87 95       	ror	r24
    2684:	5a 95       	dec	r21
    2686:	d1 f7       	brne	.-12     	;  0x267c
    2688:	4a 30       	cpi	r20, 0x0A	; 10
    268a:	84 f4       	brge	.+32     	;  0x26ac
    268c:	40 5d       	subi	r20, 0xD0	; 208
    268e:	42 93       	st	-Z, r20
    2690:	00 97       	sbiw	r24, 0x00	; 0
    2692:	a1 05       	cpc	r26, r1
    2694:	b1 05       	cpc	r27, r1
    2696:	59 f7       	brne	.-42     	;  0x266e
    2698:	30 97       	sbiw	r30, 0x00	; 0
    269a:	29 f0       	breq	.+10     	;  0x26a6
    269c:	bf 01       	movw	r22, r30
    269e:	8a e4       	ldi	r24, 0x4A	; 74
    26a0:	94 e0       	ldi	r25, 0x04	; 4
    26a2:	0e 94 f1 0a 	call	0x15e2	;  0x15e2
    26a6:	0f 5f       	subi	r16, 0xFF	; 255
    26a8:	1f 4f       	sbci	r17, 0xFF	; 255
    26aa:	c5 cf       	rjmp	.-118    	;  0x2636
    26ac:	49 5c       	subi	r20, 0xC9	; 201
    26ae:	ef cf       	rjmp	.-34     	;  0x268e
    26b0:	10 92 29 04 	sts	0x0429, r1	;  0x800429
    26b4:	fe cc       	rjmp	.-1540   	;  0x20b2
    26b6:	90 e0       	ldi	r25, 0x00	; 0
    26b8:	80 e0       	ldi	r24, 0x00	; 0
    26ba:	fc 01       	movw	r30, r24
    26bc:	ee 0f       	add	r30, r30
    26be:	ff 1f       	adc	r31, r31
    26c0:	e8 0f       	add	r30, r24
    26c2:	f9 1f       	adc	r31, r25
    26c4:	e1 5d       	subi	r30, 0xD1	; 209
    26c6:	fe 4f       	sbci	r31, 0xFE	; 254
    26c8:	61 81       	ldd	r22, Z+1	; 0x01
    26ca:	72 81       	ldd	r23, Z+2	; 0x02
    26cc:	61 15       	cp	r22, r1
    26ce:	71 05       	cpc	r23, r1
    26d0:	09 f4       	brne	.+2      	;  0x26d4
    26d2:	18 cd       	rjmp	.-1488   	;  0x2104
    26d4:	8a e4       	ldi	r24, 0x4A	; 74
    26d6:	94 e0       	ldi	r25, 0x04	; 4
    26d8:	0e 94 f1 0a 	call	0x15e2	;  0x15e2
    26dc:	13 cd       	rjmp	.-1498   	;  0x2104
    26de:	81 e0       	ldi	r24, 0x01	; 1
    26e0:	90 e0       	ldi	r25, 0x00	; 0
    26e2:	eb cf       	rjmp	.-42     	;  0x26ba
    26e4:	82 e0       	ldi	r24, 0x02	; 2
    26e6:	90 e0       	ldi	r25, 0x00	; 0
    26e8:	e8 cf       	rjmp	.-48     	;  0x26ba
    26ea:	83 e0       	ldi	r24, 0x03	; 3
    26ec:	90 e0       	ldi	r25, 0x00	; 0
    26ee:	e5 cf       	rjmp	.-54     	;  0x26ba
    26f0:	e0 91 19 01 	lds	r30, 0x0119	;  0x800119
    26f4:	16 e0       	ldi	r17, 0x06	; 6
    26f6:	e1 9f       	mul	r30, r17
    26f8:	f0 01       	movw	r30, r0
    26fa:	11 24       	eor	r1, r1
    26fc:	ee 53       	subi	r30, 0x3E	; 62
    26fe:	f9 4f       	sbci	r31, 0xF9	; 249
    2700:	65 91       	lpm	r22, Z+
    2702:	74 91       	lpm	r23, Z
    2704:	40 e0       	ldi	r20, 0x00	; 0
    2706:	80 e0       	ldi	r24, 0x00	; 0
    2708:	0e 94 3a 0b 	call	0x1674	;  0x1674
    270c:	60 e0       	ldi	r22, 0x00	; 0
    270e:	80 e7       	ldi	r24, 0x70	; 112
    2710:	91 e0       	ldi	r25, 0x01	; 1
    2712:	0e 94 13 0b 	call	0x1626	;  0x1626
    2716:	80 91 2d 03 	lds	r24, 0x032D	;  0x80032d
    271a:	e0 91 3e 04 	lds	r30, 0x043E	;  0x80043e
    271e:	88 23       	and	r24, r24
    2720:	29 f0       	breq	.+10     	;  0x272c
    2722:	10 92 2d 03 	sts	0x032D, r1	;  0x80032d
    2726:	e1 11       	cpse	r30, r1
    2728:	18 cd       	rjmp	.-1488   	;  0x215a
    272a:	a0 cc       	rjmp	.-1728   	;  0x206c
    272c:	80 91 2e 03 	lds	r24, 0x032E	;  0x80032e
    2730:	81 11       	cpse	r24, r1
    2732:	23 c0       	rjmp	.+70     	;  0x277a
    2734:	ee 23       	and	r30, r30
    2736:	09 f4       	brne	.+2      	;  0x273a
    2738:	12 cd       	rjmp	.-1500   	;  0x215e
    273a:	f0 e0       	ldi	r31, 0x00	; 0
    273c:	e7 5d       	subi	r30, 0xD7	; 215
    273e:	fb 4f       	sbci	r31, 0xFB	; 251
    2740:	80 81       	ld	r24, Z
    2742:	81 34       	cpi	r24, 0x41	; 65
    2744:	09 f4       	brne	.+2      	;  0x2748
    2746:	aa c0       	rjmp	.+340    	;  0x289c
    2748:	82 34       	cpi	r24, 0x42	; 66
    274a:	09 f4       	brne	.+2      	;  0x274e
    274c:	aa c0       	rjmp	.+340    	;  0x28a2
    274e:	83 34       	cpi	r24, 0x43	; 67
    2750:	09 f4       	brne	.+2      	;  0x2754
    2752:	aa c0       	rjmp	.+340    	;  0x28a8
    2754:	84 34       	cpi	r24, 0x44	; 68
    2756:	09 f4       	brne	.+2      	;  0x275a
    2758:	aa c0       	rjmp	.+340    	;  0x28ae
    275a:	85 34       	cpi	r24, 0x45	; 69
    275c:	09 f0       	breq	.+2      	;  0x2760
    275e:	aa c0       	rjmp	.+340    	;  0x28b4
    2760:	84 e0       	ldi	r24, 0x04	; 4
    2762:	90 e0       	ldi	r25, 0x00	; 0
    2764:	fc 01       	movw	r30, r24
    2766:	ee 0f       	add	r30, r30
    2768:	ff 1f       	adc	r31, r31
    276a:	e8 0f       	add	r30, r24
    276c:	f9 1f       	adc	r31, r25
    276e:	e1 5d       	subi	r30, 0xD1	; 209
    2770:	fe 4f       	sbci	r31, 0xFE	; 254
    2772:	81 81       	ldd	r24, Z+1	; 0x01
    2774:	92 81       	ldd	r25, Z+2	; 0x02
    2776:	60 e0       	ldi	r22, 0x00	; 0
    2778:	7e cc       	rjmp	.-1796   	;  0x2076
    277a:	10 92 2e 03 	sts	0x032E, r1	;  0x80032e
    277e:	ee 23       	and	r30, r30
    2780:	09 f4       	brne	.+2      	;  0x2784
    2782:	ed cc       	rjmp	.-1574   	;  0x215e
    2784:	ea 30       	cpi	r30, 0x0A	; 10
    2786:	09 f0       	breq	.+2      	;  0x278a
    2788:	63 c0       	rjmp	.+198    	;  0x2850
    278a:	80 91 2e 04 	lds	r24, 0x042E	;  0x80042e
    278e:	90 91 33 04 	lds	r25, 0x0433	;  0x800433
    2792:	89 13       	cpse	r24, r25
    2794:	5d c0       	rjmp	.+186    	;  0x2850
    2796:	40 91 2f 04 	lds	r20, 0x042F	;  0x80042f
    279a:	04 2e       	mov	r0, r20
    279c:	00 0c       	add	r0, r0
    279e:	55 0b       	sbc	r21, r21
    27a0:	ba 01       	movw	r22, r20
    27a2:	61 50       	subi	r22, 0x01	; 1
    27a4:	71 09       	sbc	r23, r1
    27a6:	20 91 30 04 	lds	r18, 0x0430	;  0x800430
    27aa:	02 2e       	mov	r0, r18
    27ac:	00 0c       	add	r0, r0
    27ae:	33 0b       	sbc	r19, r19
    27b0:	21 50       	subi	r18, 0x01	; 1
    27b2:	31 09       	sbc	r19, r1
    27b4:	62 17       	cp	r22, r18
    27b6:	73 07       	cpc	r23, r19
    27b8:	09 f0       	breq	.+2      	;  0x27bc
    27ba:	4a c0       	rjmp	.+148    	;  0x2850
    27bc:	a0 91 2b 04 	lds	r26, 0x042B	;  0x80042b
    27c0:	90 91 2d 04 	lds	r25, 0x042D	;  0x80042d
    27c4:	a9 13       	cpse	r26, r25
    27c6:	44 c0       	rjmp	.+136    	;  0x2850
    27c8:	20 91 2a 04 	lds	r18, 0x042A	;  0x80042a
    27cc:	02 2e       	mov	r0, r18
    27ce:	00 0c       	add	r0, r0
    27d0:	33 0b       	sbc	r19, r19
    27d2:	b9 01       	movw	r22, r18
    27d4:	6e 5f       	subi	r22, 0xFE	; 254
    27d6:	7f 4f       	sbci	r23, 0xFF	; 255
    27d8:	4e 5f       	subi	r20, 0xFE	; 254
    27da:	5f 4f       	sbci	r21, 0xFF	; 255
    27dc:	64 17       	cp	r22, r20
    27de:	75 07       	cpc	r23, r21
    27e0:	b9 f5       	brne	.+110    	;  0x2850
    27e2:	6a 2f       	mov	r22, r26
    27e4:	0a 2e       	mov	r0, r26
    27e6:	00 0c       	add	r0, r0
    27e8:	77 0b       	sbc	r23, r23
    27ea:	45 e0       	ldi	r20, 0x05	; 5
    27ec:	a4 02       	muls	r26, r20
    27ee:	d0 01       	movw	r26, r0
    27f0:	11 24       	eor	r1, r1
    27f2:	40 91 31 04 	lds	r20, 0x0431	;  0x800431
    27f6:	4e 02       	muls	r20, r30
    27f8:	a0 01       	movw	r20, r0
    27fa:	11 24       	eor	r1, r1
    27fc:	49 55       	subi	r20, 0x59	; 89
    27fe:	51 40       	sbci	r21, 0x01	; 1
    2800:	a4 17       	cp	r26, r20
    2802:	b5 07       	cpc	r27, r21
    2804:	29 f5       	brne	.+74     	;  0x2850
    2806:	40 91 2c 04 	lds	r20, 0x042C	;  0x80042c
    280a:	90 91 32 04 	lds	r25, 0x0432	;  0x800432
    280e:	49 13       	cpse	r20, r25
    2810:	1f c0       	rjmp	.+62     	;  0x2850
    2812:	2f 5f       	subi	r18, 0xFF	; 255
    2814:	3f 4f       	sbci	r19, 0xFF	; 255
    2816:	db 01       	movw	r26, r22
    2818:	11 97       	sbiw	r26, 0x01	; 1
    281a:	2a 17       	cp	r18, r26
    281c:	3b 07       	cpc	r19, r27
    281e:	c1 f4       	brne	.+48     	;  0x2850
    2820:	08 2e       	mov	r0, r24
    2822:	00 0c       	add	r0, r0
    2824:	99 0b       	sbc	r25, r25
    2826:	24 2f       	mov	r18, r20
    2828:	44 0f       	add	r20, r20
    282a:	33 0b       	sbc	r19, r19
    282c:	ac 01       	movw	r20, r24
    282e:	4d 5f       	subi	r20, 0xFD	; 253
    2830:	5f 4f       	sbci	r21, 0xFF	; 255
    2832:	24 17       	cp	r18, r20
    2834:	35 07       	cpc	r19, r21
    2836:	61 f4       	brne	.+24     	;  0x2850
    2838:	63 50       	subi	r22, 0x03	; 3
    283a:	71 09       	sbc	r23, r1
    283c:	01 96       	adiw	r24, 0x01	; 1
    283e:	68 17       	cp	r22, r24
    2840:	79 07       	cpc	r23, r25
    2842:	31 f4       	brne	.+12     	;  0x2850
    2844:	10 92 3e 04 	sts	0x043E, r1	;  0x80043e
    2848:	81 e0       	ldi	r24, 0x01	; 1
    284a:	80 93 3f 04 	sts	0x043F, r24	;  0x80043f
    284e:	87 cc       	rjmp	.-1778   	;  0x215e
    2850:	80 91 29 04 	lds	r24, 0x0429	;  0x800429
    2854:	82 33       	cpi	r24, 0x32	; 50
    2856:	d0 f4       	brcc	.+52     	;  0x288c
    2858:	f0 e0       	ldi	r31, 0x00	; 0
    285a:	e7 5d       	subi	r30, 0xD7	; 215
    285c:	fb 4f       	sbci	r31, 0xFB	; 251
    285e:	90 81       	ld	r25, Z
    2860:	15 e0       	ldi	r17, 0x05	; 5
    2862:	81 9f       	mul	r24, r17
    2864:	f0 01       	movw	r30, r0
    2866:	11 24       	eor	r1, r1
    2868:	e1 5d       	subi	r30, 0xD1	; 209
    286a:	fc 4f       	sbci	r31, 0xFC	; 252
    286c:	40 91 15 01 	lds	r20, 0x0115	;  0x800115
    2870:	50 91 16 01 	lds	r21, 0x0116	;  0x800116
    2874:	60 91 17 01 	lds	r22, 0x0117	;  0x800117
    2878:	70 91 18 01 	lds	r23, 0x0118	;  0x800118
    287c:	40 83       	st	Z, r20
    287e:	51 83       	std	Z+1, r21	; 0x01
    2880:	62 83       	std	Z+2, r22	; 0x02
    2882:	73 83       	std	Z+3, r23	; 0x03
    2884:	94 83       	std	Z+4, r25	; 0x04
    2886:	8f 5f       	subi	r24, 0xFF	; 255
    2888:	80 93 29 04 	sts	0x0429, r24	;  0x800429
    288c:	10 92 3e 04 	sts	0x043E, r1	;  0x80043e
    2890:	10 92 40 04 	sts	0x0440, r1	;  0x800440
    2894:	41 e0       	ldi	r20, 0x01	; 1
    2896:	6d ea       	ldi	r22, 0xAD	; 173
    2898:	76 e0       	ldi	r23, 0x06	; 6
    289a:	12 cc       	rjmp	.-2012   	;  0x20c0
    289c:	90 e0       	ldi	r25, 0x00	; 0
    289e:	80 e0       	ldi	r24, 0x00	; 0
    28a0:	61 cf       	rjmp	.-318    	;  0x2764
    28a2:	81 e0       	ldi	r24, 0x01	; 1
    28a4:	90 e0       	ldi	r25, 0x00	; 0
    28a6:	5e cf       	rjmp	.-324    	;  0x2764
    28a8:	82 e0       	ldi	r24, 0x02	; 2
    28aa:	90 e0       	ldi	r25, 0x00	; 0
    28ac:	5b cf       	rjmp	.-330    	;  0x2764
    28ae:	83 e0       	ldi	r24, 0x03	; 3
    28b0:	90 e0       	ldi	r25, 0x00	; 0
    28b2:	58 cf       	rjmp	.-336    	;  0x2764
    28b4:	90 e0       	ldi	r25, 0x00	; 0
    28b6:	80 e0       	ldi	r24, 0x00	; 0
    28b8:	5e cf       	rjmp	.-324    	;  0x2776
    28ba:	80 e6       	ldi	r24, 0x60	; 96
    28bc:	91 e0       	ldi	r25, 0x01	; 1
    28be:	90 93 00 05 	sts	0x0500, r25	;  0x800500
    28c2:	80 93 ff 04 	sts	0x04FF, r24	;  0x8004ff
    28c6:	80 91 0c 02 	lds	r24, 0x020C	;  0x80020c
    28ca:	90 91 0d 02 	lds	r25, 0x020D	;  0x80020d
    28ce:	8f 5f       	subi	r24, 0xFF	; 255
    28d0:	94 40       	sbci	r25, 0x04	; 4
    28d2:	71 f4       	brne	.+28     	;  0x28f0
    28d4:	e0 91 12 05 	lds	r30, 0x0512	;  0x800512
    28d8:	f0 91 13 05 	lds	r31, 0x0513	;  0x800513
    28dc:	90 81       	ld	r25, Z
    28de:	80 91 14 05 	lds	r24, 0x0514	;  0x800514
    28e2:	80 95       	com	r24
    28e4:	89 23       	and	r24, r25
    28e6:	80 83       	st	Z, r24
    28e8:	10 92 0d 02 	sts	0x020D, r1	;  0x80020d
    28ec:	10 92 0c 02 	sts	0x020C, r1	;  0x80020c
    28f0:	08 95       	ret
    28f2:	8f 92       	push	r8
    28f4:	9f 92       	push	r9
    28f6:	af 92       	push	r10
    28f8:	bf 92       	push	r11
    28fa:	cf 92       	push	r12
    28fc:	df 92       	push	r13
    28fe:	ef 92       	push	r14
    2900:	ff 92       	push	r15
    2902:	cf 93       	push	r28
    2904:	df 93       	push	r29
    2906:	ec 01       	movw	r28, r24
    2908:	68 81       	ld	r22, Y
    290a:	79 81       	ldd	r23, Y+1	; 0x01
    290c:	8a 81       	ldd	r24, Y+2	; 0x02
    290e:	9b 81       	ldd	r25, Y+3	; 0x03
    2910:	61 15       	cp	r22, r1
    2912:	71 05       	cpc	r23, r1
    2914:	81 05       	cpc	r24, r1
    2916:	91 05       	cpc	r25, r1
    2918:	21 f4       	brne	.+8      	;  0x2922
    291a:	64 e2       	ldi	r22, 0x24	; 36
    291c:	79 ed       	ldi	r23, 0xD9	; 217
    291e:	8b e5       	ldi	r24, 0x5B	; 91
    2920:	97 e0       	ldi	r25, 0x07	; 7
    2922:	2d e1       	ldi	r18, 0x1D	; 29
    2924:	33 ef       	ldi	r19, 0xF3	; 243
    2926:	41 e0       	ldi	r20, 0x01	; 1
    2928:	50 e0       	ldi	r21, 0x00	; 0
    292a:	0e 94 de 14 	call	0x29bc	;  0x29bc
    292e:	49 01       	movw	r8, r18
    2930:	5a 01       	movw	r10, r20
    2932:	9b 01       	movw	r18, r22
    2934:	ac 01       	movw	r20, r24
    2936:	a7 ea       	ldi	r26, 0xA7	; 167
    2938:	b1 e4       	ldi	r27, 0x41	; 65
    293a:	0e 94 fd 14 	call	0x29fa	;  0x29fa
    293e:	6b 01       	movw	r12, r22
    2940:	7c 01       	movw	r14, r24
    2942:	ac ee       	ldi	r26, 0xEC	; 236
    2944:	b4 ef       	ldi	r27, 0xF4	; 244
    2946:	a5 01       	movw	r20, r10
    2948:	94 01       	movw	r18, r8
    294a:	0e 94 0b 15 	call	0x2a16	;  0x2a16
    294e:	dc 01       	movw	r26, r24
    2950:	cb 01       	movw	r24, r22
    2952:	8c 0d       	add	r24, r12
    2954:	9d 1d       	adc	r25, r13
    2956:	ae 1d       	adc	r26, r14
    2958:	bf 1d       	adc	r27, r15
    295a:	b7 ff       	sbrs	r27, 7
    295c:	03 c0       	rjmp	.+6      	;  0x2964
    295e:	01 97       	sbiw	r24, 0x01	; 1
    2960:	a1 09       	sbc	r26, r1
    2962:	b0 48       	sbci	r27, 0x80	; 128
    2964:	88 83       	st	Y, r24
    2966:	99 83       	std	Y+1, r25	; 0x01
    2968:	aa 83       	std	Y+2, r26	; 0x02
    296a:	bb 83       	std	Y+3, r27	; 0x03
    296c:	9f 77       	andi	r25, 0x7F	; 127
    296e:	df 91       	pop	r29
    2970:	cf 91       	pop	r28
    2972:	ff 90       	pop	r15
    2974:	ef 90       	pop	r14
    2976:	df 90       	pop	r13
    2978:	cf 90       	pop	r12
    297a:	bf 90       	pop	r11
    297c:	af 90       	pop	r10
    297e:	9f 90       	pop	r9
    2980:	8f 90       	pop	r8
    2982:	08 95       	ret
    2984:	0e 94 79 14 	call	0x28f2	;  0x28f2
    2988:	08 95       	ret
    298a:	8a e1       	ldi	r24, 0x1A	; 26
    298c:	91 e0       	ldi	r25, 0x01	; 1
    298e:	0e 94 79 14 	call	0x28f2	;  0x28f2
    2992:	08 95       	ret
    2994:	b0 e0       	ldi	r27, 0x00	; 0
    2996:	a0 e0       	ldi	r26, 0x00	; 0
    2998:	80 93 1a 01 	sts	0x011A, r24	;  0x80011a
    299c:	90 93 1b 01 	sts	0x011B, r25	;  0x80011b
    29a0:	a0 93 1c 01 	sts	0x011C, r26	;  0x80011c
    29a4:	b0 93 1d 01 	sts	0x011D, r27	;  0x80011d
    29a8:	08 95       	ret
    29aa:	fc 01       	movw	r30, r24
    29ac:	05 90       	lpm	r0, Z+
    29ae:	00 20       	and	r0, r0
    29b0:	e9 f7       	brne	.-6      	;  0x29ac
    29b2:	80 95       	com	r24
    29b4:	90 95       	com	r25
    29b6:	8e 0f       	add	r24, r30
    29b8:	9f 1f       	adc	r25, r31
    29ba:	08 95       	ret
    29bc:	05 2e       	mov	r0, r21
    29be:	97 fb       	bst	r25, 7
    29c0:	1e f4       	brtc	.+6      	;  0x29c8
    29c2:	00 94       	com	r0
    29c4:	0e 94 f5 14 	call	0x29ea	;  0x29ea
    29c8:	57 fd       	sbrc	r21, 7
    29ca:	07 d0       	rcall	.+14     	;  0x29da
    29cc:	0e 94 10 15 	call	0x2a20	;  0x2a20
    29d0:	07 fc       	sbrc	r0, 7
    29d2:	03 d0       	rcall	.+6      	;  0x29da
    29d4:	4e f4       	brtc	.+18     	;  0x29e8
    29d6:	0c 94 f5 14 	jmp	0x29ea	;  0x29ea
    29da:	50 95       	com	r21
    29dc:	40 95       	com	r20
    29de:	30 95       	com	r19
    29e0:	21 95       	neg	r18
    29e2:	3f 4f       	sbci	r19, 0xFF	; 255
    29e4:	4f 4f       	sbci	r20, 0xFF	; 255
    29e6:	5f 4f       	sbci	r21, 0xFF	; 255
    29e8:	08 95       	ret
    29ea:	90 95       	com	r25
    29ec:	80 95       	com	r24
    29ee:	70 95       	com	r23
    29f0:	61 95       	neg	r22
    29f2:	7f 4f       	sbci	r23, 0xFF	; 255
    29f4:	8f 4f       	sbci	r24, 0xFF	; 255
    29f6:	9f 4f       	sbci	r25, 0xFF	; 255
    29f8:	08 95       	ret
    29fa:	0e 94 32 15 	call	0x2a64	;  0x2a64
    29fe:	a5 9f       	mul	r26, r21
    2a00:	90 0d       	add	r25, r0
    2a02:	b4 9f       	mul	r27, r20
    2a04:	90 0d       	add	r25, r0
    2a06:	a4 9f       	mul	r26, r20
    2a08:	80 0d       	add	r24, r0
    2a0a:	91 1d       	adc	r25, r1
    2a0c:	11 24       	eor	r1, r1
    2a0e:	08 95       	ret
    2a10:	b7 ff       	sbrs	r27, 7
    2a12:	0c 94 fd 14 	jmp	0x29fa	;  0x29fa
    2a16:	0e 94 fd 14 	call	0x29fa	;  0x29fa
    2a1a:	82 1b       	sub	r24, r18
    2a1c:	93 0b       	sbc	r25, r19
    2a1e:	08 95       	ret
    2a20:	a1 e2       	ldi	r26, 0x21	; 33
    2a22:	1a 2e       	mov	r1, r26
    2a24:	aa 1b       	sub	r26, r26
    2a26:	bb 1b       	sub	r27, r27
    2a28:	fd 01       	movw	r30, r26
    2a2a:	0d c0       	rjmp	.+26     	;  0x2a46
    2a2c:	aa 1f       	adc	r26, r26
    2a2e:	bb 1f       	adc	r27, r27
    2a30:	ee 1f       	adc	r30, r30
    2a32:	ff 1f       	adc	r31, r31
    2a34:	a2 17       	cp	r26, r18
    2a36:	b3 07       	cpc	r27, r19
    2a38:	e4 07       	cpc	r30, r20
    2a3a:	f5 07       	cpc	r31, r21
    2a3c:	20 f0       	brcs	.+8      	;  0x2a46
    2a3e:	a2 1b       	sub	r26, r18
    2a40:	b3 0b       	sbc	r27, r19
    2a42:	e4 0b       	sbc	r30, r20
    2a44:	f5 0b       	sbc	r31, r21
    2a46:	66 1f       	adc	r22, r22
    2a48:	77 1f       	adc	r23, r23
    2a4a:	88 1f       	adc	r24, r24
    2a4c:	99 1f       	adc	r25, r25
    2a4e:	1a 94       	dec	r1
    2a50:	69 f7       	brne	.-38     	;  0x2a2c
    2a52:	60 95       	com	r22
    2a54:	70 95       	com	r23
    2a56:	80 95       	com	r24
    2a58:	90 95       	com	r25
    2a5a:	9b 01       	movw	r18, r22
    2a5c:	ac 01       	movw	r20, r24
    2a5e:	bd 01       	movw	r22, r26
    2a60:	cf 01       	movw	r24, r30
    2a62:	08 95       	ret
    2a64:	a2 9f       	mul	r26, r18
    2a66:	b0 01       	movw	r22, r0
    2a68:	b3 9f       	mul	r27, r19
    2a6a:	c0 01       	movw	r24, r0
    2a6c:	a3 9f       	mul	r26, r19
    2a6e:	70 0d       	add	r23, r0
    2a70:	81 1d       	adc	r24, r1
    2a72:	11 24       	eor	r1, r1
    2a74:	91 1d       	adc	r25, r1
    2a76:	b2 9f       	mul	r27, r18
    2a78:	70 0d       	add	r23, r0
    2a7a:	81 1d       	adc	r24, r1
    2a7c:	11 24       	eor	r1, r1
    2a7e:	91 1d       	adc	r25, r1
    2a80:	08 95       	ret
    2a82:	97 fb       	bst	r25, 7
    2a84:	07 2e       	mov	r0, r23
    2a86:	16 f4       	brtc	.+4      	;  0x2a8c
    2a88:	00 94       	com	r0
    2a8a:	07 d0       	rcall	.+14     	;  0x2a9a
    2a8c:	77 fd       	sbrc	r23, 7
    2a8e:	09 d0       	rcall	.+18     	;  0x2aa2
    2a90:	0e 94 55 15 	call	0x2aaa	;  0x2aaa
    2a94:	07 fc       	sbrc	r0, 7
    2a96:	05 d0       	rcall	.+10     	;  0x2aa2
    2a98:	3e f4       	brtc	.+14     	;  0x2aa8
    2a9a:	90 95       	com	r25
    2a9c:	81 95       	neg	r24
    2a9e:	9f 4f       	sbci	r25, 0xFF	; 255
    2aa0:	08 95       	ret
    2aa2:	70 95       	com	r23
    2aa4:	61 95       	neg	r22
    2aa6:	7f 4f       	sbci	r23, 0xFF	; 255
    2aa8:	08 95       	ret
    2aaa:	aa 1b       	sub	r26, r26
    2aac:	bb 1b       	sub	r27, r27
    2aae:	51 e1       	ldi	r21, 0x11	; 17
    2ab0:	07 c0       	rjmp	.+14     	;  0x2ac0
    2ab2:	aa 1f       	adc	r26, r26
    2ab4:	bb 1f       	adc	r27, r27
    2ab6:	a6 17       	cp	r26, r22
    2ab8:	b7 07       	cpc	r27, r23
    2aba:	10 f0       	brcs	.+4      	;  0x2ac0
    2abc:	a6 1b       	sub	r26, r22
    2abe:	b7 0b       	sbc	r27, r23
    2ac0:	88 1f       	adc	r24, r24
    2ac2:	99 1f       	adc	r25, r25
    2ac4:	5a 95       	dec	r21
    2ac6:	a9 f7       	brne	.-22     	;  0x2ab2
    2ac8:	80 95       	com	r24
    2aca:	90 95       	com	r25
    2acc:	bc 01       	movw	r22, r24
    2ace:	cd 01       	movw	r24, r26
    2ad0:	08 95       	ret
    2ad2:	ee 0f       	add	r30, r30
    2ad4:	ff 1f       	adc	r31, r31
    2ad6:	05 90       	lpm	r0, Z+
    2ad8:	f4 91       	lpm	r31, Z
    2ada:	e0 2d       	mov	r30, r0
    2adc:	09 94       	ijmp
    2ade:	fb 01       	movw	r30, r22
    2ae0:	dc 01       	movw	r26, r24
    2ae2:	02 c0       	rjmp	.+4      	;  0x2ae8
    2ae4:	01 90       	ld	r0, Z+
    2ae6:	0d 92       	st	X+, r0
    2ae8:	41 50       	subi	r20, 0x01	; 1
    2aea:	50 40       	sbci	r21, 0x00	; 0
    2aec:	d8 f7       	brcc	.-10     	;  0x2ae4
    2aee:	08 95       	ret
    2af0:	15 e0       	ldi	r17, 0x05	; 5
    2af2:	cb e6       	ldi	r28, 0x6B	; 107
    2af4:	d5 e0       	ldi	r29, 0x05	; 5
    2af6:	04 c0       	rjmp	.+8      	;  0x2b00
    2af8:	fe 01       	movw	r30, r28
    2afa:	0e 94 69 15 	call	0x2ad2	;  0x2ad2
    2afe:	21 96       	adiw	r28, 0x01	; 1
    2b00:	cc 36       	cpi	r28, 0x6C	; 108
    2b02:	d1 07       	cpc	r29, r17
    2b04:	c9 f7       	brne	.-14     	;  0x2af8
    2b06:	f8 94       	cli
    2b08:	ff cf       	rjmp	.-2      	;  0x2b08
    2b0a:	41 13       	cpse	r20, r17
    2b0c:	01 42       	sbci	r16, 0x21	; 33
    2b0e:	12 01       	movw	r2, r4
    2b10:	43 11       	cpse	r20, r3
    2b12:	01 44       	sbci	r16, 0x41	; 65
    2b14:	10 01       	movw	r2, r0
    2b16:	45 0f       	add	r20, r21
    2b18:	01 56       	subi	r16, 0x61	; 97
    2b1a:	0e 01       	movw	r0, r28
    2b1c:	58 02       	muls	r21, r24
    2b1e:	01 ff       	sbrs	r16, 1
    2b20:	ff ff       	.word	0xffff	; ????
    2b22:	ff ff       	.word	0xffff	; ????
    2b24:	01 00       	.word	0x0001	; ????
    2b26:	00 00       	nop
    2b28:	76 31       	cpi	r23, 0x16	; 22
    2b2a:	32 2e       	mov	r3, r18
    2b2c:	30 37       	cpi	r19, 0x70	; 112
    2b2e:	35 2d       	mov	r19, r5
    2b30:	32 30       	cpi	r19, 0x02	; 2
    2b32:	32 35       	cpi	r19, 0x52	; 82
    2b34:	30 34       	cpi	r19, 0x40	; 64
    2b36:	32 30       	cpi	r19, 0x02	; 2
    2b38:	00 41       	sbci	r16, 0x10	; 16
    2b3a:	7c 01       	movw	r14, r24
    2b3c:	42 8d       	ldd	r20, Z+26	; 0x1a
    2b3e:	01 43       	sbci	r16, 0x31	; 49
    2b40:	99 01       	movw	r18, r18
    2b42:	44 aa       	std	Z+52, r4	; 0x34
    2b44:	01 45       	sbci	r16, 0x51	; 81
    2b46:	ba 01       	movw	r22, r20
    2b48:	00 00       	nop
    2b4a:	00 00       	nop
    2b4c:	4a 08       	sbc	r4, r10
    2b4e:	aa 07       	cpc	r26, r26
    2b50:	d7 07       	cpc	r29, r23
    2b52:	97 08       	sbc	r9, r7
    2b54:	08 08       	sbc	r0, r8
    2b56:	e6 07       	cpc	r30, r22
    2b58:	fa 07       	cpc	r31, r26
    2b5a:	00 00       	nop
    2b5c:	00 00       	nop
    2b5e:	eb 0a       	sbc	r14, r27
    2b60:	aa 07       	cpc	r26, r26
    2b62:	8b 09       	sbc	r24, r11
    2b64:	8a 09       	sbc	r24, r10
    2b66:	00 00       	nop
    2b68:	00 00       	nop
    2b6a:	f7 08       	sbc	r15, r7
    2b6c:	aa 07       	cpc	r26, r26
    2b6e:	8b 09       	sbc	r24, r11
    2b70:	f6 08       	sbc	r15, r6
    2b72:	53 09       	sbc	r21, r3
    2b74:	69 09       	sbc	r22, r9
    2b76:	de 08       	sbc	r13, r14
    2b78:	0d 0a       	sbc	r0, r29
    2b7a:	00 45       	sbci	r16, 0x50	; 80
    2b7c:	78 69       	ori	r23, 0x98	; 152
    2b7e:	74 69       	ori	r23, 0x94	; 148
    2b80:	6e 67       	ori	r22, 0x7E	; 126
    2b82:	2e 2e       	mov	r2, r30
    2b84:	2e 00       	.word	0x002e	; ????
    2b86:	45 73       	andi	r20, 0x35	; 53
    2b88:	74 65       	ori	r23, 0x54	; 84
    2b8a:	62 61       	ori	r22, 0x12	; 18
    2b8c:	6e 20       	and	r6, r14
    2b8e:	64 65       	ori	r22, 0x54	; 84
    2b90:	20 53       	subi	r18, 0x30	; 48
    2b92:	6f 75       	andi	r22, 0x5F	; 95
    2b94:	7a 61       	ori	r23, 0x1A	; 26
    2b96:	00 41       	sbci	r16, 0x10	; 16
    2b98:	72 69       	ori	r23, 0x92	; 146
    2b9a:	75 73       	andi	r23, 0x35	; 53
    2b9c:	20 50       	subi	r18, 0x00	; 0
    2b9e:	65 72       	andi	r22, 0x25	; 37
    2ba0:	65 7a       	andi	r22, 0xA5	; 165
    2ba2:	00 52       	subi	r16, 0x20	; 32
    2ba4:	61 70       	andi	r22, 0x01	; 1
    2ba6:	68 61       	ori	r22, 0x18	; 24
    2ba8:	65 6c       	ori	r22, 0xC5	; 197
    2baa:	20 56       	subi	r18, 0x60	; 96
    2bac:	65 6c       	ori	r22, 0xC5	; 197
    2bae:	61 73       	andi	r22, 0x31	; 49
    2bb0:	71 65       	ori	r23, 0x51	; 81
    2bb2:	7a 00       	.word	0x007a	; ????
    2bb4:	52 61       	ori	r21, 0x12	; 18
    2bb6:	6d 6f       	ori	r22, 0xFD	; 253
    2bb8:	6e 20       	and	r6, r14
    2bba:	45 73       	andi	r20, 0x35	; 53
    2bbc:	70 65       	ori	r23, 0x50	; 80
    2bbe:	72 61       	ori	r23, 0x12	; 18
    2bc0:	6e 7a       	andi	r22, 0xAE	; 174
    2bc2:	61 00       	.word	0x0061	; ????
    2bc4:	53 6f       	ori	r21, 0xF3	; 243
    2bc6:	66 69       	ori	r22, 0x96	; 150
    2bc8:	61 20       	and	r6, r1
    2bca:	64 61       	ori	r22, 0x14	; 20
    2bcc:	20 53       	subi	r18, 0x30	; 48
    2bce:	69 6c       	ori	r22, 0xC9	; 201
    2bd0:	76 61       	ori	r23, 0x16	; 22
    2bd2:	00 00       	nop
    2bd4:	ff ff       	.word	0xffff	; ????
    2bd6:	ff ff       	.word	0xffff	; ????
    2bd8:	ff ff       	.word	0xffff	; ????
    2bda:	ff ff       	.word	0xffff	; ????
    2bdc:	ff ff       	.word	0xffff	; ????
    2bde:	ff ff       	.word	0xffff	; ????
    2be0:	ff ff       	.word	0xffff	; ????
    2be2:	ff ff       	.word	0xffff	; ????
    2be4:	ff ff       	.word	0xffff	; ????
    2be6:	ff ff       	.word	0xffff	; ????
    2be8:	ff ff       	.word	0xffff	; ????
    2bea:	ff ff       	.word	0xffff	; ????
    2bec:	ff ff       	.word	0xffff	; ????
    2bee:	ff ff       	.word	0xffff	; ????
    2bf0:	ff ff       	.word	0xffff	; ????
    2bf2:	ff ff       	.word	0xffff	; ????
    2bf4:	ff ff       	.word	0xffff	; ????
    2bf6:	ff ff       	.word	0xffff	; ????
    2bf8:	ff ff       	.word	0xffff	; ????
    2bfa:	ff ff       	.word	0xffff	; ????
    2bfc:	ff ff       	.word	0xffff	; ????
    2bfe:	ff ff       	.word	0xffff	; ????
    2c00:	ff ff       	.word	0xffff	; ????
    2c02:	ff ff       	.word	0xffff	; ????
    2c04:	ff ff       	.word	0xffff	; ????
    2c06:	ff ff       	.word	0xffff	; ????
    2c08:	ff ff       	.word	0xffff	; ????
    2c0a:	ff ff       	.word	0xffff	; ????
    2c0c:	ff ff       	.word	0xffff	; ????
    2c0e:	ff ff       	.word	0xffff	; ????
    2c10:	ff ff       	.word	0xffff	; ????
    2c12:	ff ff       	.word	0xffff	; ????
    2c14:	ff ff       	.word	0xffff	; ????
    2c16:	ff ff       	.word	0xffff	; ????
    2c18:	ff ff       	.word	0xffff	; ????
    2c1a:	ff ff       	.word	0xffff	; ????
    2c1c:	ff ff       	.word	0xffff	; ????
    2c1e:	ff ff       	.word	0xffff	; ????
    2c20:	ff ff       	.word	0xffff	; ????
    2c22:	ff ff       	.word	0xffff	; ????
    2c24:	ff ff       	.word	0xffff	; ????
    2c26:	ff ff       	.word	0xffff	; ????
    2c28:	ff ff       	.word	0xffff	; ????
    2c2a:	ff ff       	.word	0xffff	; ????
    2c2c:	ff ff       	.word	0xffff	; ????
    2c2e:	ff ff       	.word	0xffff	; ????
    2c30:	ff ff       	.word	0xffff	; ????
    2c32:	ff ff       	.word	0xffff	; ????
    2c34:	ff ff       	.word	0xffff	; ????
    2c36:	ff ff       	.word	0xffff	; ????
    2c38:	ff ff       	.word	0xffff	; ????
    2c3a:	ff ff       	.word	0xffff	; ????
    2c3c:	ff ff       	.word	0xffff	; ????
    2c3e:	ff ff       	.word	0xffff	; ????
    2c40:	ff ff       	.word	0xffff	; ????
    2c42:	ff ff       	.word	0xffff	; ????
    2c44:	ff ff       	.word	0xffff	; ????
    2c46:	ff ff       	.word	0xffff	; ????
    2c48:	ff ff       	.word	0xffff	; ????
    2c4a:	ff ff       	.word	0xffff	; ????
    2c4c:	ff ff       	.word	0xffff	; ????
    2c4e:	ff ff       	.word	0xffff	; ????
    2c50:	ff ff       	.word	0xffff	; ????
    2c52:	ff ff       	.word	0xffff	; ????
    2c54:	ff ff       	.word	0xffff	; ????
    2c56:	ff ff       	.word	0xffff	; ????
    2c58:	ff ff       	.word	0xffff	; ????
    2c5a:	ff ff       	.word	0xffff	; ????
    2c5c:	ff ff       	.word	0xffff	; ????
    2c5e:	ff ff       	.word	0xffff	; ????
    2c60:	ff ff       	.word	0xffff	; ????
    2c62:	ff ff       	.word	0xffff	; ????
    2c64:	ff ff       	.word	0xffff	; ????
    2c66:	ff ff       	.word	0xffff	; ????
    2c68:	ff ff       	.word	0xffff	; ????
    2c6a:	ff ff       	.word	0xffff	; ????
    2c6c:	ff ff       	.word	0xffff	; ????
    2c6e:	ff ff       	.word	0xffff	; ????
    2c70:	ff ff       	.word	0xffff	; ????
    2c72:	ff ff       	.word	0xffff	; ????
    2c74:	ff ff       	.word	0xffff	; ????
    2c76:	ff ff       	.word	0xffff	; ????
    2c78:	ff ff       	.word	0xffff	; ????
    2c7a:	ff ff       	.word	0xffff	; ????
    2c7c:	ff ff       	.word	0xffff	; ????
    2c7e:	ff ff       	.word	0xffff	; ????
    2c80:	ff ff       	.word	0xffff	; ????
    2c82:	ff ff       	.word	0xffff	; ????
    2c84:	ff ff       	.word	0xffff	; ????
    2c86:	ff ff       	.word	0xffff	; ????
    2c88:	ff ff       	.word	0xffff	; ????
    2c8a:	ff ff       	.word	0xffff	; ????
    2c8c:	ff ff       	.word	0xffff	; ????
    2c8e:	ff ff       	.word	0xffff	; ????
    2c90:	ff ff       	.word	0xffff	; ????
    2c92:	ff ff       	.word	0xffff	; ????
    2c94:	ff ff       	.word	0xffff	; ????
    2c96:	ff ff       	.word	0xffff	; ????
    2c98:	ff ff       	.word	0xffff	; ????
    2c9a:	ff ff       	.word	0xffff	; ????
    2c9c:	ff ff       	.word	0xffff	; ????
    2c9e:	ff ff       	.word	0xffff	; ????
    2ca0:	ff ff       	.word	0xffff	; ????
    2ca2:	ff ff       	.word	0xffff	; ????
    2ca4:	ff ff       	.word	0xffff	; ????
    2ca6:	ff ff       	.word	0xffff	; ????
    2ca8:	ff ff       	.word	0xffff	; ????
    2caa:	ff ff       	.word	0xffff	; ????
    2cac:	ff ff       	.word	0xffff	; ????
    2cae:	ff ff       	.word	0xffff	; ????
    2cb0:	ff ff       	.word	0xffff	; ????
    2cb2:	ff ff       	.word	0xffff	; ????
    2cb4:	ff ff       	.word	0xffff	; ????
    2cb6:	ff ff       	.word	0xffff	; ????
    2cb8:	ff ff       	.word	0xffff	; ????
    2cba:	ff ff       	.word	0xffff	; ????
    2cbc:	ff ff       	.word	0xffff	; ????
    2cbe:	ff ff       	.word	0xffff	; ????
    2cc0:	ff ff       	.word	0xffff	; ????
    2cc2:	ff ff       	.word	0xffff	; ????
    2cc4:	ff ff       	.word	0xffff	; ????
    2cc6:	ff ff       	.word	0xffff	; ????
    2cc8:	ff ff       	.word	0xffff	; ????
    2cca:	ff ff       	.word	0xffff	; ????
    2ccc:	ff ff       	.word	0xffff	; ????
    2cce:	ff ff       	.word	0xffff	; ????
    2cd0:	ff ff       	.word	0xffff	; ????
    2cd2:	ff ff       	.word	0xffff	; ????
    2cd4:	ff ff       	.word	0xffff	; ????
    2cd6:	ff ff       	.word	0xffff	; ????
    2cd8:	ff ff       	.word	0xffff	; ????
    2cda:	ff ff       	.word	0xffff	; ????
    2cdc:	ff ff       	.word	0xffff	; ????
    2cde:	ff ff       	.word	0xffff	; ????
    2ce0:	ff ff       	.word	0xffff	; ????
    2ce2:	ff ff       	.word	0xffff	; ????
    2ce4:	ff ff       	.word	0xffff	; ????
    2ce6:	ff ff       	.word	0xffff	; ????
    2ce8:	ff ff       	.word	0xffff	; ????
    2cea:	ff ff       	.word	0xffff	; ????
    2cec:	ff ff       	.word	0xffff	; ????
    2cee:	ff ff       	.word	0xffff	; ????
    2cf0:	ff ff       	.word	0xffff	; ????
    2cf2:	ff ff       	.word	0xffff	; ????
    2cf4:	ff ff       	.word	0xffff	; ????
    2cf6:	ff ff       	.word	0xffff	; ????
    2cf8:	ff ff       	.word	0xffff	; ????
    2cfa:	ff ff       	.word	0xffff	; ????
    2cfc:	ff ff       	.word	0xffff	; ????
    2cfe:	ff ff       	.word	0xffff	; ????
    2d00:	ff ff       	.word	0xffff	; ????
    2d02:	ff ff       	.word	0xffff	; ????
    2d04:	ff ff       	.word	0xffff	; ????
    2d06:	ff ff       	.word	0xffff	; ????
    2d08:	ff ff       	.word	0xffff	; ????
    2d0a:	ff ff       	.word	0xffff	; ????
    2d0c:	ff ff       	.word	0xffff	; ????
    2d0e:	ff ff       	.word	0xffff	; ????
    2d10:	ff ff       	.word	0xffff	; ????
    2d12:	ff ff       	.word	0xffff	; ????
    2d14:	ff ff       	.word	0xffff	; ????
    2d16:	ff ff       	.word	0xffff	; ????
    2d18:	ff ff       	.word	0xffff	; ????
    2d1a:	ff ff       	.word	0xffff	; ????
    2d1c:	ff ff       	.word	0xffff	; ????
    2d1e:	ff ff       	.word	0xffff	; ????
    2d20:	ff ff       	.word	0xffff	; ????
    2d22:	ff ff       	.word	0xffff	; ????
    2d24:	ff ff       	.word	0xffff	; ????
    2d26:	ff ff       	.word	0xffff	; ????
    2d28:	ff ff       	.word	0xffff	; ????
    2d2a:	ff ff       	.word	0xffff	; ????
    2d2c:	ff ff       	.word	0xffff	; ????
    2d2e:	ff ff       	.word	0xffff	; ????
    2d30:	ff ff       	.word	0xffff	; ????
    2d32:	ff ff       	.word	0xffff	; ????
    2d34:	ff ff       	.word	0xffff	; ????
    2d36:	ff ff       	.word	0xffff	; ????
    2d38:	ff ff       	.word	0xffff	; ????
    2d3a:	ff ff       	.word	0xffff	; ????
    2d3c:	ff ff       	.word	0xffff	; ????
    2d3e:	ff ff       	.word	0xffff	; ????
    2d40:	ff ff       	.word	0xffff	; ????
    2d42:	ff ff       	.word	0xffff	; ????
    2d44:	ff ff       	.word	0xffff	; ????
    2d46:	ff ff       	.word	0xffff	; ????
    2d48:	ff ff       	.word	0xffff	; ????
    2d4a:	ff ff       	.word	0xffff	; ????
    2d4c:	ff ff       	.word	0xffff	; ????
    2d4e:	ff ff       	.word	0xffff	; ????
    2d50:	ff ff       	.word	0xffff	; ????
    2d52:	ff ff       	.word	0xffff	; ????
    2d54:	ff ff       	.word	0xffff	; ????
    2d56:	ff ff       	.word	0xffff	; ????
    2d58:	ff ff       	.word	0xffff	; ????
    2d5a:	ff ff       	.word	0xffff	; ????
    2d5c:	ff ff       	.word	0xffff	; ????
    2d5e:	ff ff       	.word	0xffff	; ????
    2d60:	ff ff       	.word	0xffff	; ????
    2d62:	ff ff       	.word	0xffff	; ????
    2d64:	ff ff       	.word	0xffff	; ????
    2d66:	ff ff       	.word	0xffff	; ????
    2d68:	ff ff       	.word	0xffff	; ????
    2d6a:	ff ff       	.word	0xffff	; ????
    2d6c:	ff ff       	.word	0xffff	; ????
    2d6e:	ff ff       	.word	0xffff	; ????
    2d70:	ff ff       	.word	0xffff	; ????
    2d72:	ff ff       	.word	0xffff	; ????
    2d74:	ff ff       	.word	0xffff	; ????
    2d76:	ff ff       	.word	0xffff	; ????
    2d78:	ff ff       	.word	0xffff	; ????
    2d7a:	ff ff       	.word	0xffff	; ????
    2d7c:	ff ff       	.word	0xffff	; ????
    2d7e:	ff ff       	.word	0xffff	; ????
    2d80:	ff ff       	.word	0xffff	; ????
    2d82:	ff ff       	.word	0xffff	; ????
    2d84:	ff ff       	.word	0xffff	; ????
    2d86:	ff ff       	.word	0xffff	; ????
    2d88:	ff ff       	.word	0xffff	; ????
    2d8a:	ff ff       	.word	0xffff	; ????
    2d8c:	ff ff       	.word	0xffff	; ????
    2d8e:	ff ff       	.word	0xffff	; ????
    2d90:	ff ff       	.word	0xffff	; ????
    2d92:	ff ff       	.word	0xffff	; ????
    2d94:	ff ff       	.word	0xffff	; ????
    2d96:	ff ff       	.word	0xffff	; ????
    2d98:	ff ff       	.word	0xffff	; ????
    2d9a:	ff ff       	.word	0xffff	; ????
    2d9c:	ff ff       	.word	0xffff	; ????
    2d9e:	ff ff       	.word	0xffff	; ????
    2da0:	ff ff       	.word	0xffff	; ????
    2da2:	ff ff       	.word	0xffff	; ????
    2da4:	ff ff       	.word	0xffff	; ????
    2da6:	ff ff       	.word	0xffff	; ????
    2da8:	ff ff       	.word	0xffff	; ????
    2daa:	ff ff       	.word	0xffff	; ????
    2dac:	ff ff       	.word	0xffff	; ????
    2dae:	ff ff       	.word	0xffff	; ????
    2db0:	ff ff       	.word	0xffff	; ????
    2db2:	ff ff       	.word	0xffff	; ????
    2db4:	ff ff       	.word	0xffff	; ????
    2db6:	ff ff       	.word	0xffff	; ????
    2db8:	ff ff       	.word	0xffff	; ????
    2dba:	ff ff       	.word	0xffff	; ????
    2dbc:	ff ff       	.word	0xffff	; ????
    2dbe:	ff ff       	.word	0xffff	; ????
    2dc0:	ff ff       	.word	0xffff	; ????
    2dc2:	ff ff       	.word	0xffff	; ????
    2dc4:	ff ff       	.word	0xffff	; ????
    2dc6:	ff ff       	.word	0xffff	; ????
    2dc8:	ff ff       	.word	0xffff	; ????
    2dca:	ff ff       	.word	0xffff	; ????
    2dcc:	ff ff       	.word	0xffff	; ????
    2dce:	ff ff       	.word	0xffff	; ????
    2dd0:	ff ff       	.word	0xffff	; ????
    2dd2:	ff ff       	.word	0xffff	; ????
    2dd4:	ff ff       	.word	0xffff	; ????
    2dd6:	ff ff       	.word	0xffff	; ????
    2dd8:	ff ff       	.word	0xffff	; ????
    2dda:	ff ff       	.word	0xffff	; ????
    2ddc:	ff ff       	.word	0xffff	; ????
    2dde:	ff ff       	.word	0xffff	; ????
    2de0:	ff ff       	.word	0xffff	; ????
    2de2:	ff ff       	.word	0xffff	; ????
    2de4:	ff ff       	.word	0xffff	; ????
    2de6:	ff ff       	.word	0xffff	; ????
    2de8:	ff ff       	.word	0xffff	; ????
    2dea:	ff ff       	.word	0xffff	; ????
    2dec:	ff ff       	.word	0xffff	; ????
    2dee:	ff ff       	.word	0xffff	; ????
    2df0:	ff ff       	.word	0xffff	; ????
    2df2:	ff ff       	.word	0xffff	; ????
    2df4:	ff ff       	.word	0xffff	; ????
    2df6:	ff ff       	.word	0xffff	; ????
    2df8:	ff ff       	.word	0xffff	; ????
    2dfa:	ff ff       	.word	0xffff	; ????
    2dfc:	ff ff       	.word	0xffff	; ????
    2dfe:	ff ff       	.word	0xffff	; ????
    2e00:	ff ff       	.word	0xffff	; ????
    2e02:	ff ff       	.word	0xffff	; ????
    2e04:	ff ff       	.word	0xffff	; ????
    2e06:	ff ff       	.word	0xffff	; ????
    2e08:	ff ff       	.word	0xffff	; ????
    2e0a:	ff ff       	.word	0xffff	; ????
    2e0c:	ff ff       	.word	0xffff	; ????
    2e0e:	ff ff       	.word	0xffff	; ????
    2e10:	ff ff       	.word	0xffff	; ????
    2e12:	ff ff       	.word	0xffff	; ????
    2e14:	ff ff       	.word	0xffff	; ????
    2e16:	ff ff       	.word	0xffff	; ????
    2e18:	ff ff       	.word	0xffff	; ????
    2e1a:	ff ff       	.word	0xffff	; ????
    2e1c:	ff ff       	.word	0xffff	; ????
    2e1e:	ff ff       	.word	0xffff	; ????
    2e20:	ff ff       	.word	0xffff	; ????
    2e22:	ff ff       	.word	0xffff	; ????
    2e24:	ff ff       	.word	0xffff	; ????
    2e26:	ff ff       	.word	0xffff	; ????
    2e28:	ff ff       	.word	0xffff	; ????
    2e2a:	ff ff       	.word	0xffff	; ????
    2e2c:	ff ff       	.word	0xffff	; ????
    2e2e:	ff ff       	.word	0xffff	; ????
    2e30:	ff ff       	.word	0xffff	; ????
    2e32:	ff ff       	.word	0xffff	; ????
    2e34:	ff ff       	.word	0xffff	; ????
    2e36:	ff ff       	.word	0xffff	; ????
    2e38:	ff ff       	.word	0xffff	; ????
    2e3a:	ff ff       	.word	0xffff	; ????
    2e3c:	ff ff       	.word	0xffff	; ????
    2e3e:	ff ff       	.word	0xffff	; ????
    2e40:	ff ff       	.word	0xffff	; ????
    2e42:	ff ff       	.word	0xffff	; ????
    2e44:	ff ff       	.word	0xffff	; ????
    2e46:	ff ff       	.word	0xffff	; ????
    2e48:	ff ff       	.word	0xffff	; ????
    2e4a:	ff ff       	.word	0xffff	; ????
    2e4c:	ff ff       	.word	0xffff	; ????
    2e4e:	ff ff       	.word	0xffff	; ????
    2e50:	ff ff       	.word	0xffff	; ????
    2e52:	ff ff       	.word	0xffff	; ????
    2e54:	ff ff       	.word	0xffff	; ????
    2e56:	ff ff       	.word	0xffff	; ????
    2e58:	ff ff       	.word	0xffff	; ????
    2e5a:	ff ff       	.word	0xffff	; ????
    2e5c:	ff ff       	.word	0xffff	; ????
    2e5e:	ff ff       	.word	0xffff	; ????
    2e60:	ff ff       	.word	0xffff	; ????
    2e62:	ff ff       	.word	0xffff	; ????
    2e64:	ff ff       	.word	0xffff	; ????
    2e66:	ff ff       	.word	0xffff	; ????
    2e68:	ff ff       	.word	0xffff	; ????
    2e6a:	ff ff       	.word	0xffff	; ????
    2e6c:	ff ff       	.word	0xffff	; ????
    2e6e:	ff ff       	.word	0xffff	; ????
    2e70:	ff ff       	.word	0xffff	; ????
    2e72:	ff ff       	.word	0xffff	; ????
    2e74:	ff ff       	.word	0xffff	; ????
    2e76:	ff ff       	.word	0xffff	; ????
    2e78:	ff ff       	.word	0xffff	; ????
    2e7a:	ff ff       	.word	0xffff	; ????
    2e7c:	ff ff       	.word	0xffff	; ????
    2e7e:	ff ff       	.word	0xffff	; ????
    2e80:	ff ff       	.word	0xffff	; ????
    2e82:	ff ff       	.word	0xffff	; ????
    2e84:	ff ff       	.word	0xffff	; ????
    2e86:	ff ff       	.word	0xffff	; ????
    2e88:	ff ff       	.word	0xffff	; ????
    2e8a:	ff ff       	.word	0xffff	; ????
    2e8c:	ff ff       	.word	0xffff	; ????
    2e8e:	ff ff       	.word	0xffff	; ????
    2e90:	ff ff       	.word	0xffff	; ????
    2e92:	ff ff       	.word	0xffff	; ????
    2e94:	ff ff       	.word	0xffff	; ????
    2e96:	ff ff       	.word	0xffff	; ????
    2e98:	ff ff       	.word	0xffff	; ????
    2e9a:	ff ff       	.word	0xffff	; ????
    2e9c:	ff ff       	.word	0xffff	; ????
    2e9e:	ff ff       	.word	0xffff	; ????
    2ea0:	ff ff       	.word	0xffff	; ????
    2ea2:	ff ff       	.word	0xffff	; ????
    2ea4:	ff ff       	.word	0xffff	; ????
    2ea6:	ff ff       	.word	0xffff	; ????
    2ea8:	ff ff       	.word	0xffff	; ????
    2eaa:	ff ff       	.word	0xffff	; ????
    2eac:	ff ff       	.word	0xffff	; ????
    2eae:	ff ff       	.word	0xffff	; ????
    2eb0:	ff ff       	.word	0xffff	; ????
    2eb2:	ff ff       	.word	0xffff	; ????
    2eb4:	ff ff       	.word	0xffff	; ????
    2eb6:	ff ff       	.word	0xffff	; ????
    2eb8:	ff ff       	.word	0xffff	; ????
    2eba:	ff ff       	.word	0xffff	; ????
    2ebc:	ff ff       	.word	0xffff	; ????
    2ebe:	ff ff       	.word	0xffff	; ????
    2ec0:	ff ff       	.word	0xffff	; ????
    2ec2:	ff ff       	.word	0xffff	; ????
    2ec4:	ff ff       	.word	0xffff	; ????
    2ec6:	ff ff       	.word	0xffff	; ????
    2ec8:	ff ff       	.word	0xffff	; ????
    2eca:	ff ff       	.word	0xffff	; ????
    2ecc:	ff ff       	.word	0xffff	; ????
    2ece:	ff ff       	.word	0xffff	; ????
    2ed0:	ff ff       	.word	0xffff	; ????
    2ed2:	ff ff       	.word	0xffff	; ????
    2ed4:	ff ff       	.word	0xffff	; ????
    2ed6:	ff ff       	.word	0xffff	; ????
    2ed8:	ff ff       	.word	0xffff	; ????
    2eda:	ff ff       	.word	0xffff	; ????
    2edc:	ff ff       	.word	0xffff	; ????
    2ede:	ff ff       	.word	0xffff	; ????
    2ee0:	ff ff       	.word	0xffff	; ????
    2ee2:	ff ff       	.word	0xffff	; ????
    2ee4:	ff ff       	.word	0xffff	; ????
    2ee6:	ff ff       	.word	0xffff	; ????
    2ee8:	ff ff       	.word	0xffff	; ????
    2eea:	ff ff       	.word	0xffff	; ????
    2eec:	ff ff       	.word	0xffff	; ????
    2eee:	ff ff       	.word	0xffff	; ????
    2ef0:	ff ff       	.word	0xffff	; ????
    2ef2:	ff ff       	.word	0xffff	; ????
    2ef4:	ff ff       	.word	0xffff	; ????
    2ef6:	ff ff       	.word	0xffff	; ????
    2ef8:	ff ff       	.word	0xffff	; ????
    2efa:	ff ff       	.word	0xffff	; ????
    2efc:	ff ff       	.word	0xffff	; ????
    2efe:	ff ff       	.word	0xffff	; ????
    2f00:	ff ff       	.word	0xffff	; ????
    2f02:	ff ff       	.word	0xffff	; ????
    2f04:	ff ff       	.word	0xffff	; ????
    2f06:	ff ff       	.word	0xffff	; ????
    2f08:	ff ff       	.word	0xffff	; ????
    2f0a:	ff ff       	.word	0xffff	; ????
    2f0c:	ff ff       	.word	0xffff	; ????
    2f0e:	ff ff       	.word	0xffff	; ????
    2f10:	ff ff       	.word	0xffff	; ????
    2f12:	ff ff       	.word	0xffff	; ????
    2f14:	ff ff       	.word	0xffff	; ????
    2f16:	ff ff       	.word	0xffff	; ????
    2f18:	ff ff       	.word	0xffff	; ????
    2f1a:	ff ff       	.word	0xffff	; ????
    2f1c:	ff ff       	.word	0xffff	; ????
    2f1e:	ff ff       	.word	0xffff	; ????
    2f20:	ff ff       	.word	0xffff	; ????
    2f22:	ff ff       	.word	0xffff	; ????
    2f24:	ff ff       	.word	0xffff	; ????
    2f26:	ff ff       	.word	0xffff	; ????
    2f28:	ff ff       	.word	0xffff	; ????
    2f2a:	ff ff       	.word	0xffff	; ????
    2f2c:	ff ff       	.word	0xffff	; ????
    2f2e:	ff ff       	.word	0xffff	; ????
    2f30:	ff ff       	.word	0xffff	; ????
    2f32:	ff ff       	.word	0xffff	; ????
    2f34:	ff ff       	.word	0xffff	; ????
    2f36:	ff ff       	.word	0xffff	; ????
    2f38:	ff ff       	.word	0xffff	; ????
    2f3a:	ff ff       	.word	0xffff	; ????
    2f3c:	ff ff       	.word	0xffff	; ????
    2f3e:	ff ff       	.word	0xffff	; ????
    2f40:	ff ff       	.word	0xffff	; ????
    2f42:	ff ff       	.word	0xffff	; ????
    2f44:	ff ff       	.word	0xffff	; ????
    2f46:	ff ff       	.word	0xffff	; ????
    2f48:	ff ff       	.word	0xffff	; ????
    2f4a:	ff ff       	.word	0xffff	; ????
    2f4c:	ff ff       	.word	0xffff	; ????
    2f4e:	ff ff       	.word	0xffff	; ????
    2f50:	ff ff       	.word	0xffff	; ????
    2f52:	ff ff       	.word	0xffff	; ????
    2f54:	ff ff       	.word	0xffff	; ????
    2f56:	ff ff       	.word	0xffff	; ????
    2f58:	ff ff       	.word	0xffff	; ????
    2f5a:	ff ff       	.word	0xffff	; ????
    2f5c:	ff ff       	.word	0xffff	; ????
    2f5e:	ff ff       	.word	0xffff	; ????
    2f60:	ff ff       	.word	0xffff	; ????
    2f62:	ff ff       	.word	0xffff	; ????
    2f64:	ff ff       	.word	0xffff	; ????
    2f66:	ff ff       	.word	0xffff	; ????
    2f68:	ff ff       	.word	0xffff	; ????
    2f6a:	ff ff       	.word	0xffff	; ????
    2f6c:	ff ff       	.word	0xffff	; ????
    2f6e:	ff ff       	.word	0xffff	; ????
    2f70:	ff ff       	.word	0xffff	; ????
    2f72:	ff ff       	.word	0xffff	; ????
    2f74:	ff ff       	.word	0xffff	; ????
    2f76:	ff ff       	.word	0xffff	; ????
    2f78:	ff ff       	.word	0xffff	; ????
    2f7a:	ff ff       	.word	0xffff	; ????
    2f7c:	ff ff       	.word	0xffff	; ????
    2f7e:	ff ff       	.word	0xffff	; ????
    2f80:	ff ff       	.word	0xffff	; ????
    2f82:	ff ff       	.word	0xffff	; ????
    2f84:	ff ff       	.word	0xffff	; ????
    2f86:	ff ff       	.word	0xffff	; ????
    2f88:	ff ff       	.word	0xffff	; ????
    2f8a:	ff ff       	.word	0xffff	; ????
    2f8c:	ff ff       	.word	0xffff	; ????
    2f8e:	ff ff       	.word	0xffff	; ????
    2f90:	ff ff       	.word	0xffff	; ????
    2f92:	ff ff       	.word	0xffff	; ????
    2f94:	ff ff       	.word	0xffff	; ????
    2f96:	ff ff       	.word	0xffff	; ????
    2f98:	ff ff       	.word	0xffff	; ????
    2f9a:	ff ff       	.word	0xffff	; ????
    2f9c:	ff ff       	.word	0xffff	; ????
    2f9e:	ff ff       	.word	0xffff	; ????
    2fa0:	ff ff       	.word	0xffff	; ????
    2fa2:	ff ff       	.word	0xffff	; ????
    2fa4:	ff ff       	.word	0xffff	; ????
    2fa6:	ff ff       	.word	0xffff	; ????
    2fa8:	ff ff       	.word	0xffff	; ????
    2faa:	ff ff       	.word	0xffff	; ????
    2fac:	ff ff       	.word	0xffff	; ????
    2fae:	ff ff       	.word	0xffff	; ????
    2fb0:	ff ff       	.word	0xffff	; ????
    2fb2:	ff ff       	.word	0xffff	; ????
    2fb4:	ff ff       	.word	0xffff	; ????
    2fb6:	ff ff       	.word	0xffff	; ????
    2fb8:	ff ff       	.word	0xffff	; ????
    2fba:	ff ff       	.word	0xffff	; ????
    2fbc:	ff ff       	.word	0xffff	; ????
    2fbe:	ff ff       	.word	0xffff	; ????
    2fc0:	ff ff       	.word	0xffff	; ????
    2fc2:	ff ff       	.word	0xffff	; ????
    2fc4:	ff ff       	.word	0xffff	; ????
    2fc6:	ff ff       	.word	0xffff	; ????
    2fc8:	ff ff       	.word	0xffff	; ????
    2fca:	ff ff       	.word	0xffff	; ????
    2fcc:	ff ff       	.word	0xffff	; ????
    2fce:	ff ff       	.word	0xffff	; ????
    2fd0:	ff ff       	.word	0xffff	; ????
    2fd2:	ff ff       	.word	0xffff	; ????
    2fd4:	ff ff       	.word	0xffff	; ????
    2fd6:	ff ff       	.word	0xffff	; ????
    2fd8:	ff ff       	.word	0xffff	; ????
    2fda:	ff ff       	.word	0xffff	; ????
    2fdc:	ff ff       	.word	0xffff	; ????
    2fde:	ff ff       	.word	0xffff	; ????
    2fe0:	ff ff       	.word	0xffff	; ????
    2fe2:	ff ff       	.word	0xffff	; ????
    2fe4:	ff ff       	.word	0xffff	; ????
    2fe6:	ff ff       	.word	0xffff	; ????
    2fe8:	ff ff       	.word	0xffff	; ????
    2fea:	ff ff       	.word	0xffff	; ????
    2fec:	ff ff       	.word	0xffff	; ????
    2fee:	ff ff       	.word	0xffff	; ????
    2ff0:	ff ff       	.word	0xffff	; ????
    2ff2:	ff ff       	.word	0xffff	; ????
    2ff4:	ff ff       	.word	0xffff	; ????
    2ff6:	ff ff       	.word	0xffff	; ????
    2ff8:	ff ff       	.word	0xffff	; ????
    2ffa:	ff ff       	.word	0xffff	; ????
    2ffc:	ff ff       	.word	0xffff	; ????
    2ffe:	ff ff       	.word	0xffff	; ????
    3000:	ff ff       	.word	0xffff	; ????
    3002:	ff ff       	.word	0xffff	; ????
    3004:	ff ff       	.word	0xffff	; ????
    3006:	ff ff       	.word	0xffff	; ????
    3008:	ff ff       	.word	0xffff	; ????
    300a:	ff ff       	.word	0xffff	; ????
    300c:	ff ff       	.word	0xffff	; ????
    300e:	ff ff       	.word	0xffff	; ????
    3010:	ff ff       	.word	0xffff	; ????
    3012:	ff ff       	.word	0xffff	; ????
    3014:	ff ff       	.word	0xffff	; ????
    3016:	ff ff       	.word	0xffff	; ????
    3018:	ff ff       	.word	0xffff	; ????
    301a:	ff ff       	.word	0xffff	; ????
    301c:	ff ff       	.word	0xffff	; ????
    301e:	ff ff       	.word	0xffff	; ????
    3020:	ff ff       	.word	0xffff	; ????
    3022:	ff ff       	.word	0xffff	; ????
    3024:	ff ff       	.word	0xffff	; ????
    3026:	ff ff       	.word	0xffff	; ????
    3028:	ff ff       	.word	0xffff	; ????
    302a:	ff ff       	.word	0xffff	; ????
    302c:	ff ff       	.word	0xffff	; ????
    302e:	ff ff       	.word	0xffff	; ????
    3030:	ff ff       	.word	0xffff	; ????
    3032:	ff ff       	.word	0xffff	; ????
    3034:	ff ff       	.word	0xffff	; ????
    3036:	ff ff       	.word	0xffff	; ????
    3038:	ff ff       	.word	0xffff	; ????
    303a:	ff ff       	.word	0xffff	; ????
    303c:	ff ff       	.word	0xffff	; ????
    303e:	ff ff       	.word	0xffff	; ????
    3040:	ff ff       	.word	0xffff	; ????
    3042:	ff ff       	.word	0xffff	; ????
    3044:	ff ff       	.word	0xffff	; ????
    3046:	ff ff       	.word	0xffff	; ????
    3048:	ff ff       	.word	0xffff	; ????
    304a:	ff ff       	.word	0xffff	; ????
    304c:	ff ff       	.word	0xffff	; ????
    304e:	ff ff       	.word	0xffff	; ????
    3050:	ff ff       	.word	0xffff	; ????
    3052:	ff ff       	.word	0xffff	; ????
    3054:	ff ff       	.word	0xffff	; ????
    3056:	ff ff       	.word	0xffff	; ????
    3058:	ff ff       	.word	0xffff	; ????
    305a:	ff ff       	.word	0xffff	; ????
    305c:	ff ff       	.word	0xffff	; ????
    305e:	ff ff       	.word	0xffff	; ????
    3060:	ff ff       	.word	0xffff	; ????
    3062:	ff ff       	.word	0xffff	; ????
    3064:	ff ff       	.word	0xffff	; ????
    3066:	ff ff       	.word	0xffff	; ????
    3068:	ff ff       	.word	0xffff	; ????
    306a:	ff ff       	.word	0xffff	; ????
    306c:	ff ff       	.word	0xffff	; ????
    306e:	ff ff       	.word	0xffff	; ????
    3070:	ff ff       	.word	0xffff	; ????
    3072:	ff ff       	.word	0xffff	; ????
    3074:	ff ff       	.word	0xffff	; ????
    3076:	ff ff       	.word	0xffff	; ????
    3078:	ff ff       	.word	0xffff	; ????
    307a:	ff ff       	.word	0xffff	; ????
    307c:	ff ff       	.word	0xffff	; ????
    307e:	ff ff       	.word	0xffff	; ????
    3080:	ff ff       	.word	0xffff	; ????
    3082:	ff ff       	.word	0xffff	; ????
    3084:	ff ff       	.word	0xffff	; ????
    3086:	ff ff       	.word	0xffff	; ????
    3088:	ff ff       	.word	0xffff	; ????
    308a:	ff ff       	.word	0xffff	; ????
    308c:	ff ff       	.word	0xffff	; ????
    308e:	ff ff       	.word	0xffff	; ????
    3090:	ff ff       	.word	0xffff	; ????
    3092:	ff ff       	.word	0xffff	; ????
    3094:	ff ff       	.word	0xffff	; ????
    3096:	ff ff       	.word	0xffff	; ????
    3098:	ff ff       	.word	0xffff	; ????
    309a:	ff ff       	.word	0xffff	; ????
    309c:	ff ff       	.word	0xffff	; ????
    309e:	ff ff       	.word	0xffff	; ????
    30a0:	ff ff       	.word	0xffff	; ????
    30a2:	ff ff       	.word	0xffff	; ????
    30a4:	ff ff       	.word	0xffff	; ????
    30a6:	ff ff       	.word	0xffff	; ????
    30a8:	ff ff       	.word	0xffff	; ????
    30aa:	ff ff       	.word	0xffff	; ????
    30ac:	ff ff       	.word	0xffff	; ????
    30ae:	ff ff       	.word	0xffff	; ????
    30b0:	ff ff       	.word	0xffff	; ????
    30b2:	ff ff       	.word	0xffff	; ????
    30b4:	ff ff       	.word	0xffff	; ????
    30b6:	ff ff       	.word	0xffff	; ????
    30b8:	ff ff       	.word	0xffff	; ????
    30ba:	ff ff       	.word	0xffff	; ????
    30bc:	ff ff       	.word	0xffff	; ????
    30be:	ff ff       	.word	0xffff	; ????
    30c0:	ff ff       	.word	0xffff	; ????
    30c2:	ff ff       	.word	0xffff	; ????
    30c4:	ff ff       	.word	0xffff	; ????
    30c6:	ff ff       	.word	0xffff	; ????
    30c8:	ff ff       	.word	0xffff	; ????
    30ca:	ff ff       	.word	0xffff	; ????
    30cc:	ff ff       	.word	0xffff	; ????
    30ce:	ff ff       	.word	0xffff	; ????
    30d0:	ff ff       	.word	0xffff	; ????
    30d2:	ff ff       	.word	0xffff	; ????
    30d4:	ff ff       	.word	0xffff	; ????
    30d6:	ff ff       	.word	0xffff	; ????
    30d8:	ff ff       	.word	0xffff	; ????
    30da:	ff ff       	.word	0xffff	; ????
    30dc:	ff ff       	.word	0xffff	; ????
    30de:	ff ff       	.word	0xffff	; ????
    30e0:	ff ff       	.word	0xffff	; ????
    30e2:	ff ff       	.word	0xffff	; ????
    30e4:	ff ff       	.word	0xffff	; ????
    30e6:	ff ff       	.word	0xffff	; ????
    30e8:	ff ff       	.word	0xffff	; ????
    30ea:	ff ff       	.word	0xffff	; ????
    30ec:	ff ff       	.word	0xffff	; ????
    30ee:	ff ff       	.word	0xffff	; ????
    30f0:	ff ff       	.word	0xffff	; ????
    30f2:	ff ff       	.word	0xffff	; ????
    30f4:	ff ff       	.word	0xffff	; ????
    30f6:	ff ff       	.word	0xffff	; ????
    30f8:	ff ff       	.word	0xffff	; ????
    30fa:	ff ff       	.word	0xffff	; ????
    30fc:	ff ff       	.word	0xffff	; ????
    30fe:	ff ff       	.word	0xffff	; ????
    3100:	ff ff       	.word	0xffff	; ????
    3102:	ff ff       	.word	0xffff	; ????
    3104:	ff ff       	.word	0xffff	; ????
    3106:	ff ff       	.word	0xffff	; ????
    3108:	ff ff       	.word	0xffff	; ????
    310a:	ff ff       	.word	0xffff	; ????
    310c:	ff ff       	.word	0xffff	; ????
    310e:	ff ff       	.word	0xffff	; ????
    3110:	ff ff       	.word	0xffff	; ????
    3112:	ff ff       	.word	0xffff	; ????
    3114:	ff ff       	.word	0xffff	; ????
    3116:	ff ff       	.word	0xffff	; ????
    3118:	ff ff       	.word	0xffff	; ????
    311a:	ff ff       	.word	0xffff	; ????
    311c:	ff ff       	.word	0xffff	; ????
    311e:	ff ff       	.word	0xffff	; ????
    3120:	ff ff       	.word	0xffff	; ????
    3122:	ff ff       	.word	0xffff	; ????
    3124:	ff ff       	.word	0xffff	; ????
    3126:	ff ff       	.word	0xffff	; ????
    3128:	ff ff       	.word	0xffff	; ????
    312a:	ff ff       	.word	0xffff	; ????
    312c:	ff ff       	.word	0xffff	; ????
    312e:	ff ff       	.word	0xffff	; ????
    3130:	ff ff       	.word	0xffff	; ????
    3132:	ff ff       	.word	0xffff	; ????
    3134:	ff ff       	.word	0xffff	; ????
    3136:	ff ff       	.word	0xffff	; ????
    3138:	ff ff       	.word	0xffff	; ????
    313a:	ff ff       	.word	0xffff	; ????
    313c:	ff ff       	.word	0xffff	; ????
    313e:	ff ff       	.word	0xffff	; ????
    3140:	ff ff       	.word	0xffff	; ????
    3142:	ff ff       	.word	0xffff	; ????
    3144:	ff ff       	.word	0xffff	; ????
    3146:	ff ff       	.word	0xffff	; ????
    3148:	ff ff       	.word	0xffff	; ????
    314a:	ff ff       	.word	0xffff	; ????
    314c:	ff ff       	.word	0xffff	; ????
    314e:	ff ff       	.word	0xffff	; ????
    3150:	ff ff       	.word	0xffff	; ????
    3152:	ff ff       	.word	0xffff	; ????
    3154:	ff ff       	.word	0xffff	; ????
    3156:	ff ff       	.word	0xffff	; ????
    3158:	ff ff       	.word	0xffff	; ????
    315a:	ff ff       	.word	0xffff	; ????
    315c:	ff ff       	.word	0xffff	; ????
    315e:	ff ff       	.word	0xffff	; ????
    3160:	ff ff       	.word	0xffff	; ????
    3162:	ff ff       	.word	0xffff	; ????
    3164:	ff ff       	.word	0xffff	; ????
    3166:	ff ff       	.word	0xffff	; ????
    3168:	ff ff       	.word	0xffff	; ????
    316a:	ff ff       	.word	0xffff	; ????
    316c:	ff ff       	.word	0xffff	; ????
    316e:	ff ff       	.word	0xffff	; ????
    3170:	ff ff       	.word	0xffff	; ????
    3172:	ff ff       	.word	0xffff	; ????
    3174:	ff ff       	.word	0xffff	; ????
    3176:	ff ff       	.word	0xffff	; ????
    3178:	ff ff       	.word	0xffff	; ????
    317a:	ff ff       	.word	0xffff	; ????
    317c:	ff ff       	.word	0xffff	; ????
    317e:	ff ff       	.word	0xffff	; ????
    3180:	ff ff       	.word	0xffff	; ????
    3182:	ff ff       	.word	0xffff	; ????
    3184:	ff ff       	.word	0xffff	; ????
    3186:	ff ff       	.word	0xffff	; ????
    3188:	ff ff       	.word	0xffff	; ????
    318a:	ff ff       	.word	0xffff	; ????
    318c:	ff ff       	.word	0xffff	; ????
    318e:	ff ff       	.word	0xffff	; ????
    3190:	ff ff       	.word	0xffff	; ????
    3192:	ff ff       	.word	0xffff	; ????
    3194:	ff ff       	.word	0xffff	; ????
    3196:	ff ff       	.word	0xffff	; ????
    3198:	ff ff       	.word	0xffff	; ????
    319a:	ff ff       	.word	0xffff	; ????
    319c:	ff ff       	.word	0xffff	; ????
    319e:	ff ff       	.word	0xffff	; ????
    31a0:	ff ff       	.word	0xffff	; ????
    31a2:	ff ff       	.word	0xffff	; ????
    31a4:	ff ff       	.word	0xffff	; ????
    31a6:	ff ff       	.word	0xffff	; ????
    31a8:	ff ff       	.word	0xffff	; ????
    31aa:	ff ff       	.word	0xffff	; ????
    31ac:	ff ff       	.word	0xffff	; ????
    31ae:	ff ff       	.word	0xffff	; ????
    31b0:	ff ff       	.word	0xffff	; ????
    31b2:	ff ff       	.word	0xffff	; ????
    31b4:	ff ff       	.word	0xffff	; ????
    31b6:	ff ff       	.word	0xffff	; ????
    31b8:	ff ff       	.word	0xffff	; ????
    31ba:	ff ff       	.word	0xffff	; ????
    31bc:	ff ff       	.word	0xffff	; ????
    31be:	ff ff       	.word	0xffff	; ????
    31c0:	ff ff       	.word	0xffff	; ????
    31c2:	ff ff       	.word	0xffff	; ????
    31c4:	ff ff       	.word	0xffff	; ????
    31c6:	ff ff       	.word	0xffff	; ????
    31c8:	ff ff       	.word	0xffff	; ????
    31ca:	ff ff       	.word	0xffff	; ????
    31cc:	ff ff       	.word	0xffff	; ????
    31ce:	ff ff       	.word	0xffff	; ????
    31d0:	ff ff       	.word	0xffff	; ????
    31d2:	ff ff       	.word	0xffff	; ????
    31d4:	ff ff       	.word	0xffff	; ????
    31d6:	ff ff       	.word	0xffff	; ????
    31d8:	ff ff       	.word	0xffff	; ????
    31da:	ff ff       	.word	0xffff	; ????
    31dc:	ff ff       	.word	0xffff	; ????
    31de:	ff ff       	.word	0xffff	; ????
    31e0:	ff ff       	.word	0xffff	; ????
    31e2:	ff ff       	.word	0xffff	; ????
    31e4:	ff ff       	.word	0xffff	; ????
    31e6:	ff ff       	.word	0xffff	; ????
    31e8:	ff ff       	.word	0xffff	; ????
    31ea:	ff ff       	.word	0xffff	; ????
    31ec:	ff ff       	.word	0xffff	; ????
    31ee:	ff ff       	.word	0xffff	; ????
    31f0:	ff ff       	.word	0xffff	; ????
    31f2:	ff ff       	.word	0xffff	; ????
    31f4:	ff ff       	.word	0xffff	; ????
    31f6:	ff ff       	.word	0xffff	; ????
    31f8:	ff ff       	.word	0xffff	; ????
    31fa:	ff ff       	.word	0xffff	; ????
    31fc:	ff ff       	.word	0xffff	; ????
    31fe:	ff ff       	.word	0xffff	; ????
    3200:	ff ff       	.word	0xffff	; ????
    3202:	ff ff       	.word	0xffff	; ????
    3204:	ff ff       	.word	0xffff	; ????
    3206:	ff ff       	.word	0xffff	; ????
    3208:	ff ff       	.word	0xffff	; ????
    320a:	ff ff       	.word	0xffff	; ????
    320c:	ff ff       	.word	0xffff	; ????
    320e:	ff ff       	.word	0xffff	; ????
    3210:	ff ff       	.word	0xffff	; ????
    3212:	ff ff       	.word	0xffff	; ????
    3214:	ff ff       	.word	0xffff	; ????
    3216:	ff ff       	.word	0xffff	; ????
    3218:	ff ff       	.word	0xffff	; ????
    321a:	ff ff       	.word	0xffff	; ????
    321c:	ff ff       	.word	0xffff	; ????
    321e:	ff ff       	.word	0xffff	; ????
    3220:	ff ff       	.word	0xffff	; ????
    3222:	ff ff       	.word	0xffff	; ????
    3224:	ff ff       	.word	0xffff	; ????
    3226:	ff ff       	.word	0xffff	; ????
    3228:	ff ff       	.word	0xffff	; ????
    322a:	ff ff       	.word	0xffff	; ????
    322c:	ff ff       	.word	0xffff	; ????
    322e:	ff ff       	.word	0xffff	; ????
    3230:	ff ff       	.word	0xffff	; ????
    3232:	ff ff       	.word	0xffff	; ????
    3234:	ff ff       	.word	0xffff	; ????
    3236:	ff ff       	.word	0xffff	; ????
    3238:	ff ff       	.word	0xffff	; ????
    323a:	ff ff       	.word	0xffff	; ????
    323c:	ff ff       	.word	0xffff	; ????
    323e:	ff ff       	.word	0xffff	; ????
    3240:	ff ff       	.word	0xffff	; ????
    3242:	ff ff       	.word	0xffff	; ????
    3244:	ff ff       	.word	0xffff	; ????
    3246:	ff ff       	.word	0xffff	; ????
    3248:	ff ff       	.word	0xffff	; ????
    324a:	ff ff       	.word	0xffff	; ????
    324c:	ff ff       	.word	0xffff	; ????
    324e:	ff ff       	.word	0xffff	; ????
    3250:	ff ff       	.word	0xffff	; ????
    3252:	ff ff       	.word	0xffff	; ????
    3254:	ff ff       	.word	0xffff	; ????
    3256:	ff ff       	.word	0xffff	; ????
    3258:	ff ff       	.word	0xffff	; ????
    325a:	ff ff       	.word	0xffff	; ????
    325c:	ff ff       	.word	0xffff	; ????
    325e:	ff ff       	.word	0xffff	; ????
    3260:	ff ff       	.word	0xffff	; ????
    3262:	ff ff       	.word	0xffff	; ????
    3264:	ff ff       	.word	0xffff	; ????
    3266:	ff ff       	.word	0xffff	; ????
    3268:	ff ff       	.word	0xffff	; ????
    326a:	ff ff       	.word	0xffff	; ????
    326c:	ff ff       	.word	0xffff	; ????
    326e:	ff ff       	.word	0xffff	; ????
    3270:	ff ff       	.word	0xffff	; ????
    3272:	ff ff       	.word	0xffff	; ????
    3274:	ff ff       	.word	0xffff	; ????
    3276:	ff ff       	.word	0xffff	; ????
    3278:	ff ff       	.word	0xffff	; ????
    327a:	ff ff       	.word	0xffff	; ????
    327c:	ff ff       	.word	0xffff	; ????
    327e:	ff ff       	.word	0xffff	; ????
    3280:	ff ff       	.word	0xffff	; ????
    3282:	ff ff       	.word	0xffff	; ????
    3284:	ff ff       	.word	0xffff	; ????
    3286:	ff ff       	.word	0xffff	; ????
    3288:	ff ff       	.word	0xffff	; ????
    328a:	ff ff       	.word	0xffff	; ????
    328c:	ff ff       	.word	0xffff	; ????
    328e:	ff ff       	.word	0xffff	; ????
    3290:	ff ff       	.word	0xffff	; ????
    3292:	ff ff       	.word	0xffff	; ????
    3294:	ff ff       	.word	0xffff	; ????
    3296:	ff ff       	.word	0xffff	; ????
    3298:	ff ff       	.word	0xffff	; ????
    329a:	ff ff       	.word	0xffff	; ????
    329c:	ff ff       	.word	0xffff	; ????
    329e:	ff ff       	.word	0xffff	; ????
    32a0:	ff ff       	.word	0xffff	; ????
    32a2:	ff ff       	.word	0xffff	; ????
    32a4:	ff ff       	.word	0xffff	; ????
    32a6:	ff ff       	.word	0xffff	; ????
    32a8:	ff ff       	.word	0xffff	; ????
    32aa:	ff ff       	.word	0xffff	; ????
    32ac:	ff ff       	.word	0xffff	; ????
    32ae:	ff ff       	.word	0xffff	; ????
    32b0:	ff ff       	.word	0xffff	; ????
    32b2:	ff ff       	.word	0xffff	; ????
    32b4:	ff ff       	.word	0xffff	; ????
    32b6:	ff ff       	.word	0xffff	; ????
    32b8:	ff ff       	.word	0xffff	; ????
    32ba:	ff ff       	.word	0xffff	; ????
    32bc:	ff ff       	.word	0xffff	; ????
    32be:	ff ff       	.word	0xffff	; ????
    32c0:	ff ff       	.word	0xffff	; ????
    32c2:	ff ff       	.word	0xffff	; ????
    32c4:	ff ff       	.word	0xffff	; ????
    32c6:	ff ff       	.word	0xffff	; ????
    32c8:	ff ff       	.word	0xffff	; ????
    32ca:	ff ff       	.word	0xffff	; ????
    32cc:	ff ff       	.word	0xffff	; ????
    32ce:	ff ff       	.word	0xffff	; ????
    32d0:	ff ff       	.word	0xffff	; ????
    32d2:	ff ff       	.word	0xffff	; ????
    32d4:	ff ff       	.word	0xffff	; ????
    32d6:	ff ff       	.word	0xffff	; ????
    32d8:	ff ff       	.word	0xffff	; ????
    32da:	ff ff       	.word	0xffff	; ????
    32dc:	ff ff       	.word	0xffff	; ????
    32de:	ff ff       	.word	0xffff	; ????
    32e0:	ff ff       	.word	0xffff	; ????
    32e2:	ff ff       	.word	0xffff	; ????
    32e4:	ff ff       	.word	0xffff	; ????
    32e6:	ff ff       	.word	0xffff	; ????
    32e8:	ff ff       	.word	0xffff	; ????
    32ea:	ff ff       	.word	0xffff	; ????
    32ec:	ff ff       	.word	0xffff	; ????
    32ee:	ff ff       	.word	0xffff	; ????
    32f0:	ff ff       	.word	0xffff	; ????
    32f2:	ff ff       	.word	0xffff	; ????
    32f4:	ff ff       	.word	0xffff	; ????
    32f6:	ff ff       	.word	0xffff	; ????
    32f8:	ff ff       	.word	0xffff	; ????
    32fa:	ff ff       	.word	0xffff	; ????
    32fc:	ff ff       	.word	0xffff	; ????
    32fe:	ff ff       	.word	0xffff	; ????
    3300:	ff ff       	.word	0xffff	; ????
    3302:	ff ff       	.word	0xffff	; ????
    3304:	ff ff       	.word	0xffff	; ????
    3306:	ff ff       	.word	0xffff	; ????
    3308:	ff ff       	.word	0xffff	; ????
    330a:	ff ff       	.word	0xffff	; ????
    330c:	ff ff       	.word	0xffff	; ????
    330e:	ff ff       	.word	0xffff	; ????
    3310:	ff ff       	.word	0xffff	; ????
    3312:	ff ff       	.word	0xffff	; ????
    3314:	ff ff       	.word	0xffff	; ????
    3316:	ff ff       	.word	0xffff	; ????
    3318:	ff ff       	.word	0xffff	; ????
    331a:	ff ff       	.word	0xffff	; ????
    331c:	ff ff       	.word	0xffff	; ????
    331e:	ff ff       	.word	0xffff	; ????
    3320:	ff ff       	.word	0xffff	; ????
    3322:	ff ff       	.word	0xffff	; ????
    3324:	ff ff       	.word	0xffff	; ????
    3326:	ff ff       	.word	0xffff	; ????
    3328:	ff ff       	.word	0xffff	; ????
    332a:	ff ff       	.word	0xffff	; ????
    332c:	ff ff       	.word	0xffff	; ????
    332e:	ff ff       	.word	0xffff	; ????
    3330:	ff ff       	.word	0xffff	; ????
    3332:	ff ff       	.word	0xffff	; ????
    3334:	ff ff       	.word	0xffff	; ????
    3336:	ff ff       	.word	0xffff	; ????
    3338:	ff ff       	.word	0xffff	; ????
    333a:	ff ff       	.word	0xffff	; ????
    333c:	ff ff       	.word	0xffff	; ????
    333e:	ff ff       	.word	0xffff	; ????
    3340:	ff ff       	.word	0xffff	; ????
    3342:	ff ff       	.word	0xffff	; ????
    3344:	ff ff       	.word	0xffff	; ????
    3346:	ff ff       	.word	0xffff	; ????
    3348:	ff ff       	.word	0xffff	; ????
    334a:	ff ff       	.word	0xffff	; ????
    334c:	ff ff       	.word	0xffff	; ????
    334e:	ff ff       	.word	0xffff	; ????
    3350:	ff ff       	.word	0xffff	; ????
    3352:	ff ff       	.word	0xffff	; ????
    3354:	ff ff       	.word	0xffff	; ????
    3356:	ff ff       	.word	0xffff	; ????
    3358:	ff ff       	.word	0xffff	; ????
    335a:	ff ff       	.word	0xffff	; ????
    335c:	ff ff       	.word	0xffff	; ????
    335e:	ff ff       	.word	0xffff	; ????
    3360:	ff ff       	.word	0xffff	; ????
    3362:	ff ff       	.word	0xffff	; ????
    3364:	ff ff       	.word	0xffff	; ????
    3366:	ff ff       	.word	0xffff	; ????
    3368:	ff ff       	.word	0xffff	; ????
    336a:	ff ff       	.word	0xffff	; ????
    336c:	ff ff       	.word	0xffff	; ????
    336e:	ff ff       	.word	0xffff	; ????
    3370:	ff ff       	.word	0xffff	; ????
    3372:	ff ff       	.word	0xffff	; ????
    3374:	ff ff       	.word	0xffff	; ????
    3376:	ff ff       	.word	0xffff	; ????
    3378:	ff ff       	.word	0xffff	; ????
    337a:	ff ff       	.word	0xffff	; ????
    337c:	ff ff       	.word	0xffff	; ????
    337e:	ff ff       	.word	0xffff	; ????
    3380:	ff ff       	.word	0xffff	; ????
    3382:	ff ff       	.word	0xffff	; ????
    3384:	ff ff       	.word	0xffff	; ????
    3386:	ff ff       	.word	0xffff	; ????
    3388:	ff ff       	.word	0xffff	; ????
    338a:	ff ff       	.word	0xffff	; ????
    338c:	ff ff       	.word	0xffff	; ????
    338e:	ff ff       	.word	0xffff	; ????
    3390:	ff ff       	.word	0xffff	; ????
    3392:	ff ff       	.word	0xffff	; ????
    3394:	ff ff       	.word	0xffff	; ????
    3396:	ff ff       	.word	0xffff	; ????
    3398:	ff ff       	.word	0xffff	; ????
    339a:	ff ff       	.word	0xffff	; ????
    339c:	ff ff       	.word	0xffff	; ????
    339e:	ff ff       	.word	0xffff	; ????
    33a0:	ff ff       	.word	0xffff	; ????
    33a2:	ff ff       	.word	0xffff	; ????
    33a4:	ff ff       	.word	0xffff	; ????
    33a6:	ff ff       	.word	0xffff	; ????
    33a8:	ff ff       	.word	0xffff	; ????
    33aa:	ff ff       	.word	0xffff	; ????
    33ac:	ff ff       	.word	0xffff	; ????
    33ae:	ff ff       	.word	0xffff	; ????
    33b0:	ff ff       	.word	0xffff	; ????
    33b2:	ff ff       	.word	0xffff	; ????
    33b4:	ff ff       	.word	0xffff	; ????
    33b6:	ff ff       	.word	0xffff	; ????
    33b8:	ff ff       	.word	0xffff	; ????
    33ba:	ff ff       	.word	0xffff	; ????
    33bc:	ff ff       	.word	0xffff	; ????
    33be:	ff ff       	.word	0xffff	; ????
    33c0:	ff ff       	.word	0xffff	; ????
    33c2:	ff ff       	.word	0xffff	; ????
    33c4:	ff ff       	.word	0xffff	; ????
    33c6:	ff ff       	.word	0xffff	; ????
    33c8:	ff ff       	.word	0xffff	; ????
    33ca:	ff ff       	.word	0xffff	; ????
    33cc:	ff ff       	.word	0xffff	; ????
    33ce:	ff ff       	.word	0xffff	; ????
    33d0:	ff ff       	.word	0xffff	; ????
    33d2:	ff ff       	.word	0xffff	; ????
    33d4:	ff ff       	.word	0xffff	; ????
    33d6:	ff ff       	.word	0xffff	; ????
    33d8:	ff ff       	.word	0xffff	; ????
    33da:	ff ff       	.word	0xffff	; ????
    33dc:	ff ff       	.word	0xffff	; ????
    33de:	ff ff       	.word	0xffff	; ????
    33e0:	ff ff       	.word	0xffff	; ????
    33e2:	ff ff       	.word	0xffff	; ????
    33e4:	ff ff       	.word	0xffff	; ????
    33e6:	ff ff       	.word	0xffff	; ????
    33e8:	ff ff       	.word	0xffff	; ????
    33ea:	ff ff       	.word	0xffff	; ????
    33ec:	ff ff       	.word	0xffff	; ????
    33ee:	ff ff       	.word	0xffff	; ????
    33f0:	ff ff       	.word	0xffff	; ????
    33f2:	ff ff       	.word	0xffff	; ????
    33f4:	ff ff       	.word	0xffff	; ????
    33f6:	ff ff       	.word	0xffff	; ????
    33f8:	ff ff       	.word	0xffff	; ????
    33fa:	ff ff       	.word	0xffff	; ????
    33fc:	ff ff       	.word	0xffff	; ????
    33fe:	ff ff       	.word	0xffff	; ????
    3400:	ff ff       	.word	0xffff	; ????
    3402:	ff ff       	.word	0xffff	; ????
    3404:	ff ff       	.word	0xffff	; ????
    3406:	ff ff       	.word	0xffff	; ????
    3408:	ff ff       	.word	0xffff	; ????
    340a:	ff ff       	.word	0xffff	; ????
    340c:	ff ff       	.word	0xffff	; ????
    340e:	ff ff       	.word	0xffff	; ????
    3410:	ff ff       	.word	0xffff	; ????
    3412:	ff ff       	.word	0xffff	; ????
    3414:	ff ff       	.word	0xffff	; ????
    3416:	ff ff       	.word	0xffff	; ????
    3418:	ff ff       	.word	0xffff	; ????
    341a:	ff ff       	.word	0xffff	; ????
    341c:	ff ff       	.word	0xffff	; ????
    341e:	ff ff       	.word	0xffff	; ????
    3420:	ff ff       	.word	0xffff	; ????
    3422:	ff ff       	.word	0xffff	; ????
    3424:	ff ff       	.word	0xffff	; ????
    3426:	ff ff       	.word	0xffff	; ????
    3428:	ff ff       	.word	0xffff	; ????
    342a:	ff ff       	.word	0xffff	; ????
    342c:	ff ff       	.word	0xffff	; ????
    342e:	ff ff       	.word	0xffff	; ????
    3430:	ff ff       	.word	0xffff	; ????
    3432:	ff ff       	.word	0xffff	; ????
    3434:	ff ff       	.word	0xffff	; ????
    3436:	ff ff       	.word	0xffff	; ????
    3438:	ff ff       	.word	0xffff	; ????
    343a:	ff ff       	.word	0xffff	; ????
    343c:	ff ff       	.word	0xffff	; ????
    343e:	ff ff       	.word	0xffff	; ????
    3440:	ff ff       	.word	0xffff	; ????
    3442:	ff ff       	.word	0xffff	; ????
    3444:	ff ff       	.word	0xffff	; ????
    3446:	ff ff       	.word	0xffff	; ????
    3448:	ff ff       	.word	0xffff	; ????
    344a:	ff ff       	.word	0xffff	; ????
    344c:	ff ff       	.word	0xffff	; ????
    344e:	ff ff       	.word	0xffff	; ????
    3450:	ff ff       	.word	0xffff	; ????
    3452:	ff ff       	.word	0xffff	; ????
    3454:	ff ff       	.word	0xffff	; ????
    3456:	ff ff       	.word	0xffff	; ????
    3458:	ff ff       	.word	0xffff	; ????
    345a:	ff ff       	.word	0xffff	; ????
    345c:	ff ff       	.word	0xffff	; ????
    345e:	ff ff       	.word	0xffff	; ????
    3460:	ff ff       	.word	0xffff	; ????
    3462:	ff ff       	.word	0xffff	; ????
    3464:	ff ff       	.word	0xffff	; ????
    3466:	ff ff       	.word	0xffff	; ????
    3468:	ff ff       	.word	0xffff	; ????
    346a:	ff ff       	.word	0xffff	; ????
    346c:	ff ff       	.word	0xffff	; ????
    346e:	ff ff       	.word	0xffff	; ????
    3470:	ff ff       	.word	0xffff	; ????
    3472:	ff ff       	.word	0xffff	; ????
    3474:	ff ff       	.word	0xffff	; ????
    3476:	ff ff       	.word	0xffff	; ????
    3478:	ff ff       	.word	0xffff	; ????
    347a:	ff ff       	.word	0xffff	; ????
    347c:	ff ff       	.word	0xffff	; ????
    347e:	ff ff       	.word	0xffff	; ????
    3480:	ff ff       	.word	0xffff	; ????
    3482:	ff ff       	.word	0xffff	; ????
    3484:	ff ff       	.word	0xffff	; ????
    3486:	ff ff       	.word	0xffff	; ????
    3488:	ff ff       	.word	0xffff	; ????
    348a:	ff ff       	.word	0xffff	; ????
    348c:	ff ff       	.word	0xffff	; ????
    348e:	ff ff       	.word	0xffff	; ????
    3490:	ff ff       	.word	0xffff	; ????
    3492:	ff ff       	.word	0xffff	; ????
    3494:	ff ff       	.word	0xffff	; ????
    3496:	ff ff       	.word	0xffff	; ????
    3498:	ff ff       	.word	0xffff	; ????
    349a:	ff ff       	.word	0xffff	; ????
    349c:	ff ff       	.word	0xffff	; ????
    349e:	ff ff       	.word	0xffff	; ????
    34a0:	ff ff       	.word	0xffff	; ????
    34a2:	ff ff       	.word	0xffff	; ????
    34a4:	ff ff       	.word	0xffff	; ????
    34a6:	ff ff       	.word	0xffff	; ????
    34a8:	ff ff       	.word	0xffff	; ????
    34aa:	ff ff       	.word	0xffff	; ????
    34ac:	ff ff       	.word	0xffff	; ????
    34ae:	ff ff       	.word	0xffff	; ????
    34b0:	ff ff       	.word	0xffff	; ????
    34b2:	ff ff       	.word	0xffff	; ????
    34b4:	ff ff       	.word	0xffff	; ????
    34b6:	ff ff       	.word	0xffff	; ????
    34b8:	ff ff       	.word	0xffff	; ????
    34ba:	ff ff       	.word	0xffff	; ????
    34bc:	ff ff       	.word	0xffff	; ????
    34be:	ff ff       	.word	0xffff	; ????
    34c0:	ff ff       	.word	0xffff	; ????
    34c2:	ff ff       	.word	0xffff	; ????
    34c4:	ff ff       	.word	0xffff	; ????
    34c6:	ff ff       	.word	0xffff	; ????
    34c8:	ff ff       	.word	0xffff	; ????
    34ca:	ff ff       	.word	0xffff	; ????
    34cc:	ff ff       	.word	0xffff	; ????
    34ce:	ff ff       	.word	0xffff	; ????
    34d0:	ff ff       	.word	0xffff	; ????
    34d2:	ff ff       	.word	0xffff	; ????
    34d4:	ff ff       	.word	0xffff	; ????
    34d6:	ff ff       	.word	0xffff	; ????
    34d8:	ff ff       	.word	0xffff	; ????
    34da:	ff ff       	.word	0xffff	; ????
    34dc:	ff ff       	.word	0xffff	; ????
    34de:	ff ff       	.word	0xffff	; ????
    34e0:	ff ff       	.word	0xffff	; ????
    34e2:	ff ff       	.word	0xffff	; ????
    34e4:	ff ff       	.word	0xffff	; ????
    34e6:	ff ff       	.word	0xffff	; ????
    34e8:	ff ff       	.word	0xffff	; ????
    34ea:	ff ff       	.word	0xffff	; ????
    34ec:	ff ff       	.word	0xffff	; ????
    34ee:	ff ff       	.word	0xffff	; ????
    34f0:	ff ff       	.word	0xffff	; ????
    34f2:	ff ff       	.word	0xffff	; ????
    34f4:	ff ff       	.word	0xffff	; ????
    34f6:	ff ff       	.word	0xffff	; ????
    34f8:	ff ff       	.word	0xffff	; ????
    34fa:	ff ff       	.word	0xffff	; ????
    34fc:	ff ff       	.word	0xffff	; ????
    34fe:	ff ff       	.word	0xffff	; ????
    3500:	ff ff       	.word	0xffff	; ????
    3502:	ff ff       	.word	0xffff	; ????
    3504:	ff ff       	.word	0xffff	; ????
    3506:	ff ff       	.word	0xffff	; ????
    3508:	ff ff       	.word	0xffff	; ????
    350a:	ff ff       	.word	0xffff	; ????
    350c:	ff ff       	.word	0xffff	; ????
    350e:	ff ff       	.word	0xffff	; ????
    3510:	ff ff       	.word	0xffff	; ????
    3512:	ff ff       	.word	0xffff	; ????
    3514:	ff ff       	.word	0xffff	; ????
    3516:	ff ff       	.word	0xffff	; ????
    3518:	ff ff       	.word	0xffff	; ????
    351a:	ff ff       	.word	0xffff	; ????
    351c:	ff ff       	.word	0xffff	; ????
    351e:	ff ff       	.word	0xffff	; ????
    3520:	ff ff       	.word	0xffff	; ????
    3522:	ff ff       	.word	0xffff	; ????
    3524:	ff ff       	.word	0xffff	; ????
    3526:	ff ff       	.word	0xffff	; ????
    3528:	ff ff       	.word	0xffff	; ????
    352a:	ff ff       	.word	0xffff	; ????
    352c:	ff ff       	.word	0xffff	; ????
    352e:	ff ff       	.word	0xffff	; ????
    3530:	ff ff       	.word	0xffff	; ????
    3532:	ff ff       	.word	0xffff	; ????
    3534:	ff ff       	.word	0xffff	; ????
    3536:	ff ff       	.word	0xffff	; ????
    3538:	ff ff       	.word	0xffff	; ????
    353a:	ff ff       	.word	0xffff	; ????
    353c:	ff ff       	.word	0xffff	; ????
    353e:	ff ff       	.word	0xffff	; ????
    3540:	ff ff       	.word	0xffff	; ????
    3542:	ff ff       	.word	0xffff	; ????
    3544:	ff ff       	.word	0xffff	; ????
    3546:	ff ff       	.word	0xffff	; ????
    3548:	ff ff       	.word	0xffff	; ????
    354a:	ff ff       	.word	0xffff	; ????
    354c:	ff ff       	.word	0xffff	; ????
    354e:	ff ff       	.word	0xffff	; ????
    3550:	ff ff       	.word	0xffff	; ????
    3552:	ff ff       	.word	0xffff	; ????
    3554:	ff ff       	.word	0xffff	; ????
    3556:	ff ff       	.word	0xffff	; ????
    3558:	ff ff       	.word	0xffff	; ????
    355a:	ff ff       	.word	0xffff	; ????
    355c:	ff ff       	.word	0xffff	; ????
    355e:	ff ff       	.word	0xffff	; ????
    3560:	ff ff       	.word	0xffff	; ????
    3562:	ff ff       	.word	0xffff	; ????
    3564:	ff ff       	.word	0xffff	; ????
    3566:	ff ff       	.word	0xffff	; ????
    3568:	ff ff       	.word	0xffff	; ????
    356a:	ff ff       	.word	0xffff	; ????
    356c:	ff ff       	.word	0xffff	; ????
    356e:	ff ff       	.word	0xffff	; ????
    3570:	ff ff       	.word	0xffff	; ????
    3572:	ff ff       	.word	0xffff	; ????
    3574:	ff ff       	.word	0xffff	; ????
    3576:	ff ff       	.word	0xffff	; ????
    3578:	ff ff       	.word	0xffff	; ????
    357a:	ff ff       	.word	0xffff	; ????
    357c:	ff ff       	.word	0xffff	; ????
    357e:	ff ff       	.word	0xffff	; ????
    3580:	ff ff       	.word	0xffff	; ????
    3582:	ff ff       	.word	0xffff	; ????
    3584:	ff ff       	.word	0xffff	; ????
    3586:	ff ff       	.word	0xffff	; ????
    3588:	ff ff       	.word	0xffff	; ????
    358a:	ff ff       	.word	0xffff	; ????
    358c:	ff ff       	.word	0xffff	; ????
    358e:	ff ff       	.word	0xffff	; ????
    3590:	ff ff       	.word	0xffff	; ????
    3592:	ff ff       	.word	0xffff	; ????
    3594:	ff ff       	.word	0xffff	; ????
    3596:	ff ff       	.word	0xffff	; ????
    3598:	ff ff       	.word	0xffff	; ????
    359a:	ff ff       	.word	0xffff	; ????
    359c:	ff ff       	.word	0xffff	; ????
    359e:	ff ff       	.word	0xffff	; ????
    35a0:	ff ff       	.word	0xffff	; ????
    35a2:	ff ff       	.word	0xffff	; ????
    35a4:	ff ff       	.word	0xffff	; ????
    35a6:	ff ff       	.word	0xffff	; ????
    35a8:	ff ff       	.word	0xffff	; ????
    35aa:	ff ff       	.word	0xffff	; ????
    35ac:	ff ff       	.word	0xffff	; ????
    35ae:	ff ff       	.word	0xffff	; ????
    35b0:	ff ff       	.word	0xffff	; ????
    35b2:	ff ff       	.word	0xffff	; ????
    35b4:	ff ff       	.word	0xffff	; ????
    35b6:	ff ff       	.word	0xffff	; ????
    35b8:	ff ff       	.word	0xffff	; ????
    35ba:	ff ff       	.word	0xffff	; ????
    35bc:	ff ff       	.word	0xffff	; ????
    35be:	ff ff       	.word	0xffff	; ????
    35c0:	ff ff       	.word	0xffff	; ????
    35c2:	ff ff       	.word	0xffff	; ????
    35c4:	ff ff       	.word	0xffff	; ????
    35c6:	ff ff       	.word	0xffff	; ????
    35c8:	ff ff       	.word	0xffff	; ????
    35ca:	ff ff       	.word	0xffff	; ????
    35cc:	ff ff       	.word	0xffff	; ????
    35ce:	ff ff       	.word	0xffff	; ????
    35d0:	ff ff       	.word	0xffff	; ????
    35d2:	ff ff       	.word	0xffff	; ????
    35d4:	ff ff       	.word	0xffff	; ????
    35d6:	ff ff       	.word	0xffff	; ????
    35d8:	ff ff       	.word	0xffff	; ????
    35da:	ff ff       	.word	0xffff	; ????
    35dc:	ff ff       	.word	0xffff	; ????
    35de:	ff ff       	.word	0xffff	; ????
    35e0:	ff ff       	.word	0xffff	; ????
    35e2:	ff ff       	.word	0xffff	; ????
    35e4:	ff ff       	.word	0xffff	; ????
    35e6:	ff ff       	.word	0xffff	; ????
    35e8:	ff ff       	.word	0xffff	; ????
    35ea:	ff ff       	.word	0xffff	; ????
    35ec:	ff ff       	.word	0xffff	; ????
    35ee:	ff ff       	.word	0xffff	; ????
    35f0:	ff ff       	.word	0xffff	; ????
    35f2:	ff ff       	.word	0xffff	; ????
    35f4:	ff ff       	.word	0xffff	; ????
    35f6:	ff ff       	.word	0xffff	; ????
    35f8:	ff ff       	.word	0xffff	; ????
    35fa:	ff ff       	.word	0xffff	; ????
    35fc:	ff ff       	.word	0xffff	; ????
    35fe:	ff ff       	.word	0xffff	; ????
    3600:	ff ff       	.word	0xffff	; ????
    3602:	ff ff       	.word	0xffff	; ????
    3604:	ff ff       	.word	0xffff	; ????
    3606:	ff ff       	.word	0xffff	; ????
    3608:	ff ff       	.word	0xffff	; ????
    360a:	ff ff       	.word	0xffff	; ????
    360c:	ff ff       	.word	0xffff	; ????
    360e:	ff ff       	.word	0xffff	; ????
    3610:	ff ff       	.word	0xffff	; ????
    3612:	ff ff       	.word	0xffff	; ????
    3614:	ff ff       	.word	0xffff	; ????
    3616:	ff ff       	.word	0xffff	; ????
    3618:	ff ff       	.word	0xffff	; ????
    361a:	ff ff       	.word	0xffff	; ????
    361c:	ff ff       	.word	0xffff	; ????
    361e:	ff ff       	.word	0xffff	; ????
    3620:	ff ff       	.word	0xffff	; ????
    3622:	ff ff       	.word	0xffff	; ????
    3624:	ff ff       	.word	0xffff	; ????
    3626:	ff ff       	.word	0xffff	; ????
    3628:	ff ff       	.word	0xffff	; ????
    362a:	ff ff       	.word	0xffff	; ????
    362c:	ff ff       	.word	0xffff	; ????
    362e:	ff ff       	.word	0xffff	; ????
    3630:	ff ff       	.word	0xffff	; ????
    3632:	ff ff       	.word	0xffff	; ????
    3634:	ff ff       	.word	0xffff	; ????
    3636:	ff ff       	.word	0xffff	; ????
    3638:	ff ff       	.word	0xffff	; ????
    363a:	ff ff       	.word	0xffff	; ????
    363c:	ff ff       	.word	0xffff	; ????
    363e:	ff ff       	.word	0xffff	; ????
    3640:	ff ff       	.word	0xffff	; ????
    3642:	ff ff       	.word	0xffff	; ????
    3644:	ff ff       	.word	0xffff	; ????
    3646:	ff ff       	.word	0xffff	; ????
    3648:	ff ff       	.word	0xffff	; ????
    364a:	ff ff       	.word	0xffff	; ????
    364c:	ff ff       	.word	0xffff	; ????
    364e:	ff ff       	.word	0xffff	; ????
    3650:	ff ff       	.word	0xffff	; ????
    3652:	ff ff       	.word	0xffff	; ????
    3654:	ff ff       	.word	0xffff	; ????
    3656:	ff ff       	.word	0xffff	; ????
    3658:	ff ff       	.word	0xffff	; ????
    365a:	ff ff       	.word	0xffff	; ????
    365c:	ff ff       	.word	0xffff	; ????
    365e:	ff ff       	.word	0xffff	; ????
    3660:	ff ff       	.word	0xffff	; ????
    3662:	ff ff       	.word	0xffff	; ????
    3664:	ff ff       	.word	0xffff	; ????
    3666:	ff ff       	.word	0xffff	; ????
    3668:	ff ff       	.word	0xffff	; ????
    366a:	ff ff       	.word	0xffff	; ????
    366c:	ff ff       	.word	0xffff	; ????
    366e:	ff ff       	.word	0xffff	; ????
    3670:	ff ff       	.word	0xffff	; ????
    3672:	ff ff       	.word	0xffff	; ????
    3674:	ff ff       	.word	0xffff	; ????
    3676:	ff ff       	.word	0xffff	; ????
    3678:	ff ff       	.word	0xffff	; ????
    367a:	ff ff       	.word	0xffff	; ????
    367c:	ff ff       	.word	0xffff	; ????
    367e:	ff ff       	.word	0xffff	; ????
    3680:	ff ff       	.word	0xffff	; ????
    3682:	ff ff       	.word	0xffff	; ????
    3684:	ff ff       	.word	0xffff	; ????
    3686:	ff ff       	.word	0xffff	; ????
    3688:	ff ff       	.word	0xffff	; ????
    368a:	ff ff       	.word	0xffff	; ????
    368c:	ff ff       	.word	0xffff	; ????
    368e:	ff ff       	.word	0xffff	; ????
    3690:	ff ff       	.word	0xffff	; ????
    3692:	ff ff       	.word	0xffff	; ????
    3694:	ff ff       	.word	0xffff	; ????
    3696:	ff ff       	.word	0xffff	; ????
    3698:	ff ff       	.word	0xffff	; ????
    369a:	ff ff       	.word	0xffff	; ????
    369c:	ff ff       	.word	0xffff	; ????
    369e:	ff ff       	.word	0xffff	; ????
    36a0:	ff ff       	.word	0xffff	; ????
    36a2:	ff ff       	.word	0xffff	; ????
    36a4:	ff ff       	.word	0xffff	; ????
    36a6:	ff ff       	.word	0xffff	; ????
    36a8:	ff ff       	.word	0xffff	; ????
    36aa:	ff ff       	.word	0xffff	; ????
    36ac:	ff ff       	.word	0xffff	; ????
    36ae:	ff ff       	.word	0xffff	; ????
    36b0:	ff ff       	.word	0xffff	; ????
    36b2:	ff ff       	.word	0xffff	; ????
    36b4:	ff ff       	.word	0xffff	; ????
    36b6:	ff ff       	.word	0xffff	; ????
    36b8:	ff ff       	.word	0xffff	; ????
    36ba:	ff ff       	.word	0xffff	; ????
    36bc:	ff ff       	.word	0xffff	; ????
    36be:	ff ff       	.word	0xffff	; ????
    36c0:	ff ff       	.word	0xffff	; ????
    36c2:	ff ff       	.word	0xffff	; ????
    36c4:	ff ff       	.word	0xffff	; ????
    36c6:	ff ff       	.word	0xffff	; ????
    36c8:	ff ff       	.word	0xffff	; ????
    36ca:	ff ff       	.word	0xffff	; ????
    36cc:	ff ff       	.word	0xffff	; ????
    36ce:	ff ff       	.word	0xffff	; ????
    36d0:	ff ff       	.word	0xffff	; ????
    36d2:	ff ff       	.word	0xffff	; ????
    36d4:	ff ff       	.word	0xffff	; ????
    36d6:	ff ff       	.word	0xffff	; ????
    36d8:	ff ff       	.word	0xffff	; ????
    36da:	ff ff       	.word	0xffff	; ????
    36dc:	ff ff       	.word	0xffff	; ????
    36de:	ff ff       	.word	0xffff	; ????
    36e0:	ff ff       	.word	0xffff	; ????
    36e2:	ff ff       	.word	0xffff	; ????
    36e4:	ff ff       	.word	0xffff	; ????
    36e6:	ff ff       	.word	0xffff	; ????
    36e8:	ff ff       	.word	0xffff	; ????
    36ea:	ff ff       	.word	0xffff	; ????
    36ec:	ff ff       	.word	0xffff	; ????
    36ee:	ff ff       	.word	0xffff	; ????
    36f0:	ff ff       	.word	0xffff	; ????
    36f2:	ff ff       	.word	0xffff	; ????
    36f4:	ff ff       	.word	0xffff	; ????
    36f6:	ff ff       	.word	0xffff	; ????
    36f8:	ff ff       	.word	0xffff	; ????
    36fa:	ff ff       	.word	0xffff	; ????
    36fc:	ff ff       	.word	0xffff	; ????
    36fe:	ff ff       	.word	0xffff	; ????
    3700:	ff ff       	.word	0xffff	; ????
    3702:	ff ff       	.word	0xffff	; ????
    3704:	ff ff       	.word	0xffff	; ????
    3706:	ff ff       	.word	0xffff	; ????
    3708:	ff ff       	.word	0xffff	; ????
    370a:	ff ff       	.word	0xffff	; ????
    370c:	ff ff       	.word	0xffff	; ????
    370e:	ff ff       	.word	0xffff	; ????
    3710:	ff ff       	.word	0xffff	; ????
    3712:	ff ff       	.word	0xffff	; ????
    3714:	ff ff       	.word	0xffff	; ????
    3716:	ff ff       	.word	0xffff	; ????
    3718:	ff ff       	.word	0xffff	; ????
    371a:	ff ff       	.word	0xffff	; ????
    371c:	ff ff       	.word	0xffff	; ????
    371e:	ff ff       	.word	0xffff	; ????
    3720:	ff ff       	.word	0xffff	; ????
    3722:	ff ff       	.word	0xffff	; ????
    3724:	ff ff       	.word	0xffff	; ????
    3726:	ff ff       	.word	0xffff	; ????
    3728:	ff ff       	.word	0xffff	; ????
    372a:	ff ff       	.word	0xffff	; ????
    372c:	ff ff       	.word	0xffff	; ????
    372e:	ff ff       	.word	0xffff	; ????
    3730:	ff ff       	.word	0xffff	; ????
    3732:	ff ff       	.word	0xffff	; ????
    3734:	ff ff       	.word	0xffff	; ????
    3736:	ff ff       	.word	0xffff	; ????
    3738:	ff ff       	.word	0xffff	; ????
    373a:	ff ff       	.word	0xffff	; ????
    373c:	ff ff       	.word	0xffff	; ????
    373e:	ff ff       	.word	0xffff	; ????
    3740:	ff ff       	.word	0xffff	; ????
    3742:	ff ff       	.word	0xffff	; ????
    3744:	ff ff       	.word	0xffff	; ????
    3746:	ff ff       	.word	0xffff	; ????
    3748:	ff ff       	.word	0xffff	; ????
    374a:	ff ff       	.word	0xffff	; ????
    374c:	ff ff       	.word	0xffff	; ????
    374e:	ff ff       	.word	0xffff	; ????
    3750:	ff ff       	.word	0xffff	; ????
    3752:	ff ff       	.word	0xffff	; ????
    3754:	ff ff       	.word	0xffff	; ????
    3756:	ff ff       	.word	0xffff	; ????
    3758:	ff ff       	.word	0xffff	; ????
    375a:	ff ff       	.word	0xffff	; ????
    375c:	ff ff       	.word	0xffff	; ????
    375e:	ff ff       	.word	0xffff	; ????
    3760:	ff ff       	.word	0xffff	; ????
    3762:	ff ff       	.word	0xffff	; ????
    3764:	ff ff       	.word	0xffff	; ????
    3766:	ff ff       	.word	0xffff	; ????
    3768:	ff ff       	.word	0xffff	; ????
    376a:	ff ff       	.word	0xffff	; ????
    376c:	ff ff       	.word	0xffff	; ????
    376e:	ff ff       	.word	0xffff	; ????
    3770:	ff ff       	.word	0xffff	; ????
    3772:	ff ff       	.word	0xffff	; ????
    3774:	ff ff       	.word	0xffff	; ????
    3776:	ff ff       	.word	0xffff	; ????
    3778:	ff ff       	.word	0xffff	; ????
    377a:	ff ff       	.word	0xffff	; ????
    377c:	ff ff       	.word	0xffff	; ????
    377e:	ff ff       	.word	0xffff	; ????
    3780:	ff ff       	.word	0xffff	; ????
    3782:	ff ff       	.word	0xffff	; ????
    3784:	ff ff       	.word	0xffff	; ????
    3786:	ff ff       	.word	0xffff	; ????
    3788:	ff ff       	.word	0xffff	; ????
    378a:	ff ff       	.word	0xffff	; ????
    378c:	ff ff       	.word	0xffff	; ????
    378e:	ff ff       	.word	0xffff	; ????
    3790:	ff ff       	.word	0xffff	; ????
    3792:	ff ff       	.word	0xffff	; ????
    3794:	ff ff       	.word	0xffff	; ????
    3796:	ff ff       	.word	0xffff	; ????
    3798:	ff ff       	.word	0xffff	; ????
    379a:	ff ff       	.word	0xffff	; ????
    379c:	ff ff       	.word	0xffff	; ????
    379e:	ff ff       	.word	0xffff	; ????
    37a0:	ff ff       	.word	0xffff	; ????
    37a2:	ff ff       	.word	0xffff	; ????
    37a4:	ff ff       	.word	0xffff	; ????
    37a6:	ff ff       	.word	0xffff	; ????
    37a8:	ff ff       	.word	0xffff	; ????
    37aa:	ff ff       	.word	0xffff	; ????
    37ac:	ff ff       	.word	0xffff	; ????
    37ae:	ff ff       	.word	0xffff	; ????
    37b0:	ff ff       	.word	0xffff	; ????
    37b2:	ff ff       	.word	0xffff	; ????
    37b4:	ff ff       	.word	0xffff	; ????
    37b6:	ff ff       	.word	0xffff	; ????
    37b8:	ff ff       	.word	0xffff	; ????
    37ba:	ff ff       	.word	0xffff	; ????
    37bc:	ff ff       	.word	0xffff	; ????
    37be:	ff ff       	.word	0xffff	; ????
    37c0:	ff ff       	.word	0xffff	; ????
    37c2:	ff ff       	.word	0xffff	; ????
    37c4:	ff ff       	.word	0xffff	; ????
    37c6:	ff ff       	.word	0xffff	; ????
    37c8:	ff ff       	.word	0xffff	; ????
    37ca:	ff ff       	.word	0xffff	; ????
    37cc:	ff ff       	.word	0xffff	; ????
    37ce:	ff ff       	.word	0xffff	; ????
    37d0:	ff ff       	.word	0xffff	; ????
    37d2:	ff ff       	.word	0xffff	; ????
    37d4:	ff ff       	.word	0xffff	; ????
    37d6:	ff ff       	.word	0xffff	; ????
    37d8:	ff ff       	.word	0xffff	; ????
    37da:	ff ff       	.word	0xffff	; ????
    37dc:	ff ff       	.word	0xffff	; ????
    37de:	ff ff       	.word	0xffff	; ????
    37e0:	ff ff       	.word	0xffff	; ????
    37e2:	ff ff       	.word	0xffff	; ????
    37e4:	ff ff       	.word	0xffff	; ????
    37e6:	ff ff       	.word	0xffff	; ????
    37e8:	ff ff       	.word	0xffff	; ????
    37ea:	ff ff       	.word	0xffff	; ????
    37ec:	ff ff       	.word	0xffff	; ????
    37ee:	ff ff       	.word	0xffff	; ????
    37f0:	ff ff       	.word	0xffff	; ????
    37f2:	ff ff       	.word	0xffff	; ????
    37f4:	ff ff       	.word	0xffff	; ????
    37f6:	ff ff       	.word	0xffff	; ????
    37f8:	ff ff       	.word	0xffff	; ????
    37fa:	ff ff       	.word	0xffff	; ????
    37fc:	ff ff       	.word	0xffff	; ????
    37fe:	ff ff       	.word	0xffff	; ????
    3800:	ff ff       	.word	0xffff	; ????
    3802:	ff ff       	.word	0xffff	; ????
    3804:	ff ff       	.word	0xffff	; ????
    3806:	ff ff       	.word	0xffff	; ????
    3808:	ff ff       	.word	0xffff	; ????
    380a:	ff ff       	.word	0xffff	; ????
    380c:	ff ff       	.word	0xffff	; ????
    380e:	ff ff       	.word	0xffff	; ????
    3810:	ff ff       	.word	0xffff	; ????
    3812:	ff ff       	.word	0xffff	; ????
    3814:	ff ff       	.word	0xffff	; ????
    3816:	ff ff       	.word	0xffff	; ????
    3818:	ff ff       	.word	0xffff	; ????
    381a:	ff ff       	.word	0xffff	; ????
    381c:	ff ff       	.word	0xffff	; ????
    381e:	ff ff       	.word	0xffff	; ????
    3820:	ff ff       	.word	0xffff	; ????
    3822:	ff ff       	.word	0xffff	; ????
    3824:	ff ff       	.word	0xffff	; ????
    3826:	ff ff       	.word	0xffff	; ????
    3828:	ff ff       	.word	0xffff	; ????
    382a:	ff ff       	.word	0xffff	; ????
    382c:	ff ff       	.word	0xffff	; ????
    382e:	ff ff       	.word	0xffff	; ????
    3830:	ff ff       	.word	0xffff	; ????
    3832:	ff ff       	.word	0xffff	; ????
    3834:	ff ff       	.word	0xffff	; ????
    3836:	ff ff       	.word	0xffff	; ????
    3838:	ff ff       	.word	0xffff	; ????
    383a:	ff ff       	.word	0xffff	; ????
    383c:	ff ff       	.word	0xffff	; ????
    383e:	ff ff       	.word	0xffff	; ????
    3840:	ff ff       	.word	0xffff	; ????
    3842:	ff ff       	.word	0xffff	; ????
    3844:	ff ff       	.word	0xffff	; ????
    3846:	ff ff       	.word	0xffff	; ????
    3848:	ff ff       	.word	0xffff	; ????
    384a:	ff ff       	.word	0xffff	; ????
    384c:	ff ff       	.word	0xffff	; ????
    384e:	ff ff       	.word	0xffff	; ????
    3850:	ff ff       	.word	0xffff	; ????
    3852:	ff ff       	.word	0xffff	; ????
    3854:	ff ff       	.word	0xffff	; ????
    3856:	ff ff       	.word	0xffff	; ????
    3858:	ff ff       	.word	0xffff	; ????
    385a:	ff ff       	.word	0xffff	; ????
    385c:	ff ff       	.word	0xffff	; ????
    385e:	ff ff       	.word	0xffff	; ????
    3860:	ff ff       	.word	0xffff	; ????
    3862:	ff ff       	.word	0xffff	; ????
    3864:	ff ff       	.word	0xffff	; ????
    3866:	ff ff       	.word	0xffff	; ????
    3868:	ff ff       	.word	0xffff	; ????
    386a:	ff ff       	.word	0xffff	; ????
    386c:	ff ff       	.word	0xffff	; ????
    386e:	ff ff       	.word	0xffff	; ????
    3870:	ff ff       	.word	0xffff	; ????
    3872:	ff ff       	.word	0xffff	; ????
    3874:	ff ff       	.word	0xffff	; ????
    3876:	ff ff       	.word	0xffff	; ????
    3878:	ff ff       	.word	0xffff	; ????
    387a:	ff ff       	.word	0xffff	; ????
    387c:	ff ff       	.word	0xffff	; ????
    387e:	ff ff       	.word	0xffff	; ????
    3880:	ff ff       	.word	0xffff	; ????
    3882:	ff ff       	.word	0xffff	; ????
    3884:	ff ff       	.word	0xffff	; ????
    3886:	ff ff       	.word	0xffff	; ????
    3888:	ff ff       	.word	0xffff	; ????
    388a:	ff ff       	.word	0xffff	; ????
    388c:	ff ff       	.word	0xffff	; ????
    388e:	ff ff       	.word	0xffff	; ????
    3890:	ff ff       	.word	0xffff	; ????
    3892:	ff ff       	.word	0xffff	; ????
    3894:	ff ff       	.word	0xffff	; ????
    3896:	ff ff       	.word	0xffff	; ????
    3898:	ff ff       	.word	0xffff	; ????
    389a:	ff ff       	.word	0xffff	; ????
    389c:	ff ff       	.word	0xffff	; ????
    389e:	ff ff       	.word	0xffff	; ????
    38a0:	ff ff       	.word	0xffff	; ????
    38a2:	ff ff       	.word	0xffff	; ????
    38a4:	ff ff       	.word	0xffff	; ????
    38a6:	ff ff       	.word	0xffff	; ????
    38a8:	ff ff       	.word	0xffff	; ????
    38aa:	ff ff       	.word	0xffff	; ????
    38ac:	ff ff       	.word	0xffff	; ????
    38ae:	ff ff       	.word	0xffff	; ????
    38b0:	ff ff       	.word	0xffff	; ????
    38b2:	ff ff       	.word	0xffff	; ????
    38b4:	ff ff       	.word	0xffff	; ????
    38b6:	ff ff       	.word	0xffff	; ????
    38b8:	ff ff       	.word	0xffff	; ????
    38ba:	ff ff       	.word	0xffff	; ????
    38bc:	ff ff       	.word	0xffff	; ????
    38be:	ff ff       	.word	0xffff	; ????
    38c0:	ff ff       	.word	0xffff	; ????
    38c2:	ff ff       	.word	0xffff	; ????
    38c4:	ff ff       	.word	0xffff	; ????
    38c6:	ff ff       	.word	0xffff	; ????
    38c8:	ff ff       	.word	0xffff	; ????
    38ca:	ff ff       	.word	0xffff	; ????
    38cc:	ff ff       	.word	0xffff	; ????
    38ce:	ff ff       	.word	0xffff	; ????
    38d0:	ff ff       	.word	0xffff	; ????
    38d2:	ff ff       	.word	0xffff	; ????
    38d4:	ff ff       	.word	0xffff	; ????
    38d6:	ff ff       	.word	0xffff	; ????
    38d8:	ff ff       	.word	0xffff	; ????
    38da:	ff ff       	.word	0xffff	; ????
    38dc:	ff ff       	.word	0xffff	; ????
    38de:	ff ff       	.word	0xffff	; ????
    38e0:	ff ff       	.word	0xffff	; ????
    38e2:	ff ff       	.word	0xffff	; ????
    38e4:	ff ff       	.word	0xffff	; ????
    38e6:	ff ff       	.word	0xffff	; ????
    38e8:	ff ff       	.word	0xffff	; ????
    38ea:	ff ff       	.word	0xffff	; ????
    38ec:	ff ff       	.word	0xffff	; ????
    38ee:	ff ff       	.word	0xffff	; ????
    38f0:	ff ff       	.word	0xffff	; ????
    38f2:	ff ff       	.word	0xffff	; ????
    38f4:	ff ff       	.word	0xffff	; ????
    38f6:	ff ff       	.word	0xffff	; ????
    38f8:	ff ff       	.word	0xffff	; ????
    38fa:	ff ff       	.word	0xffff	; ????
    38fc:	ff ff       	.word	0xffff	; ????
    38fe:	ff ff       	.word	0xffff	; ????
    3900:	ff ff       	.word	0xffff	; ????
    3902:	ff ff       	.word	0xffff	; ????
    3904:	ff ff       	.word	0xffff	; ????
    3906:	ff ff       	.word	0xffff	; ????
    3908:	ff ff       	.word	0xffff	; ????
    390a:	ff ff       	.word	0xffff	; ????
    390c:	ff ff       	.word	0xffff	; ????
    390e:	ff ff       	.word	0xffff	; ????
    3910:	ff ff       	.word	0xffff	; ????
    3912:	ff ff       	.word	0xffff	; ????
    3914:	ff ff       	.word	0xffff	; ????
    3916:	ff ff       	.word	0xffff	; ????
    3918:	ff ff       	.word	0xffff	; ????
    391a:	ff ff       	.word	0xffff	; ????
    391c:	ff ff       	.word	0xffff	; ????
    391e:	ff ff       	.word	0xffff	; ????
    3920:	ff ff       	.word	0xffff	; ????
    3922:	ff ff       	.word	0xffff	; ????
    3924:	ff ff       	.word	0xffff	; ????
    3926:	ff ff       	.word	0xffff	; ????
    3928:	ff ff       	.word	0xffff	; ????
    392a:	ff ff       	.word	0xffff	; ????
    392c:	ff ff       	.word	0xffff	; ????
    392e:	ff ff       	.word	0xffff	; ????
    3930:	ff ff       	.word	0xffff	; ????
    3932:	ff ff       	.word	0xffff	; ????
    3934:	ff ff       	.word	0xffff	; ????
    3936:	ff ff       	.word	0xffff	; ????
    3938:	ff ff       	.word	0xffff	; ????
    393a:	ff ff       	.word	0xffff	; ????
    393c:	ff ff       	.word	0xffff	; ????
    393e:	ff ff       	.word	0xffff	; ????
    3940:	ff ff       	.word	0xffff	; ????
    3942:	ff ff       	.word	0xffff	; ????
    3944:	ff ff       	.word	0xffff	; ????
    3946:	ff ff       	.word	0xffff	; ????
    3948:	ff ff       	.word	0xffff	; ????
    394a:	ff ff       	.word	0xffff	; ????
    394c:	ff ff       	.word	0xffff	; ????
    394e:	ff ff       	.word	0xffff	; ????
    3950:	ff ff       	.word	0xffff	; ????
    3952:	ff ff       	.word	0xffff	; ????
    3954:	ff ff       	.word	0xffff	; ????
    3956:	ff ff       	.word	0xffff	; ????
    3958:	ff ff       	.word	0xffff	; ????
    395a:	ff ff       	.word	0xffff	; ????
    395c:	ff ff       	.word	0xffff	; ????
    395e:	ff ff       	.word	0xffff	; ????
    3960:	ff ff       	.word	0xffff	; ????
    3962:	ff ff       	.word	0xffff	; ????
    3964:	ff ff       	.word	0xffff	; ????
    3966:	ff ff       	.word	0xffff	; ????
    3968:	ff ff       	.word	0xffff	; ????
    396a:	ff ff       	.word	0xffff	; ????
    396c:	ff ff       	.word	0xffff	; ????
    396e:	ff ff       	.word	0xffff	; ????
    3970:	ff ff       	.word	0xffff	; ????
    3972:	ff ff       	.word	0xffff	; ????
    3974:	ff ff       	.word	0xffff	; ????
    3976:	ff ff       	.word	0xffff	; ????
    3978:	ff ff       	.word	0xffff	; ????
    397a:	ff ff       	.word	0xffff	; ????
    397c:	ff ff       	.word	0xffff	; ????
    397e:	ff ff       	.word	0xffff	; ????
    3980:	ff ff       	.word	0xffff	; ????
    3982:	ff ff       	.word	0xffff	; ????
    3984:	ff ff       	.word	0xffff	; ????
    3986:	ff ff       	.word	0xffff	; ????
    3988:	ff ff       	.word	0xffff	; ????
    398a:	ff ff       	.word	0xffff	; ????
    398c:	ff ff       	.word	0xffff	; ????
    398e:	ff ff       	.word	0xffff	; ????
    3990:	ff ff       	.word	0xffff	; ????
    3992:	ff ff       	.word	0xffff	; ????
    3994:	ff ff       	.word	0xffff	; ????
    3996:	ff ff       	.word	0xffff	; ????
    3998:	ff ff       	.word	0xffff	; ????
    399a:	ff ff       	.word	0xffff	; ????
    399c:	ff ff       	.word	0xffff	; ????
    399e:	ff ff       	.word	0xffff	; ????
    39a0:	ff ff       	.word	0xffff	; ????
    39a2:	ff ff       	.word	0xffff	; ????
    39a4:	ff ff       	.word	0xffff	; ????
    39a6:	ff ff       	.word	0xffff	; ????
    39a8:	ff ff       	.word	0xffff	; ????
    39aa:	ff ff       	.word	0xffff	; ????
    39ac:	ff ff       	.word	0xffff	; ????
    39ae:	ff ff       	.word	0xffff	; ????
    39b0:	ff ff       	.word	0xffff	; ????
    39b2:	ff ff       	.word	0xffff	; ????
    39b4:	ff ff       	.word	0xffff	; ????
    39b6:	ff ff       	.word	0xffff	; ????
    39b8:	ff ff       	.word	0xffff	; ????
    39ba:	ff ff       	.word	0xffff	; ????
    39bc:	ff ff       	.word	0xffff	; ????
    39be:	ff ff       	.word	0xffff	; ????
    39c0:	ff ff       	.word	0xffff	; ????
    39c2:	ff ff       	.word	0xffff	; ????
    39c4:	ff ff       	.word	0xffff	; ????
    39c6:	ff ff       	.word	0xffff	; ????
    39c8:	ff ff       	.word	0xffff	; ????
    39ca:	ff ff       	.word	0xffff	; ????
    39cc:	ff ff       	.word	0xffff	; ????
    39ce:	ff ff       	.word	0xffff	; ????
    39d0:	ff ff       	.word	0xffff	; ????
    39d2:	ff ff       	.word	0xffff	; ????
    39d4:	ff ff       	.word	0xffff	; ????
    39d6:	ff ff       	.word	0xffff	; ????
    39d8:	ff ff       	.word	0xffff	; ????
    39da:	ff ff       	.word	0xffff	; ????
    39dc:	ff ff       	.word	0xffff	; ????
    39de:	ff ff       	.word	0xffff	; ????
    39e0:	ff ff       	.word	0xffff	; ????
    39e2:	ff ff       	.word	0xffff	; ????
    39e4:	ff ff       	.word	0xffff	; ????
    39e6:	ff ff       	.word	0xffff	; ????
    39e8:	ff ff       	.word	0xffff	; ????
    39ea:	ff ff       	.word	0xffff	; ????
    39ec:	ff ff       	.word	0xffff	; ????
    39ee:	ff ff       	.word	0xffff	; ????
    39f0:	ff ff       	.word	0xffff	; ????
    39f2:	ff ff       	.word	0xffff	; ????
    39f4:	ff ff       	.word	0xffff	; ????
    39f6:	ff ff       	.word	0xffff	; ????
    39f8:	ff ff       	.word	0xffff	; ????
    39fa:	ff ff       	.word	0xffff	; ????
    39fc:	ff ff       	.word	0xffff	; ????
    39fe:	ff ff       	.word	0xffff	; ????
    3a00:	ff ff       	.word	0xffff	; ????
    3a02:	ff ff       	.word	0xffff	; ????
    3a04:	ff ff       	.word	0xffff	; ????
    3a06:	ff ff       	.word	0xffff	; ????
    3a08:	ff ff       	.word	0xffff	; ????
    3a0a:	ff ff       	.word	0xffff	; ????
    3a0c:	ff ff       	.word	0xffff	; ????
    3a0e:	ff ff       	.word	0xffff	; ????
    3a10:	ff ff       	.word	0xffff	; ????
    3a12:	ff ff       	.word	0xffff	; ????
    3a14:	ff ff       	.word	0xffff	; ????
    3a16:	ff ff       	.word	0xffff	; ????
    3a18:	ff ff       	.word	0xffff	; ????
    3a1a:	ff ff       	.word	0xffff	; ????
    3a1c:	ff ff       	.word	0xffff	; ????
    3a1e:	ff ff       	.word	0xffff	; ????
    3a20:	ff ff       	.word	0xffff	; ????
    3a22:	ff ff       	.word	0xffff	; ????
    3a24:	ff ff       	.word	0xffff	; ????
    3a26:	ff ff       	.word	0xffff	; ????
    3a28:	ff ff       	.word	0xffff	; ????
    3a2a:	ff ff       	.word	0xffff	; ????
    3a2c:	ff ff       	.word	0xffff	; ????
    3a2e:	ff ff       	.word	0xffff	; ????
    3a30:	ff ff       	.word	0xffff	; ????
    3a32:	ff ff       	.word	0xffff	; ????
    3a34:	ff ff       	.word	0xffff	; ????
    3a36:	ff ff       	.word	0xffff	; ????
    3a38:	ff ff       	.word	0xffff	; ????
    3a3a:	ff ff       	.word	0xffff	; ????
    3a3c:	ff ff       	.word	0xffff	; ????
    3a3e:	ff ff       	.word	0xffff	; ????
    3a40:	ff ff       	.word	0xffff	; ????
    3a42:	ff ff       	.word	0xffff	; ????
    3a44:	ff ff       	.word	0xffff	; ????
    3a46:	ff ff       	.word	0xffff	; ????
    3a48:	ff ff       	.word	0xffff	; ????
    3a4a:	ff ff       	.word	0xffff	; ????
    3a4c:	ff ff       	.word	0xffff	; ????
    3a4e:	ff ff       	.word	0xffff	; ????
    3a50:	ff ff       	.word	0xffff	; ????
    3a52:	ff ff       	.word	0xffff	; ????
    3a54:	ff ff       	.word	0xffff	; ????
    3a56:	ff ff       	.word	0xffff	; ????
    3a58:	ff ff       	.word	0xffff	; ????
    3a5a:	ff ff       	.word	0xffff	; ????
    3a5c:	ff ff       	.word	0xffff	; ????
    3a5e:	ff ff       	.word	0xffff	; ????
    3a60:	ff ff       	.word	0xffff	; ????
    3a62:	ff ff       	.word	0xffff	; ????
    3a64:	ff ff       	.word	0xffff	; ????
    3a66:	ff ff       	.word	0xffff	; ????
    3a68:	ff ff       	.word	0xffff	; ????
    3a6a:	ff ff       	.word	0xffff	; ????
    3a6c:	ff ff       	.word	0xffff	; ????
    3a6e:	ff ff       	.word	0xffff	; ????
    3a70:	ff ff       	.word	0xffff	; ????
    3a72:	ff ff       	.word	0xffff	; ????
    3a74:	ff ff       	.word	0xffff	; ????
    3a76:	ff ff       	.word	0xffff	; ????
    3a78:	ff ff       	.word	0xffff	; ????
    3a7a:	ff ff       	.word	0xffff	; ????
    3a7c:	ff ff       	.word	0xffff	; ????
    3a7e:	ff ff       	.word	0xffff	; ????
    3a80:	ff ff       	.word	0xffff	; ????
    3a82:	ff ff       	.word	0xffff	; ????
    3a84:	ff ff       	.word	0xffff	; ????
    3a86:	ff ff       	.word	0xffff	; ????
    3a88:	ff ff       	.word	0xffff	; ????
    3a8a:	ff ff       	.word	0xffff	; ????
    3a8c:	ff ff       	.word	0xffff	; ????
    3a8e:	ff ff       	.word	0xffff	; ????
    3a90:	ff ff       	.word	0xffff	; ????
    3a92:	ff ff       	.word	0xffff	; ????
    3a94:	ff ff       	.word	0xffff	; ????
    3a96:	ff ff       	.word	0xffff	; ????
    3a98:	ff ff       	.word	0xffff	; ????
    3a9a:	ff ff       	.word	0xffff	; ????
    3a9c:	ff ff       	.word	0xffff	; ????
    3a9e:	ff ff       	.word	0xffff	; ????
    3aa0:	ff ff       	.word	0xffff	; ????
    3aa2:	ff ff       	.word	0xffff	; ????
    3aa4:	ff ff       	.word	0xffff	; ????
    3aa6:	ff ff       	.word	0xffff	; ????
    3aa8:	ff ff       	.word	0xffff	; ????
    3aaa:	ff ff       	.word	0xffff	; ????
    3aac:	ff ff       	.word	0xffff	; ????
    3aae:	ff ff       	.word	0xffff	; ????
    3ab0:	ff ff       	.word	0xffff	; ????
    3ab2:	ff ff       	.word	0xffff	; ????
    3ab4:	ff ff       	.word	0xffff	; ????
    3ab6:	ff ff       	.word	0xffff	; ????
    3ab8:	ff ff       	.word	0xffff	; ????
    3aba:	ff ff       	.word	0xffff	; ????
    3abc:	ff ff       	.word	0xffff	; ????
    3abe:	ff ff       	.word	0xffff	; ????
    3ac0:	ff ff       	.word	0xffff	; ????
    3ac2:	ff ff       	.word	0xffff	; ????
    3ac4:	ff ff       	.word	0xffff	; ????
    3ac6:	ff ff       	.word	0xffff	; ????
    3ac8:	ff ff       	.word	0xffff	; ????
    3aca:	ff ff       	.word	0xffff	; ????
    3acc:	ff ff       	.word	0xffff	; ????
    3ace:	ff ff       	.word	0xffff	; ????
    3ad0:	ff ff       	.word	0xffff	; ????
    3ad2:	ff ff       	.word	0xffff	; ????
    3ad4:	ff ff       	.word	0xffff	; ????
    3ad6:	ff ff       	.word	0xffff	; ????
    3ad8:	ff ff       	.word	0xffff	; ????
    3ada:	ff ff       	.word	0xffff	; ????
    3adc:	ff ff       	.word	0xffff	; ????
    3ade:	ff ff       	.word	0xffff	; ????
    3ae0:	ff ff       	.word	0xffff	; ????
    3ae2:	ff ff       	.word	0xffff	; ????
    3ae4:	ff ff       	.word	0xffff	; ????
    3ae6:	ff ff       	.word	0xffff	; ????
    3ae8:	ff ff       	.word	0xffff	; ????
    3aea:	ff ff       	.word	0xffff	; ????
    3aec:	ff ff       	.word	0xffff	; ????
    3aee:	ff ff       	.word	0xffff	; ????
    3af0:	ff ff       	.word	0xffff	; ????
    3af2:	ff ff       	.word	0xffff	; ????
    3af4:	ff ff       	.word	0xffff	; ????
    3af6:	ff ff       	.word	0xffff	; ????
    3af8:	ff ff       	.word	0xffff	; ????
    3afa:	ff ff       	.word	0xffff	; ????
    3afc:	ff ff       	.word	0xffff	; ????
    3afe:	ff ff       	.word	0xffff	; ????
    3b00:	ff ff       	.word	0xffff	; ????
    3b02:	ff ff       	.word	0xffff	; ????
    3b04:	ff ff       	.word	0xffff	; ????
    3b06:	ff ff       	.word	0xffff	; ????
    3b08:	ff ff       	.word	0xffff	; ????
    3b0a:	ff ff       	.word	0xffff	; ????
    3b0c:	ff ff       	.word	0xffff	; ????
    3b0e:	ff ff       	.word	0xffff	; ????
    3b10:	ff ff       	.word	0xffff	; ????
    3b12:	ff ff       	.word	0xffff	; ????
    3b14:	ff ff       	.word	0xffff	; ????
    3b16:	ff ff       	.word	0xffff	; ????
    3b18:	ff ff       	.word	0xffff	; ????
    3b1a:	ff ff       	.word	0xffff	; ????
    3b1c:	ff ff       	.word	0xffff	; ????
    3b1e:	ff ff       	.word	0xffff	; ????
    3b20:	ff ff       	.word	0xffff	; ????
    3b22:	ff ff       	.word	0xffff	; ????
    3b24:	ff ff       	.word	0xffff	; ????
    3b26:	ff ff       	.word	0xffff	; ????
    3b28:	ff ff       	.word	0xffff	; ????
    3b2a:	ff ff       	.word	0xffff	; ????
    3b2c:	ff ff       	.word	0xffff	; ????
    3b2e:	ff ff       	.word	0xffff	; ????
    3b30:	ff ff       	.word	0xffff	; ????
    3b32:	ff ff       	.word	0xffff	; ????
    3b34:	ff ff       	.word	0xffff	; ????
    3b36:	ff ff       	.word	0xffff	; ????
    3b38:	ff ff       	.word	0xffff	; ????
    3b3a:	ff ff       	.word	0xffff	; ????
    3b3c:	ff ff       	.word	0xffff	; ????
    3b3e:	ff ff       	.word	0xffff	; ????
    3b40:	ff ff       	.word	0xffff	; ????
    3b42:	ff ff       	.word	0xffff	; ????
    3b44:	ff ff       	.word	0xffff	; ????
    3b46:	ff ff       	.word	0xffff	; ????
    3b48:	ff ff       	.word	0xffff	; ????
    3b4a:	ff ff       	.word	0xffff	; ????
    3b4c:	ff ff       	.word	0xffff	; ????
    3b4e:	ff ff       	.word	0xffff	; ????
    3b50:	ff ff       	.word	0xffff	; ????
    3b52:	ff ff       	.word	0xffff	; ????
    3b54:	ff ff       	.word	0xffff	; ????
    3b56:	ff ff       	.word	0xffff	; ????
    3b58:	ff ff       	.word	0xffff	; ????
    3b5a:	ff ff       	.word	0xffff	; ????
    3b5c:	ff ff       	.word	0xffff	; ????
    3b5e:	ff ff       	.word	0xffff	; ????
    3b60:	ff ff       	.word	0xffff	; ????
    3b62:	ff ff       	.word	0xffff	; ????
    3b64:	ff ff       	.word	0xffff	; ????
    3b66:	ff ff       	.word	0xffff	; ????
    3b68:	ff ff       	.word	0xffff	; ????
    3b6a:	ff ff       	.word	0xffff	; ????
    3b6c:	ff ff       	.word	0xffff	; ????
    3b6e:	ff ff       	.word	0xffff	; ????
    3b70:	ff ff       	.word	0xffff	; ????
    3b72:	ff ff       	.word	0xffff	; ????
    3b74:	ff ff       	.word	0xffff	; ????
    3b76:	ff ff       	.word	0xffff	; ????
    3b78:	ff ff       	.word	0xffff	; ????
    3b7a:	ff ff       	.word	0xffff	; ????
    3b7c:	ff ff       	.word	0xffff	; ????
    3b7e:	ff ff       	.word	0xffff	; ????
    3b80:	ff ff       	.word	0xffff	; ????
    3b82:	ff ff       	.word	0xffff	; ????
    3b84:	ff ff       	.word	0xffff	; ????
    3b86:	ff ff       	.word	0xffff	; ????
    3b88:	ff ff       	.word	0xffff	; ????
    3b8a:	ff ff       	.word	0xffff	; ????
    3b8c:	ff ff       	.word	0xffff	; ????
    3b8e:	ff ff       	.word	0xffff	; ????
    3b90:	ff ff       	.word	0xffff	; ????
    3b92:	ff ff       	.word	0xffff	; ????
    3b94:	ff ff       	.word	0xffff	; ????
    3b96:	ff ff       	.word	0xffff	; ????
    3b98:	ff ff       	.word	0xffff	; ????
    3b9a:	ff ff       	.word	0xffff	; ????
    3b9c:	ff ff       	.word	0xffff	; ????
    3b9e:	ff ff       	.word	0xffff	; ????
    3ba0:	ff ff       	.word	0xffff	; ????
    3ba2:	ff ff       	.word	0xffff	; ????
    3ba4:	ff ff       	.word	0xffff	; ????
    3ba6:	ff ff       	.word	0xffff	; ????
    3ba8:	ff ff       	.word	0xffff	; ????
    3baa:	ff ff       	.word	0xffff	; ????
    3bac:	ff ff       	.word	0xffff	; ????
    3bae:	ff ff       	.word	0xffff	; ????
    3bb0:	ff ff       	.word	0xffff	; ????
    3bb2:	ff ff       	.word	0xffff	; ????
    3bb4:	ff ff       	.word	0xffff	; ????
    3bb6:	ff ff       	.word	0xffff	; ????
    3bb8:	ff ff       	.word	0xffff	; ????
    3bba:	ff ff       	.word	0xffff	; ????
    3bbc:	ff ff       	.word	0xffff	; ????
    3bbe:	ff ff       	.word	0xffff	; ????
    3bc0:	ff ff       	.word	0xffff	; ????
    3bc2:	ff ff       	.word	0xffff	; ????
    3bc4:	ff ff       	.word	0xffff	; ????
    3bc6:	ff ff       	.word	0xffff	; ????
    3bc8:	ff ff       	.word	0xffff	; ????
    3bca:	ff ff       	.word	0xffff	; ????
    3bcc:	ff ff       	.word	0xffff	; ????
    3bce:	ff ff       	.word	0xffff	; ????
    3bd0:	ff ff       	.word	0xffff	; ????
    3bd2:	ff ff       	.word	0xffff	; ????
    3bd4:	ff ff       	.word	0xffff	; ????
    3bd6:	ff ff       	.word	0xffff	; ????
    3bd8:	ff ff       	.word	0xffff	; ????
    3bda:	ff ff       	.word	0xffff	; ????
    3bdc:	ff ff       	.word	0xffff	; ????
    3bde:	ff ff       	.word	0xffff	; ????
    3be0:	ff ff       	.word	0xffff	; ????
    3be2:	ff ff       	.word	0xffff	; ????
    3be4:	ff ff       	.word	0xffff	; ????
    3be6:	ff ff       	.word	0xffff	; ????
    3be8:	ff ff       	.word	0xffff	; ????
    3bea:	ff ff       	.word	0xffff	; ????
    3bec:	ff ff       	.word	0xffff	; ????
    3bee:	ff ff       	.word	0xffff	; ????
    3bf0:	ff ff       	.word	0xffff	; ????
    3bf2:	ff ff       	.word	0xffff	; ????
    3bf4:	ff ff       	.word	0xffff	; ????
    3bf6:	ff ff       	.word	0xffff	; ????
    3bf8:	ff ff       	.word	0xffff	; ????
    3bfa:	ff ff       	.word	0xffff	; ????
    3bfc:	ff ff       	.word	0xffff	; ????
    3bfe:	ff ff       	.word	0xffff	; ????
    3c00:	ff ff       	.word	0xffff	; ????
    3c02:	ff ff       	.word	0xffff	; ????
    3c04:	ff ff       	.word	0xffff	; ????
    3c06:	ff ff       	.word	0xffff	; ????
    3c08:	ff ff       	.word	0xffff	; ????
    3c0a:	ff ff       	.word	0xffff	; ????
    3c0c:	ff ff       	.word	0xffff	; ????
    3c0e:	ff ff       	.word	0xffff	; ????
    3c10:	ff ff       	.word	0xffff	; ????
    3c12:	ff ff       	.word	0xffff	; ????
    3c14:	ff ff       	.word	0xffff	; ????
    3c16:	ff ff       	.word	0xffff	; ????
    3c18:	ff ff       	.word	0xffff	; ????
    3c1a:	ff ff       	.word	0xffff	; ????
    3c1c:	ff ff       	.word	0xffff	; ????
    3c1e:	ff ff       	.word	0xffff	; ????
    3c20:	ff ff       	.word	0xffff	; ????
    3c22:	ff ff       	.word	0xffff	; ????
    3c24:	ff ff       	.word	0xffff	; ????
    3c26:	ff ff       	.word	0xffff	; ????
    3c28:	ff ff       	.word	0xffff	; ????
    3c2a:	ff ff       	.word	0xffff	; ????
    3c2c:	ff ff       	.word	0xffff	; ????
    3c2e:	ff ff       	.word	0xffff	; ????
    3c30:	ff ff       	.word	0xffff	; ????
    3c32:	ff ff       	.word	0xffff	; ????
    3c34:	ff ff       	.word	0xffff	; ????
    3c36:	ff ff       	.word	0xffff	; ????
    3c38:	ff ff       	.word	0xffff	; ????
    3c3a:	ff ff       	.word	0xffff	; ????
    3c3c:	ff ff       	.word	0xffff	; ????
    3c3e:	ff ff       	.word	0xffff	; ????
    3c40:	ff ff       	.word	0xffff	; ????
    3c42:	ff ff       	.word	0xffff	; ????
    3c44:	ff ff       	.word	0xffff	; ????
    3c46:	ff ff       	.word	0xffff	; ????
    3c48:	ff ff       	.word	0xffff	; ????
    3c4a:	ff ff       	.word	0xffff	; ????
    3c4c:	ff ff       	.word	0xffff	; ????
    3c4e:	ff ff       	.word	0xffff	; ????
    3c50:	ff ff       	.word	0xffff	; ????
    3c52:	ff ff       	.word	0xffff	; ????
    3c54:	ff ff       	.word	0xffff	; ????
    3c56:	ff ff       	.word	0xffff	; ????
    3c58:	ff ff       	.word	0xffff	; ????
    3c5a:	ff ff       	.word	0xffff	; ????
    3c5c:	ff ff       	.word	0xffff	; ????
    3c5e:	ff ff       	.word	0xffff	; ????
    3c60:	ff ff       	.word	0xffff	; ????
    3c62:	ff ff       	.word	0xffff	; ????
    3c64:	ff ff       	.word	0xffff	; ????
    3c66:	ff ff       	.word	0xffff	; ????
    3c68:	ff ff       	.word	0xffff	; ????
    3c6a:	ff ff       	.word	0xffff	; ????
    3c6c:	ff ff       	.word	0xffff	; ????
    3c6e:	ff ff       	.word	0xffff	; ????
    3c70:	ff ff       	.word	0xffff	; ????
    3c72:	ff ff       	.word	0xffff	; ????
    3c74:	ff ff       	.word	0xffff	; ????
    3c76:	ff ff       	.word	0xffff	; ????
    3c78:	ff ff       	.word	0xffff	; ????
    3c7a:	ff ff       	.word	0xffff	; ????
    3c7c:	ff ff       	.word	0xffff	; ????
    3c7e:	ff ff       	.word	0xffff	; ????
    3c80:	ff ff       	.word	0xffff	; ????
    3c82:	ff ff       	.word	0xffff	; ????
    3c84:	ff ff       	.word	0xffff	; ????
    3c86:	ff ff       	.word	0xffff	; ????
    3c88:	ff ff       	.word	0xffff	; ????
    3c8a:	ff ff       	.word	0xffff	; ????
    3c8c:	ff ff       	.word	0xffff	; ????
    3c8e:	ff ff       	.word	0xffff	; ????
    3c90:	ff ff       	.word	0xffff	; ????
    3c92:	ff ff       	.word	0xffff	; ????
    3c94:	ff ff       	.word	0xffff	; ????
    3c96:	ff ff       	.word	0xffff	; ????
    3c98:	ff ff       	.word	0xffff	; ????
    3c9a:	ff ff       	.word	0xffff	; ????
    3c9c:	ff ff       	.word	0xffff	; ????
    3c9e:	ff ff       	.word	0xffff	; ????
    3ca0:	ff ff       	.word	0xffff	; ????
    3ca2:	ff ff       	.word	0xffff	; ????
    3ca4:	ff ff       	.word	0xffff	; ????
    3ca6:	ff ff       	.word	0xffff	; ????
    3ca8:	ff ff       	.word	0xffff	; ????
    3caa:	ff ff       	.word	0xffff	; ????
    3cac:	ff ff       	.word	0xffff	; ????
    3cae:	ff ff       	.word	0xffff	; ????
    3cb0:	ff ff       	.word	0xffff	; ????
    3cb2:	ff ff       	.word	0xffff	; ????
    3cb4:	ff ff       	.word	0xffff	; ????
    3cb6:	ff ff       	.word	0xffff	; ????
    3cb8:	ff ff       	.word	0xffff	; ????
    3cba:	ff ff       	.word	0xffff	; ????
    3cbc:	ff ff       	.word	0xffff	; ????
    3cbe:	ff ff       	.word	0xffff	; ????
    3cc0:	ff ff       	.word	0xffff	; ????
    3cc2:	ff ff       	.word	0xffff	; ????
    3cc4:	ff ff       	.word	0xffff	; ????
    3cc6:	ff ff       	.word	0xffff	; ????
    3cc8:	ff ff       	.word	0xffff	; ????
    3cca:	ff ff       	.word	0xffff	; ????
    3ccc:	ff ff       	.word	0xffff	; ????
    3cce:	ff ff       	.word	0xffff	; ????
    3cd0:	ff ff       	.word	0xffff	; ????
    3cd2:	ff ff       	.word	0xffff	; ????
    3cd4:	ff ff       	.word	0xffff	; ????
    3cd6:	ff ff       	.word	0xffff	; ????
    3cd8:	ff ff       	.word	0xffff	; ????
    3cda:	ff ff       	.word	0xffff	; ????
    3cdc:	ff ff       	.word	0xffff	; ????
    3cde:	ff ff       	.word	0xffff	; ????
    3ce0:	ff ff       	.word	0xffff	; ????
    3ce2:	ff ff       	.word	0xffff	; ????
    3ce4:	ff ff       	.word	0xffff	; ????
    3ce6:	ff ff       	.word	0xffff	; ????
    3ce8:	ff ff       	.word	0xffff	; ????
    3cea:	ff ff       	.word	0xffff	; ????
    3cec:	ff ff       	.word	0xffff	; ????
    3cee:	ff ff       	.word	0xffff	; ????
    3cf0:	ff ff       	.word	0xffff	; ????
    3cf2:	ff ff       	.word	0xffff	; ????
    3cf4:	ff ff       	.word	0xffff	; ????
    3cf6:	ff ff       	.word	0xffff	; ????
    3cf8:	ff ff       	.word	0xffff	; ????
    3cfa:	ff ff       	.word	0xffff	; ????
    3cfc:	ff ff       	.word	0xffff	; ????
    3cfe:	ff ff       	.word	0xffff	; ????
    3d00:	ff ff       	.word	0xffff	; ????
    3d02:	ff ff       	.word	0xffff	; ????
    3d04:	ff ff       	.word	0xffff	; ????
    3d06:	ff ff       	.word	0xffff	; ????
    3d08:	ff ff       	.word	0xffff	; ????
    3d0a:	ff ff       	.word	0xffff	; ????
    3d0c:	ff ff       	.word	0xffff	; ????
    3d0e:	ff ff       	.word	0xffff	; ????
    3d10:	ff ff       	.word	0xffff	; ????
    3d12:	ff ff       	.word	0xffff	; ????
    3d14:	ff ff       	.word	0xffff	; ????
    3d16:	ff ff       	.word	0xffff	; ????
    3d18:	ff ff       	.word	0xffff	; ????
    3d1a:	ff ff       	.word	0xffff	; ????
    3d1c:	ff ff       	.word	0xffff	; ????
    3d1e:	ff ff       	.word	0xffff	; ????
    3d20:	ff ff       	.word	0xffff	; ????
    3d22:	ff ff       	.word	0xffff	; ????
    3d24:	ff ff       	.word	0xffff	; ????
    3d26:	ff ff       	.word	0xffff	; ????
    3d28:	ff ff       	.word	0xffff	; ????
    3d2a:	ff ff       	.word	0xffff	; ????
    3d2c:	ff ff       	.word	0xffff	; ????
    3d2e:	ff ff       	.word	0xffff	; ????
    3d30:	ff ff       	.word	0xffff	; ????
    3d32:	ff ff       	.word	0xffff	; ????
    3d34:	ff ff       	.word	0xffff	; ????
    3d36:	ff ff       	.word	0xffff	; ????
    3d38:	ff ff       	.word	0xffff	; ????
    3d3a:	ff ff       	.word	0xffff	; ????
    3d3c:	ff ff       	.word	0xffff	; ????
    3d3e:	ff ff       	.word	0xffff	; ????
    3d40:	ff ff       	.word	0xffff	; ????
    3d42:	ff ff       	.word	0xffff	; ????
    3d44:	ff ff       	.word	0xffff	; ????
    3d46:	ff ff       	.word	0xffff	; ????
    3d48:	ff ff       	.word	0xffff	; ????
    3d4a:	ff ff       	.word	0xffff	; ????
    3d4c:	ff ff       	.word	0xffff	; ????
    3d4e:	ff ff       	.word	0xffff	; ????
    3d50:	ff ff       	.word	0xffff	; ????
    3d52:	ff ff       	.word	0xffff	; ????
    3d54:	ff ff       	.word	0xffff	; ????
    3d56:	ff ff       	.word	0xffff	; ????
    3d58:	ff ff       	.word	0xffff	; ????
    3d5a:	ff ff       	.word	0xffff	; ????
    3d5c:	ff ff       	.word	0xffff	; ????
    3d5e:	ff ff       	.word	0xffff	; ????
    3d60:	ff ff       	.word	0xffff	; ????
    3d62:	ff ff       	.word	0xffff	; ????
    3d64:	ff ff       	.word	0xffff	; ????
    3d66:	ff ff       	.word	0xffff	; ????
    3d68:	ff ff       	.word	0xffff	; ????
    3d6a:	ff ff       	.word	0xffff	; ????
    3d6c:	ff ff       	.word	0xffff	; ????
    3d6e:	ff ff       	.word	0xffff	; ????
    3d70:	ff ff       	.word	0xffff	; ????
    3d72:	ff ff       	.word	0xffff	; ????
    3d74:	ff ff       	.word	0xffff	; ????
    3d76:	ff ff       	.word	0xffff	; ????
    3d78:	ff ff       	.word	0xffff	; ????
    3d7a:	ff ff       	.word	0xffff	; ????
    3d7c:	ff ff       	.word	0xffff	; ????
    3d7e:	ff ff       	.word	0xffff	; ????
    3d80:	ff ff       	.word	0xffff	; ????
    3d82:	ff ff       	.word	0xffff	; ????
    3d84:	ff ff       	.word	0xffff	; ????
    3d86:	ff ff       	.word	0xffff	; ????
    3d88:	ff ff       	.word	0xffff	; ????
    3d8a:	ff ff       	.word	0xffff	; ????
    3d8c:	ff ff       	.word	0xffff	; ????
    3d8e:	ff ff       	.word	0xffff	; ????
    3d90:	ff ff       	.word	0xffff	; ????
    3d92:	ff ff       	.word	0xffff	; ????
    3d94:	ff ff       	.word	0xffff	; ????
    3d96:	ff ff       	.word	0xffff	; ????
    3d98:	ff ff       	.word	0xffff	; ????
    3d9a:	ff ff       	.word	0xffff	; ????
    3d9c:	ff ff       	.word	0xffff	; ????
    3d9e:	ff ff       	.word	0xffff	; ????
    3da0:	ff ff       	.word	0xffff	; ????
    3da2:	ff ff       	.word	0xffff	; ????
    3da4:	ff ff       	.word	0xffff	; ????
    3da6:	ff ff       	.word	0xffff	; ????
    3da8:	ff ff       	.word	0xffff	; ????
    3daa:	ff ff       	.word	0xffff	; ????
    3dac:	ff ff       	.word	0xffff	; ????
    3dae:	ff ff       	.word	0xffff	; ????
    3db0:	ff ff       	.word	0xffff	; ????
    3db2:	ff ff       	.word	0xffff	; ????
    3db4:	ff ff       	.word	0xffff	; ????
    3db6:	ff ff       	.word	0xffff	; ????
    3db8:	ff ff       	.word	0xffff	; ????
    3dba:	ff ff       	.word	0xffff	; ????
    3dbc:	ff ff       	.word	0xffff	; ????
    3dbe:	ff ff       	.word	0xffff	; ????
    3dc0:	ff ff       	.word	0xffff	; ????
    3dc2:	ff ff       	.word	0xffff	; ????
    3dc4:	ff ff       	.word	0xffff	; ????
    3dc6:	ff ff       	.word	0xffff	; ????
    3dc8:	ff ff       	.word	0xffff	; ????
    3dca:	ff ff       	.word	0xffff	; ????
    3dcc:	ff ff       	.word	0xffff	; ????
    3dce:	ff ff       	.word	0xffff	; ????
    3dd0:	ff ff       	.word	0xffff	; ????
    3dd2:	ff ff       	.word	0xffff	; ????
    3dd4:	ff ff       	.word	0xffff	; ????
    3dd6:	ff ff       	.word	0xffff	; ????
    3dd8:	ff ff       	.word	0xffff	; ????
    3dda:	ff ff       	.word	0xffff	; ????
    3ddc:	ff ff       	.word	0xffff	; ????
    3dde:	ff ff       	.word	0xffff	; ????
    3de0:	ff ff       	.word	0xffff	; ????
    3de2:	ff ff       	.word	0xffff	; ????
    3de4:	ff ff       	.word	0xffff	; ????
    3de6:	ff ff       	.word	0xffff	; ????
    3de8:	ff ff       	.word	0xffff	; ????
    3dea:	ff ff       	.word	0xffff	; ????
    3dec:	ff ff       	.word	0xffff	; ????
    3dee:	ff ff       	.word	0xffff	; ????
    3df0:	ff ff       	.word	0xffff	; ????
    3df2:	ff ff       	.word	0xffff	; ????
    3df4:	ff ff       	.word	0xffff	; ????
    3df6:	ff ff       	.word	0xffff	; ????
    3df8:	ff ff       	.word	0xffff	; ????
    3dfa:	ff ff       	.word	0xffff	; ????
    3dfc:	ff ff       	.word	0xffff	; ????
    3dfe:	ff ff       	.word	0xffff	; ????
    3e00:	ff ff       	.word	0xffff	; ????
    3e02:	ff ff       	.word	0xffff	; ????
    3e04:	ff ff       	.word	0xffff	; ????
    3e06:	ff ff       	.word	0xffff	; ????
    3e08:	ff ff       	.word	0xffff	; ????
    3e0a:	ff ff       	.word	0xffff	; ????
    3e0c:	ff ff       	.word	0xffff	; ????
    3e0e:	ff ff       	.word	0xffff	; ????
    3e10:	ff ff       	.word	0xffff	; ????
    3e12:	ff ff       	.word	0xffff	; ????
    3e14:	ff ff       	.word	0xffff	; ????
    3e16:	ff ff       	.word	0xffff	; ????
    3e18:	ff ff       	.word	0xffff	; ????
    3e1a:	ff ff       	.word	0xffff	; ????
    3e1c:	ff ff       	.word	0xffff	; ????
    3e1e:	ff ff       	.word	0xffff	; ????
    3e20:	ff ff       	.word	0xffff	; ????
    3e22:	ff ff       	.word	0xffff	; ????
    3e24:	ff ff       	.word	0xffff	; ????
    3e26:	ff ff       	.word	0xffff	; ????
    3e28:	ff ff       	.word	0xffff	; ????
    3e2a:	ff ff       	.word	0xffff	; ????
    3e2c:	ff ff       	.word	0xffff	; ????
    3e2e:	ff ff       	.word	0xffff	; ????
    3e30:	ff ff       	.word	0xffff	; ????
    3e32:	ff ff       	.word	0xffff	; ????
    3e34:	ff ff       	.word	0xffff	; ????
    3e36:	ff ff       	.word	0xffff	; ????
    3e38:	ff ff       	.word	0xffff	; ????
    3e3a:	ff ff       	.word	0xffff	; ????
    3e3c:	ff ff       	.word	0xffff	; ????
    3e3e:	ff ff       	.word	0xffff	; ????
    3e40:	ff ff       	.word	0xffff	; ????
    3e42:	ff ff       	.word	0xffff	; ????
    3e44:	ff ff       	.word	0xffff	; ????
    3e46:	ff ff       	.word	0xffff	; ????
    3e48:	ff ff       	.word	0xffff	; ????
    3e4a:	ff ff       	.word	0xffff	; ????
    3e4c:	ff ff       	.word	0xffff	; ????
    3e4e:	ff ff       	.word	0xffff	; ????
    3e50:	ff ff       	.word	0xffff	; ????
    3e52:	ff ff       	.word	0xffff	; ????
    3e54:	ff ff       	.word	0xffff	; ????
    3e56:	ff ff       	.word	0xffff	; ????
    3e58:	ff ff       	.word	0xffff	; ????
    3e5a:	ff ff       	.word	0xffff	; ????
    3e5c:	ff ff       	.word	0xffff	; ????
    3e5e:	ff ff       	.word	0xffff	; ????
    3e60:	ff ff       	.word	0xffff	; ????
    3e62:	ff ff       	.word	0xffff	; ????
    3e64:	ff ff       	.word	0xffff	; ????
    3e66:	ff ff       	.word	0xffff	; ????
    3e68:	ff ff       	.word	0xffff	; ????
    3e6a:	ff ff       	.word	0xffff	; ????
    3e6c:	ff ff       	.word	0xffff	; ????
    3e6e:	ff ff       	.word	0xffff	; ????
    3e70:	ff ff       	.word	0xffff	; ????
    3e72:	ff ff       	.word	0xffff	; ????
    3e74:	ff ff       	.word	0xffff	; ????
    3e76:	ff ff       	.word	0xffff	; ????
    3e78:	ff ff       	.word	0xffff	; ????
    3e7a:	ff ff       	.word	0xffff	; ????
    3e7c:	ff ff       	.word	0xffff	; ????
    3e7e:	ff ff       	.word	0xffff	; ????
    3e80:	ff ff       	.word	0xffff	; ????
    3e82:	ff ff       	.word	0xffff	; ????
    3e84:	ff ff       	.word	0xffff	; ????
    3e86:	ff ff       	.word	0xffff	; ????
    3e88:	ff ff       	.word	0xffff	; ????
    3e8a:	ff ff       	.word	0xffff	; ????
    3e8c:	ff ff       	.word	0xffff	; ????
    3e8e:	ff ff       	.word	0xffff	; ????
    3e90:	ff ff       	.word	0xffff	; ????
    3e92:	ff ff       	.word	0xffff	; ????
    3e94:	ff ff       	.word	0xffff	; ????
    3e96:	ff ff       	.word	0xffff	; ????
    3e98:	ff ff       	.word	0xffff	; ????
    3e9a:	ff ff       	.word	0xffff	; ????
    3e9c:	ff ff       	.word	0xffff	; ????
    3e9e:	ff ff       	.word	0xffff	; ????
    3ea0:	ff ff       	.word	0xffff	; ????
    3ea2:	ff ff       	.word	0xffff	; ????
    3ea4:	ff ff       	.word	0xffff	; ????
    3ea6:	ff ff       	.word	0xffff	; ????
    3ea8:	ff ff       	.word	0xffff	; ????
    3eaa:	ff ff       	.word	0xffff	; ????
    3eac:	ff ff       	.word	0xffff	; ????
    3eae:	ff ff       	.word	0xffff	; ????
    3eb0:	ff ff       	.word	0xffff	; ????
    3eb2:	ff ff       	.word	0xffff	; ????
    3eb4:	ff ff       	.word	0xffff	; ????
    3eb6:	ff ff       	.word	0xffff	; ????
    3eb8:	ff ff       	.word	0xffff	; ????
    3eba:	ff ff       	.word	0xffff	; ????
    3ebc:	ff ff       	.word	0xffff	; ????
    3ebe:	ff ff       	.word	0xffff	; ????
    3ec0:	ff ff       	.word	0xffff	; ????
    3ec2:	ff ff       	.word	0xffff	; ????
    3ec4:	ff ff       	.word	0xffff	; ????
    3ec6:	ff ff       	.word	0xffff	; ????
    3ec8:	ff ff       	.word	0xffff	; ????
    3eca:	ff ff       	.word	0xffff	; ????
    3ecc:	ff ff       	.word	0xffff	; ????
    3ece:	ff ff       	.word	0xffff	; ????
    3ed0:	ff ff       	.word	0xffff	; ????
    3ed2:	ff ff       	.word	0xffff	; ????
    3ed4:	ff ff       	.word	0xffff	; ????
    3ed6:	ff ff       	.word	0xffff	; ????
    3ed8:	ff ff       	.word	0xffff	; ????
    3eda:	ff ff       	.word	0xffff	; ????
    3edc:	ff ff       	.word	0xffff	; ????
    3ede:	ff ff       	.word	0xffff	; ????
    3ee0:	ff ff       	.word	0xffff	; ????
    3ee2:	ff ff       	.word	0xffff	; ????
    3ee4:	ff ff       	.word	0xffff	; ????
    3ee6:	ff ff       	.word	0xffff	; ????
    3ee8:	ff ff       	.word	0xffff	; ????
    3eea:	ff ff       	.word	0xffff	; ????
    3eec:	ff ff       	.word	0xffff	; ????
    3eee:	ff ff       	.word	0xffff	; ????
    3ef0:	ff ff       	.word	0xffff	; ????
    3ef2:	ff ff       	.word	0xffff	; ????
    3ef4:	ff ff       	.word	0xffff	; ????
    3ef6:	ff ff       	.word	0xffff	; ????
    3ef8:	ff ff       	.word	0xffff	; ????
    3efa:	ff ff       	.word	0xffff	; ????
    3efc:	ff ff       	.word	0xffff	; ????
    3efe:	ff ff       	.word	0xffff	; ????
    3f00:	ff ff       	.word	0xffff	; ????
    3f02:	ff ff       	.word	0xffff	; ????
    3f04:	ff ff       	.word	0xffff	; ????
    3f06:	ff ff       	.word	0xffff	; ????
    3f08:	ff ff       	.word	0xffff	; ????
    3f0a:	ff ff       	.word	0xffff	; ????
    3f0c:	ff ff       	.word	0xffff	; ????
    3f0e:	ff ff       	.word	0xffff	; ????
    3f10:	ff ff       	.word	0xffff	; ????
    3f12:	ff ff       	.word	0xffff	; ????
    3f14:	ff ff       	.word	0xffff	; ????
    3f16:	ff ff       	.word	0xffff	; ????
    3f18:	ff ff       	.word	0xffff	; ????
    3f1a:	ff ff       	.word	0xffff	; ????
    3f1c:	ff ff       	.word	0xffff	; ????
    3f1e:	ff ff       	.word	0xffff	; ????
    3f20:	ff ff       	.word	0xffff	; ????
    3f22:	ff ff       	.word	0xffff	; ????
    3f24:	ff ff       	.word	0xffff	; ????
    3f26:	ff ff       	.word	0xffff	; ????
    3f28:	ff ff       	.word	0xffff	; ????
    3f2a:	ff ff       	.word	0xffff	; ????
    3f2c:	ff ff       	.word	0xffff	; ????
    3f2e:	ff ff       	.word	0xffff	; ????
    3f30:	ff ff       	.word	0xffff	; ????
    3f32:	ff ff       	.word	0xffff	; ????
    3f34:	ff ff       	.word	0xffff	; ????
    3f36:	ff ff       	.word	0xffff	; ????
    3f38:	ff ff       	.word	0xffff	; ????
    3f3a:	ff ff       	.word	0xffff	; ????
    3f3c:	ff ff       	.word	0xffff	; ????
    3f3e:	ff ff       	.word	0xffff	; ????
    3f40:	ff ff       	.word	0xffff	; ????
    3f42:	ff ff       	.word	0xffff	; ????
    3f44:	ff ff       	.word	0xffff	; ????
    3f46:	ff ff       	.word	0xffff	; ????
    3f48:	ff ff       	.word	0xffff	; ????
    3f4a:	ff ff       	.word	0xffff	; ????
    3f4c:	ff ff       	.word	0xffff	; ????
    3f4e:	ff ff       	.word	0xffff	; ????
    3f50:	ff ff       	.word	0xffff	; ????
    3f52:	ff ff       	.word	0xffff	; ????
    3f54:	ff ff       	.word	0xffff	; ????
    3f56:	ff ff       	.word	0xffff	; ????
    3f58:	ff ff       	.word	0xffff	; ????
    3f5a:	ff ff       	.word	0xffff	; ????
    3f5c:	ff ff       	.word	0xffff	; ????
    3f5e:	ff ff       	.word	0xffff	; ????
    3f60:	ff ff       	.word	0xffff	; ????
    3f62:	ff ff       	.word	0xffff	; ????
    3f64:	ff ff       	.word	0xffff	; ????
    3f66:	ff ff       	.word	0xffff	; ????
    3f68:	ff ff       	.word	0xffff	; ????
    3f6a:	ff ff       	.word	0xffff	; ????
    3f6c:	ff ff       	.word	0xffff	; ????
    3f6e:	ff ff       	.word	0xffff	; ????
    3f70:	ff ff       	.word	0xffff	; ????
    3f72:	ff ff       	.word	0xffff	; ????
    3f74:	ff ff       	.word	0xffff	; ????
    3f76:	ff ff       	.word	0xffff	; ????
    3f78:	ff ff       	.word	0xffff	; ????
    3f7a:	ff ff       	.word	0xffff	; ????
    3f7c:	ff ff       	.word	0xffff	; ????
    3f7e:	ff ff       	.word	0xffff	; ????
    3f80:	ff ff       	.word	0xffff	; ????
    3f82:	ff ff       	.word	0xffff	; ????
    3f84:	ff ff       	.word	0xffff	; ????
    3f86:	ff ff       	.word	0xffff	; ????
    3f88:	ff ff       	.word	0xffff	; ????
    3f8a:	ff ff       	.word	0xffff	; ????
    3f8c:	ff ff       	.word	0xffff	; ????
    3f8e:	ff ff       	.word	0xffff	; ????
    3f90:	ff ff       	.word	0xffff	; ????
    3f92:	ff ff       	.word	0xffff	; ????
    3f94:	ff ff       	.word	0xffff	; ????
    3f96:	ff ff       	.word	0xffff	; ????
    3f98:	ff ff       	.word	0xffff	; ????
    3f9a:	ff ff       	.word	0xffff	; ????
    3f9c:	ff ff       	.word	0xffff	; ????
    3f9e:	ff ff       	.word	0xffff	; ????
    3fa0:	ff ff       	.word	0xffff	; ????
    3fa2:	ff ff       	.word	0xffff	; ????
    3fa4:	ff ff       	.word	0xffff	; ????
    3fa6:	ff ff       	.word	0xffff	; ????
    3fa8:	ff ff       	.word	0xffff	; ????
    3faa:	ff ff       	.word	0xffff	; ????
    3fac:	ff ff       	.word	0xffff	; ????
    3fae:	ff ff       	.word	0xffff	; ????
    3fb0:	ff ff       	.word	0xffff	; ????
    3fb2:	ff ff       	.word	0xffff	; ????
    3fb4:	ff ff       	.word	0xffff	; ????
    3fb6:	ff ff       	.word	0xffff	; ????
    3fb8:	ff ff       	.word	0xffff	; ????
    3fba:	ff ff       	.word	0xffff	; ????
    3fbc:	ff ff       	.word	0xffff	; ????
    3fbe:	ff ff       	.word	0xffff	; ????
    3fc0:	ff ff       	.word	0xffff	; ????
    3fc2:	ff ff       	.word	0xffff	; ????
    3fc4:	ff ff       	.word	0xffff	; ????
    3fc6:	ff ff       	.word	0xffff	; ????
    3fc8:	ff ff       	.word	0xffff	; ????
    3fca:	ff ff       	.word	0xffff	; ????
    3fcc:	ff ff       	.word	0xffff	; ????
    3fce:	ff ff       	.word	0xffff	; ????
    3fd0:	ff ff       	.word	0xffff	; ????
    3fd2:	ff ff       	.word	0xffff	; ????
    3fd4:	ff ff       	.word	0xffff	; ????
    3fd6:	ff ff       	.word	0xffff	; ????
    3fd8:	ff ff       	.word	0xffff	; ????
    3fda:	ff ff       	.word	0xffff	; ????
    3fdc:	ff ff       	.word	0xffff	; ????
    3fde:	ff ff       	.word	0xffff	; ????
    3fe0:	ff ff       	.word	0xffff	; ????
    3fe2:	ff ff       	.word	0xffff	; ????
    3fe4:	ff ff       	.word	0xffff	; ????
    3fe6:	ff ff       	.word	0xffff	; ????
    3fe8:	ff ff       	.word	0xffff	; ????
    3fea:	ff ff       	.word	0xffff	; ????
    3fec:	ff ff       	.word	0xffff	; ????
    3fee:	ff ff       	.word	0xffff	; ????
    3ff0:	ff ff       	.word	0xffff	; ????
    3ff2:	ff ff       	.word	0xffff	; ????
    3ff4:	ff ff       	.word	0xffff	; ????
    3ff6:	ff ff       	.word	0xffff	; ????
    3ff8:	ff ff       	.word	0xffff	; ????
    3ffa:	ff ff       	.word	0xffff	; ????
    3ffc:	ff ff       	.word	0xffff	; ????
    3ffe:	ff ff       	.word	0xffff	; ????
    4000:	ff ff       	.word	0xffff	; ????
    4002:	ff ff       	.word	0xffff	; ????
    4004:	ff ff       	.word	0xffff	; ????
    4006:	ff ff       	.word	0xffff	; ????
    4008:	ff ff       	.word	0xffff	; ????
    400a:	ff ff       	.word	0xffff	; ????
    400c:	ff ff       	.word	0xffff	; ????
    400e:	ff ff       	.word	0xffff	; ????
    4010:	ff ff       	.word	0xffff	; ????
    4012:	ff ff       	.word	0xffff	; ????
    4014:	ff ff       	.word	0xffff	; ????
    4016:	ff ff       	.word	0xffff	; ????
    4018:	ff ff       	.word	0xffff	; ????
    401a:	ff ff       	.word	0xffff	; ????
    401c:	ff ff       	.word	0xffff	; ????
    401e:	ff ff       	.word	0xffff	; ????
    4020:	ff ff       	.word	0xffff	; ????
    4022:	ff ff       	.word	0xffff	; ????
    4024:	ff ff       	.word	0xffff	; ????
    4026:	ff ff       	.word	0xffff	; ????
    4028:	ff ff       	.word	0xffff	; ????
    402a:	ff ff       	.word	0xffff	; ????
    402c:	ff ff       	.word	0xffff	; ????
    402e:	ff ff       	.word	0xffff	; ????
    4030:	ff ff       	.word	0xffff	; ????
    4032:	ff ff       	.word	0xffff	; ????
    4034:	ff ff       	.word	0xffff	; ????
    4036:	ff ff       	.word	0xffff	; ????
    4038:	ff ff       	.word	0xffff	; ????
    403a:	ff ff       	.word	0xffff	; ????
    403c:	ff ff       	.word	0xffff	; ????
    403e:	ff ff       	.word	0xffff	; ????
    4040:	ff ff       	.word	0xffff	; ????
    4042:	ff ff       	.word	0xffff	; ????
    4044:	ff ff       	.word	0xffff	; ????
    4046:	ff ff       	.word	0xffff	; ????
    4048:	ff ff       	.word	0xffff	; ????
    404a:	ff ff       	.word	0xffff	; ????
    404c:	ff ff       	.word	0xffff	; ????
    404e:	ff ff       	.word	0xffff	; ????
    4050:	ff ff       	.word	0xffff	; ????
    4052:	ff ff       	.word	0xffff	; ????
    4054:	ff ff       	.word	0xffff	; ????
    4056:	ff ff       	.word	0xffff	; ????
    4058:	ff ff       	.word	0xffff	; ????
    405a:	ff ff       	.word	0xffff	; ????
    405c:	ff ff       	.word	0xffff	; ????
    405e:	ff ff       	.word	0xffff	; ????
    4060:	ff ff       	.word	0xffff	; ????
    4062:	ff ff       	.word	0xffff	; ????
    4064:	ff ff       	.word	0xffff	; ????
    4066:	ff ff       	.word	0xffff	; ????
    4068:	ff ff       	.word	0xffff	; ????
    406a:	ff ff       	.word	0xffff	; ????
    406c:	ff ff       	.word	0xffff	; ????
    406e:	ff ff       	.word	0xffff	; ????
    4070:	ff ff       	.word	0xffff	; ????
    4072:	ff ff       	.word	0xffff	; ????
    4074:	ff ff       	.word	0xffff	; ????
    4076:	ff ff       	.word	0xffff	; ????
    4078:	ff ff       	.word	0xffff	; ????
    407a:	ff ff       	.word	0xffff	; ????
    407c:	ff ff       	.word	0xffff	; ????
    407e:	ff ff       	.word	0xffff	; ????
    4080:	ff ff       	.word	0xffff	; ????
    4082:	ff ff       	.word	0xffff	; ????
    4084:	ff ff       	.word	0xffff	; ????
    4086:	ff ff       	.word	0xffff	; ????
    4088:	ff ff       	.word	0xffff	; ????
    408a:	ff ff       	.word	0xffff	; ????
    408c:	ff ff       	.word	0xffff	; ????
    408e:	ff ff       	.word	0xffff	; ????
    4090:	ff ff       	.word	0xffff	; ????
    4092:	ff ff       	.word	0xffff	; ????
    4094:	ff ff       	.word	0xffff	; ????
    4096:	ff ff       	.word	0xffff	; ????
    4098:	ff ff       	.word	0xffff	; ????
    409a:	ff ff       	.word	0xffff	; ????
    409c:	ff ff       	.word	0xffff	; ????
    409e:	ff ff       	.word	0xffff	; ????
    40a0:	ff ff       	.word	0xffff	; ????
    40a2:	ff ff       	.word	0xffff	; ????
    40a4:	ff ff       	.word	0xffff	; ????
    40a6:	ff ff       	.word	0xffff	; ????
    40a8:	ff ff       	.word	0xffff	; ????
    40aa:	ff ff       	.word	0xffff	; ????
    40ac:	ff ff       	.word	0xffff	; ????
    40ae:	ff ff       	.word	0xffff	; ????
    40b0:	ff ff       	.word	0xffff	; ????
    40b2:	ff ff       	.word	0xffff	; ????
    40b4:	ff ff       	.word	0xffff	; ????
    40b6:	ff ff       	.word	0xffff	; ????
    40b8:	ff ff       	.word	0xffff	; ????
    40ba:	ff ff       	.word	0xffff	; ????
    40bc:	ff ff       	.word	0xffff	; ????
    40be:	ff ff       	.word	0xffff	; ????
    40c0:	ff ff       	.word	0xffff	; ????
    40c2:	ff ff       	.word	0xffff	; ????
    40c4:	ff ff       	.word	0xffff	; ????
    40c6:	ff ff       	.word	0xffff	; ????
    40c8:	ff ff       	.word	0xffff	; ????
    40ca:	ff ff       	.word	0xffff	; ????
    40cc:	ff ff       	.word	0xffff	; ????
    40ce:	ff ff       	.word	0xffff	; ????
    40d0:	ff ff       	.word	0xffff	; ????
    40d2:	ff ff       	.word	0xffff	; ????
    40d4:	ff ff       	.word	0xffff	; ????
    40d6:	ff ff       	.word	0xffff	; ????
    40d8:	ff ff       	.word	0xffff	; ????
    40da:	ff ff       	.word	0xffff	; ????
    40dc:	ff ff       	.word	0xffff	; ????
    40de:	ff ff       	.word	0xffff	; ????
    40e0:	ff ff       	.word	0xffff	; ????
    40e2:	ff ff       	.word	0xffff	; ????
    40e4:	ff ff       	.word	0xffff	; ????
    40e6:	ff ff       	.word	0xffff	; ????
    40e8:	ff ff       	.word	0xffff	; ????
    40ea:	ff ff       	.word	0xffff	; ????
    40ec:	ff ff       	.word	0xffff	; ????
    40ee:	ff ff       	.word	0xffff	; ????
    40f0:	ff ff       	.word	0xffff	; ????
    40f2:	ff ff       	.word	0xffff	; ????
    40f4:	ff ff       	.word	0xffff	; ????
    40f6:	ff ff       	.word	0xffff	; ????
    40f8:	ff ff       	.word	0xffff	; ????
    40fa:	ff ff       	.word	0xffff	; ????
    40fc:	ff ff       	.word	0xffff	; ????
    40fe:	ff ff       	.word	0xffff	; ????
    4100:	ff ff       	.word	0xffff	; ????
    4102:	ff ff       	.word	0xffff	; ????
    4104:	ff ff       	.word	0xffff	; ????
    4106:	ff ff       	.word	0xffff	; ????
    4108:	ff ff       	.word	0xffff	; ????
    410a:	ff ff       	.word	0xffff	; ????
    410c:	ff ff       	.word	0xffff	; ????
    410e:	ff ff       	.word	0xffff	; ????
    4110:	ff ff       	.word	0xffff	; ????
    4112:	ff ff       	.word	0xffff	; ????
    4114:	ff ff       	.word	0xffff	; ????
    4116:	ff ff       	.word	0xffff	; ????
    4118:	ff ff       	.word	0xffff	; ????
    411a:	ff ff       	.word	0xffff	; ????
    411c:	ff ff       	.word	0xffff	; ????
    411e:	ff ff       	.word	0xffff	; ????
    4120:	ff ff       	.word	0xffff	; ????
    4122:	ff ff       	.word	0xffff	; ????
    4124:	ff ff       	.word	0xffff	; ????
    4126:	ff ff       	.word	0xffff	; ????
    4128:	ff ff       	.word	0xffff	; ????
    412a:	ff ff       	.word	0xffff	; ????
    412c:	ff ff       	.word	0xffff	; ????
    412e:	ff ff       	.word	0xffff	; ????
    4130:	ff ff       	.word	0xffff	; ????
    4132:	ff ff       	.word	0xffff	; ????
    4134:	ff ff       	.word	0xffff	; ????
    4136:	ff ff       	.word	0xffff	; ????
    4138:	ff ff       	.word	0xffff	; ????
    413a:	ff ff       	.word	0xffff	; ????
    413c:	ff ff       	.word	0xffff	; ????
    413e:	ff ff       	.word	0xffff	; ????
    4140:	ff ff       	.word	0xffff	; ????
    4142:	ff ff       	.word	0xffff	; ????
    4144:	ff ff       	.word	0xffff	; ????
    4146:	ff ff       	.word	0xffff	; ????
    4148:	ff ff       	.word	0xffff	; ????
    414a:	ff ff       	.word	0xffff	; ????
    414c:	ff ff       	.word	0xffff	; ????
    414e:	ff ff       	.word	0xffff	; ????
    4150:	ff ff       	.word	0xffff	; ????
    4152:	ff ff       	.word	0xffff	; ????
    4154:	ff ff       	.word	0xffff	; ????
    4156:	ff ff       	.word	0xffff	; ????
    4158:	ff ff       	.word	0xffff	; ????
    415a:	ff ff       	.word	0xffff	; ????
    415c:	ff ff       	.word	0xffff	; ????
    415e:	ff ff       	.word	0xffff	; ????
    4160:	ff ff       	.word	0xffff	; ????
    4162:	ff ff       	.word	0xffff	; ????
    4164:	ff ff       	.word	0xffff	; ????
    4166:	ff ff       	.word	0xffff	; ????
    4168:	ff ff       	.word	0xffff	; ????
    416a:	ff ff       	.word	0xffff	; ????
    416c:	ff ff       	.word	0xffff	; ????
    416e:	ff ff       	.word	0xffff	; ????
    4170:	ff ff       	.word	0xffff	; ????
    4172:	ff ff       	.word	0xffff	; ????
    4174:	ff ff       	.word	0xffff	; ????
    4176:	ff ff       	.word	0xffff	; ????
    4178:	ff ff       	.word	0xffff	; ????
    417a:	ff ff       	.word	0xffff	; ????
    417c:	ff ff       	.word	0xffff	; ????
    417e:	ff ff       	.word	0xffff	; ????
    4180:	ff ff       	.word	0xffff	; ????
    4182:	ff ff       	.word	0xffff	; ????
    4184:	ff ff       	.word	0xffff	; ????
    4186:	ff ff       	.word	0xffff	; ????
    4188:	ff ff       	.word	0xffff	; ????
    418a:	ff ff       	.word	0xffff	; ????
    418c:	ff ff       	.word	0xffff	; ????
    418e:	ff ff       	.word	0xffff	; ????
    4190:	ff ff       	.word	0xffff	; ????
    4192:	ff ff       	.word	0xffff	; ????
    4194:	ff ff       	.word	0xffff	; ????
    4196:	ff ff       	.word	0xffff	; ????
    4198:	ff ff       	.word	0xffff	; ????
    419a:	ff ff       	.word	0xffff	; ????
    419c:	ff ff       	.word	0xffff	; ????
    419e:	ff ff       	.word	0xffff	; ????
    41a0:	ff ff       	.word	0xffff	; ????
    41a2:	ff ff       	.word	0xffff	; ????
    41a4:	ff ff       	.word	0xffff	; ????
    41a6:	ff ff       	.word	0xffff	; ????
    41a8:	ff ff       	.word	0xffff	; ????
    41aa:	ff ff       	.word	0xffff	; ????
    41ac:	ff ff       	.word	0xffff	; ????
    41ae:	ff ff       	.word	0xffff	; ????
    41b0:	ff ff       	.word	0xffff	; ????
    41b2:	ff ff       	.word	0xffff	; ????
    41b4:	ff ff       	.word	0xffff	; ????
    41b6:	ff ff       	.word	0xffff	; ????
    41b8:	ff ff       	.word	0xffff	; ????
    41ba:	ff ff       	.word	0xffff	; ????
    41bc:	ff ff       	.word	0xffff	; ????
    41be:	ff ff       	.word	0xffff	; ????
    41c0:	ff ff       	.word	0xffff	; ????
    41c2:	ff ff       	.word	0xffff	; ????
    41c4:	ff ff       	.word	0xffff	; ????
    41c6:	ff ff       	.word	0xffff	; ????
    41c8:	ff ff       	.word	0xffff	; ????
    41ca:	ff ff       	.word	0xffff	; ????
    41cc:	ff ff       	.word	0xffff	; ????
    41ce:	ff ff       	.word	0xffff	; ????
    41d0:	ff ff       	.word	0xffff	; ????
    41d2:	ff ff       	.word	0xffff	; ????
    41d4:	ff ff       	.word	0xffff	; ????
    41d6:	ff ff       	.word	0xffff	; ????
    41d8:	ff ff       	.word	0xffff	; ????
    41da:	ff ff       	.word	0xffff	; ????
    41dc:	ff ff       	.word	0xffff	; ????
    41de:	ff ff       	.word	0xffff	; ????
    41e0:	ff ff       	.word	0xffff	; ????
    41e2:	ff ff       	.word	0xffff	; ????
    41e4:	ff ff       	.word	0xffff	; ????
    41e6:	ff ff       	.word	0xffff	; ????
    41e8:	ff ff       	.word	0xffff	; ????
    41ea:	ff ff       	.word	0xffff	; ????
    41ec:	ff ff       	.word	0xffff	; ????
    41ee:	ff ff       	.word	0xffff	; ????
    41f0:	ff ff       	.word	0xffff	; ????
    41f2:	ff ff       	.word	0xffff	; ????
    41f4:	ff ff       	.word	0xffff	; ????
    41f6:	ff ff       	.word	0xffff	; ????
    41f8:	ff ff       	.word	0xffff	; ????
    41fa:	ff ff       	.word	0xffff	; ????
    41fc:	ff ff       	.word	0xffff	; ????
    41fe:	ff ff       	.word	0xffff	; ????
    4200:	ff ff       	.word	0xffff	; ????
    4202:	ff ff       	.word	0xffff	; ????
    4204:	ff ff       	.word	0xffff	; ????
    4206:	ff ff       	.word	0xffff	; ????
    4208:	ff ff       	.word	0xffff	; ????
    420a:	ff ff       	.word	0xffff	; ????
    420c:	ff ff       	.word	0xffff	; ????
    420e:	ff ff       	.word	0xffff	; ????
    4210:	ff ff       	.word	0xffff	; ????
    4212:	ff ff       	.word	0xffff	; ????
    4214:	ff ff       	.word	0xffff	; ????
    4216:	ff ff       	.word	0xffff	; ????
    4218:	ff ff       	.word	0xffff	; ????
    421a:	ff ff       	.word	0xffff	; ????
    421c:	ff ff       	.word	0xffff	; ????
    421e:	ff ff       	.word	0xffff	; ????
    4220:	ff ff       	.word	0xffff	; ????
    4222:	ff ff       	.word	0xffff	; ????
    4224:	ff ff       	.word	0xffff	; ????
    4226:	ff ff       	.word	0xffff	; ????
    4228:	ff ff       	.word	0xffff	; ????
    422a:	ff ff       	.word	0xffff	; ????
    422c:	ff ff       	.word	0xffff	; ????
    422e:	ff ff       	.word	0xffff	; ????
    4230:	ff ff       	.word	0xffff	; ????
    4232:	ff ff       	.word	0xffff	; ????
    4234:	ff ff       	.word	0xffff	; ????
    4236:	ff ff       	.word	0xffff	; ????
    4238:	ff ff       	.word	0xffff	; ????
    423a:	ff ff       	.word	0xffff	; ????
    423c:	ff ff       	.word	0xffff	; ????
    423e:	ff ff       	.word	0xffff	; ????
    4240:	ff ff       	.word	0xffff	; ????
    4242:	ff ff       	.word	0xffff	; ????
    4244:	ff ff       	.word	0xffff	; ????
    4246:	ff ff       	.word	0xffff	; ????
    4248:	ff ff       	.word	0xffff	; ????
    424a:	ff ff       	.word	0xffff	; ????
    424c:	ff ff       	.word	0xffff	; ????
    424e:	ff ff       	.word	0xffff	; ????
    4250:	ff ff       	.word	0xffff	; ????
    4252:	ff ff       	.word	0xffff	; ????
    4254:	ff ff       	.word	0xffff	; ????
    4256:	ff ff       	.word	0xffff	; ????
    4258:	ff ff       	.word	0xffff	; ????
    425a:	ff ff       	.word	0xffff	; ????
    425c:	ff ff       	.word	0xffff	; ????
    425e:	ff ff       	.word	0xffff	; ????
    4260:	ff ff       	.word	0xffff	; ????
    4262:	ff ff       	.word	0xffff	; ????
    4264:	ff ff       	.word	0xffff	; ????
    4266:	ff ff       	.word	0xffff	; ????
    4268:	ff ff       	.word	0xffff	; ????
    426a:	ff ff       	.word	0xffff	; ????
    426c:	ff ff       	.word	0xffff	; ????
    426e:	ff ff       	.word	0xffff	; ????
    4270:	ff ff       	.word	0xffff	; ????
    4272:	ff ff       	.word	0xffff	; ????
    4274:	ff ff       	.word	0xffff	; ????
    4276:	ff ff       	.word	0xffff	; ????
    4278:	ff ff       	.word	0xffff	; ????
    427a:	ff ff       	.word	0xffff	; ????
    427c:	ff ff       	.word	0xffff	; ????
    427e:	ff ff       	.word	0xffff	; ????
    4280:	ff ff       	.word	0xffff	; ????
    4282:	ff ff       	.word	0xffff	; ????
    4284:	ff ff       	.word	0xffff	; ????
    4286:	ff ff       	.word	0xffff	; ????
    4288:	ff ff       	.word	0xffff	; ????
    428a:	ff ff       	.word	0xffff	; ????
    428c:	ff ff       	.word	0xffff	; ????
    428e:	ff ff       	.word	0xffff	; ????
    4290:	ff ff       	.word	0xffff	; ????
    4292:	ff ff       	.word	0xffff	; ????
    4294:	ff ff       	.word	0xffff	; ????
    4296:	ff ff       	.word	0xffff	; ????
    4298:	ff ff       	.word	0xffff	; ????
    429a:	ff ff       	.word	0xffff	; ????
    429c:	ff ff       	.word	0xffff	; ????
    429e:	ff ff       	.word	0xffff	; ????
    42a0:	ff ff       	.word	0xffff	; ????
    42a2:	ff ff       	.word	0xffff	; ????
    42a4:	ff ff       	.word	0xffff	; ????
    42a6:	ff ff       	.word	0xffff	; ????
    42a8:	ff ff       	.word	0xffff	; ????
    42aa:	ff ff       	.word	0xffff	; ????
    42ac:	ff ff       	.word	0xffff	; ????
    42ae:	ff ff       	.word	0xffff	; ????
    42b0:	ff ff       	.word	0xffff	; ????
    42b2:	ff ff       	.word	0xffff	; ????
    42b4:	ff ff       	.word	0xffff	; ????
    42b6:	ff ff       	.word	0xffff	; ????
    42b8:	ff ff       	.word	0xffff	; ????
    42ba:	ff ff       	.word	0xffff	; ????
    42bc:	ff ff       	.word	0xffff	; ????
    42be:	ff ff       	.word	0xffff	; ????
    42c0:	ff ff       	.word	0xffff	; ????
    42c2:	ff ff       	.word	0xffff	; ????
    42c4:	ff ff       	.word	0xffff	; ????
    42c6:	ff ff       	.word	0xffff	; ????
    42c8:	ff ff       	.word	0xffff	; ????
    42ca:	ff ff       	.word	0xffff	; ????
    42cc:	ff ff       	.word	0xffff	; ????
    42ce:	ff ff       	.word	0xffff	; ????
    42d0:	ff ff       	.word	0xffff	; ????
    42d2:	ff ff       	.word	0xffff	; ????
    42d4:	ff ff       	.word	0xffff	; ????
    42d6:	ff ff       	.word	0xffff	; ????
    42d8:	ff ff       	.word	0xffff	; ????
    42da:	ff ff       	.word	0xffff	; ????
    42dc:	ff ff       	.word	0xffff	; ????
    42de:	ff ff       	.word	0xffff	; ????
    42e0:	ff ff       	.word	0xffff	; ????
    42e2:	ff ff       	.word	0xffff	; ????
    42e4:	ff ff       	.word	0xffff	; ????
    42e6:	ff ff       	.word	0xffff	; ????
    42e8:	ff ff       	.word	0xffff	; ????
    42ea:	ff ff       	.word	0xffff	; ????
    42ec:	ff ff       	.word	0xffff	; ????
    42ee:	ff ff       	.word	0xffff	; ????
    42f0:	ff ff       	.word	0xffff	; ????
    42f2:	ff ff       	.word	0xffff	; ????
    42f4:	ff ff       	.word	0xffff	; ????
    42f6:	ff ff       	.word	0xffff	; ????
    42f8:	ff ff       	.word	0xffff	; ????
    42fa:	ff ff       	.word	0xffff	; ????
    42fc:	ff ff       	.word	0xffff	; ????
    42fe:	ff ff       	.word	0xffff	; ????
    4300:	ff ff       	.word	0xffff	; ????
    4302:	ff ff       	.word	0xffff	; ????
    4304:	ff ff       	.word	0xffff	; ????
    4306:	ff ff       	.word	0xffff	; ????
    4308:	ff ff       	.word	0xffff	; ????
    430a:	ff ff       	.word	0xffff	; ????
    430c:	ff ff       	.word	0xffff	; ????
    430e:	ff ff       	.word	0xffff	; ????
    4310:	ff ff       	.word	0xffff	; ????
    4312:	ff ff       	.word	0xffff	; ????
    4314:	ff ff       	.word	0xffff	; ????
    4316:	ff ff       	.word	0xffff	; ????
    4318:	ff ff       	.word	0xffff	; ????
    431a:	ff ff       	.word	0xffff	; ????
    431c:	ff ff       	.word	0xffff	; ????
    431e:	ff ff       	.word	0xffff	; ????
    4320:	ff ff       	.word	0xffff	; ????
    4322:	ff ff       	.word	0xffff	; ????
    4324:	ff ff       	.word	0xffff	; ????
    4326:	ff ff       	.word	0xffff	; ????
    4328:	ff ff       	.word	0xffff	; ????
    432a:	ff ff       	.word	0xffff	; ????
    432c:	ff ff       	.word	0xffff	; ????
    432e:	ff ff       	.word	0xffff	; ????
    4330:	ff ff       	.word	0xffff	; ????
    4332:	ff ff       	.word	0xffff	; ????
    4334:	ff ff       	.word	0xffff	; ????
    4336:	ff ff       	.word	0xffff	; ????
    4338:	ff ff       	.word	0xffff	; ????
    433a:	ff ff       	.word	0xffff	; ????
    433c:	ff ff       	.word	0xffff	; ????
    433e:	ff ff       	.word	0xffff	; ????
    4340:	ff ff       	.word	0xffff	; ????
    4342:	ff ff       	.word	0xffff	; ????
    4344:	ff ff       	.word	0xffff	; ????
    4346:	ff ff       	.word	0xffff	; ????
    4348:	ff ff       	.word	0xffff	; ????
    434a:	ff ff       	.word	0xffff	; ????
    434c:	ff ff       	.word	0xffff	; ????
    434e:	ff ff       	.word	0xffff	; ????
    4350:	ff ff       	.word	0xffff	; ????
    4352:	ff ff       	.word	0xffff	; ????
    4354:	ff ff       	.word	0xffff	; ????
    4356:	ff ff       	.word	0xffff	; ????
    4358:	ff ff       	.word	0xffff	; ????
    435a:	ff ff       	.word	0xffff	; ????
    435c:	ff ff       	.word	0xffff	; ????
    435e:	ff ff       	.word	0xffff	; ????
    4360:	ff ff       	.word	0xffff	; ????
    4362:	ff ff       	.word	0xffff	; ????
    4364:	ff ff       	.word	0xffff	; ????
    4366:	ff ff       	.word	0xffff	; ????
    4368:	ff ff       	.word	0xffff	; ????
    436a:	ff ff       	.word	0xffff	; ????
    436c:	ff ff       	.word	0xffff	; ????
    436e:	ff ff       	.word	0xffff	; ????
    4370:	ff ff       	.word	0xffff	; ????
    4372:	ff ff       	.word	0xffff	; ????
    4374:	ff ff       	.word	0xffff	; ????
    4376:	ff ff       	.word	0xffff	; ????
    4378:	ff ff       	.word	0xffff	; ????
    437a:	ff ff       	.word	0xffff	; ????
    437c:	ff ff       	.word	0xffff	; ????
    437e:	ff ff       	.word	0xffff	; ????
    4380:	ff ff       	.word	0xffff	; ????
    4382:	ff ff       	.word	0xffff	; ????
    4384:	ff ff       	.word	0xffff	; ????
    4386:	ff ff       	.word	0xffff	; ????
    4388:	ff ff       	.word	0xffff	; ????
    438a:	ff ff       	.word	0xffff	; ????
    438c:	ff ff       	.word	0xffff	; ????
    438e:	ff ff       	.word	0xffff	; ????
    4390:	ff ff       	.word	0xffff	; ????
    4392:	ff ff       	.word	0xffff	; ????
    4394:	ff ff       	.word	0xffff	; ????
    4396:	ff ff       	.word	0xffff	; ????
    4398:	ff ff       	.word	0xffff	; ????
    439a:	ff ff       	.word	0xffff	; ????
    439c:	ff ff       	.word	0xffff	; ????
    439e:	ff ff       	.word	0xffff	; ????
    43a0:	ff ff       	.word	0xffff	; ????
    43a2:	ff ff       	.word	0xffff	; ????
    43a4:	ff ff       	.word	0xffff	; ????
    43a6:	ff ff       	.word	0xffff	; ????
    43a8:	ff ff       	.word	0xffff	; ????
    43aa:	ff ff       	.word	0xffff	; ????
    43ac:	ff ff       	.word	0xffff	; ????
    43ae:	ff ff       	.word	0xffff	; ????
    43b0:	ff ff       	.word	0xffff	; ????
    43b2:	ff ff       	.word	0xffff	; ????
    43b4:	ff ff       	.word	0xffff	; ????
    43b6:	ff ff       	.word	0xffff	; ????
    43b8:	ff ff       	.word	0xffff	; ????
    43ba:	ff ff       	.word	0xffff	; ????
    43bc:	ff ff       	.word	0xffff	; ????
    43be:	ff ff       	.word	0xffff	; ????
    43c0:	ff ff       	.word	0xffff	; ????
    43c2:	ff ff       	.word	0xffff	; ????
    43c4:	ff ff       	.word	0xffff	; ????
    43c6:	ff ff       	.word	0xffff	; ????
    43c8:	ff ff       	.word	0xffff	; ????
    43ca:	ff ff       	.word	0xffff	; ????
    43cc:	ff ff       	.word	0xffff	; ????
    43ce:	ff ff       	.word	0xffff	; ????
    43d0:	ff ff       	.word	0xffff	; ????
    43d2:	ff ff       	.word	0xffff	; ????
    43d4:	ff ff       	.word	0xffff	; ????
    43d6:	ff ff       	.word	0xffff	; ????
    43d8:	ff ff       	.word	0xffff	; ????
    43da:	ff ff       	.word	0xffff	; ????
    43dc:	ff ff       	.word	0xffff	; ????
    43de:	ff ff       	.word	0xffff	; ????
    43e0:	ff ff       	.word	0xffff	; ????
    43e2:	ff ff       	.word	0xffff	; ????
    43e4:	ff ff       	.word	0xffff	; ????
    43e6:	ff ff       	.word	0xffff	; ????
    43e8:	ff ff       	.word	0xffff	; ????
    43ea:	ff ff       	.word	0xffff	; ????
    43ec:	ff ff       	.word	0xffff	; ????
    43ee:	ff ff       	.word	0xffff	; ????
    43f0:	ff ff       	.word	0xffff	; ????
    43f2:	ff ff       	.word	0xffff	; ????
    43f4:	ff ff       	.word	0xffff	; ????
    43f6:	ff ff       	.word	0xffff	; ????
    43f8:	ff ff       	.word	0xffff	; ????
    43fa:	ff ff       	.word	0xffff	; ????
    43fc:	ff ff       	.word	0xffff	; ????
    43fe:	ff ff       	.word	0xffff	; ????
    4400:	ff ff       	.word	0xffff	; ????
    4402:	ff ff       	.word	0xffff	; ????
    4404:	ff ff       	.word	0xffff	; ????
    4406:	ff ff       	.word	0xffff	; ????
    4408:	ff ff       	.word	0xffff	; ????
    440a:	ff ff       	.word	0xffff	; ????
    440c:	ff ff       	.word	0xffff	; ????
    440e:	ff ff       	.word	0xffff	; ????
    4410:	ff ff       	.word	0xffff	; ????
    4412:	ff ff       	.word	0xffff	; ????
    4414:	ff ff       	.word	0xffff	; ????
    4416:	ff ff       	.word	0xffff	; ????
    4418:	ff ff       	.word	0xffff	; ????
    441a:	ff ff       	.word	0xffff	; ????
    441c:	ff ff       	.word	0xffff	; ????
    441e:	ff ff       	.word	0xffff	; ????
    4420:	ff ff       	.word	0xffff	; ????
    4422:	ff ff       	.word	0xffff	; ????
    4424:	ff ff       	.word	0xffff	; ????
    4426:	ff ff       	.word	0xffff	; ????
    4428:	ff ff       	.word	0xffff	; ????
    442a:	ff ff       	.word	0xffff	; ????
    442c:	ff ff       	.word	0xffff	; ????
    442e:	ff ff       	.word	0xffff	; ????
    4430:	ff ff       	.word	0xffff	; ????
    4432:	ff ff       	.word	0xffff	; ????
    4434:	ff ff       	.word	0xffff	; ????
    4436:	ff ff       	.word	0xffff	; ????
    4438:	ff ff       	.word	0xffff	; ????
    443a:	ff ff       	.word	0xffff	; ????
    443c:	ff ff       	.word	0xffff	; ????
    443e:	ff ff       	.word	0xffff	; ????
    4440:	ff ff       	.word	0xffff	; ????
    4442:	ff ff       	.word	0xffff	; ????
    4444:	ff ff       	.word	0xffff	; ????
    4446:	ff ff       	.word	0xffff	; ????
    4448:	ff ff       	.word	0xffff	; ????
    444a:	ff ff       	.word	0xffff	; ????
    444c:	ff ff       	.word	0xffff	; ????
    444e:	ff ff       	.word	0xffff	; ????
    4450:	ff ff       	.word	0xffff	; ????
    4452:	ff ff       	.word	0xffff	; ????
    4454:	ff ff       	.word	0xffff	; ????
    4456:	ff ff       	.word	0xffff	; ????
    4458:	ff ff       	.word	0xffff	; ????
    445a:	ff ff       	.word	0xffff	; ????
    445c:	ff ff       	.word	0xffff	; ????
    445e:	ff ff       	.word	0xffff	; ????
    4460:	ff ff       	.word	0xffff	; ????
    4462:	ff ff       	.word	0xffff	; ????
    4464:	ff ff       	.word	0xffff	; ????
    4466:	ff ff       	.word	0xffff	; ????
    4468:	ff ff       	.word	0xffff	; ????
    446a:	ff ff       	.word	0xffff	; ????
    446c:	ff ff       	.word	0xffff	; ????
    446e:	ff ff       	.word	0xffff	; ????
    4470:	ff ff       	.word	0xffff	; ????
    4472:	ff ff       	.word	0xffff	; ????
    4474:	ff ff       	.word	0xffff	; ????
    4476:	ff ff       	.word	0xffff	; ????
    4478:	ff ff       	.word	0xffff	; ????
    447a:	ff ff       	.word	0xffff	; ????
    447c:	ff ff       	.word	0xffff	; ????
    447e:	ff ff       	.word	0xffff	; ????
    4480:	ff ff       	.word	0xffff	; ????
    4482:	ff ff       	.word	0xffff	; ????
    4484:	ff ff       	.word	0xffff	; ????
    4486:	ff ff       	.word	0xffff	; ????
    4488:	ff ff       	.word	0xffff	; ????
    448a:	ff ff       	.word	0xffff	; ????
    448c:	ff ff       	.word	0xffff	; ????
    448e:	ff ff       	.word	0xffff	; ????
    4490:	ff ff       	.word	0xffff	; ????
    4492:	ff ff       	.word	0xffff	; ????
    4494:	ff ff       	.word	0xffff	; ????
    4496:	ff ff       	.word	0xffff	; ????
    4498:	ff ff       	.word	0xffff	; ????
    449a:	ff ff       	.word	0xffff	; ????
    449c:	ff ff       	.word	0xffff	; ????
    449e:	ff ff       	.word	0xffff	; ????
    44a0:	ff ff       	.word	0xffff	; ????
    44a2:	ff ff       	.word	0xffff	; ????
    44a4:	ff ff       	.word	0xffff	; ????
    44a6:	ff ff       	.word	0xffff	; ????
    44a8:	ff ff       	.word	0xffff	; ????
    44aa:	ff ff       	.word	0xffff	; ????
    44ac:	ff ff       	.word	0xffff	; ????
    44ae:	ff ff       	.word	0xffff	; ????
    44b0:	ff ff       	.word	0xffff	; ????
    44b2:	ff ff       	.word	0xffff	; ????
    44b4:	ff ff       	.word	0xffff	; ????
    44b6:	ff ff       	.word	0xffff	; ????
    44b8:	ff ff       	.word	0xffff	; ????
    44ba:	ff ff       	.word	0xffff	; ????
    44bc:	ff ff       	.word	0xffff	; ????
    44be:	ff ff       	.word	0xffff	; ????
    44c0:	ff ff       	.word	0xffff	; ????
    44c2:	ff ff       	.word	0xffff	; ????
    44c4:	ff ff       	.word	0xffff	; ????
    44c6:	ff ff       	.word	0xffff	; ????
    44c8:	ff ff       	.word	0xffff	; ????
    44ca:	ff ff       	.word	0xffff	; ????
    44cc:	ff ff       	.word	0xffff	; ????
    44ce:	ff ff       	.word	0xffff	; ????
    44d0:	ff ff       	.word	0xffff	; ????
    44d2:	ff ff       	.word	0xffff	; ????
    44d4:	ff ff       	.word	0xffff	; ????
    44d6:	ff ff       	.word	0xffff	; ????
    44d8:	ff ff       	.word	0xffff	; ????
    44da:	ff ff       	.word	0xffff	; ????
    44dc:	ff ff       	.word	0xffff	; ????
    44de:	ff ff       	.word	0xffff	; ????
    44e0:	ff ff       	.word	0xffff	; ????
    44e2:	ff ff       	.word	0xffff	; ????
    44e4:	ff ff       	.word	0xffff	; ????
    44e6:	ff ff       	.word	0xffff	; ????
    44e8:	ff ff       	.word	0xffff	; ????
    44ea:	ff ff       	.word	0xffff	; ????
    44ec:	ff ff       	.word	0xffff	; ????
    44ee:	ff ff       	.word	0xffff	; ????
    44f0:	ff ff       	.word	0xffff	; ????
    44f2:	ff ff       	.word	0xffff	; ????
    44f4:	ff ff       	.word	0xffff	; ????
    44f6:	ff ff       	.word	0xffff	; ????
    44f8:	ff ff       	.word	0xffff	; ????
    44fa:	ff ff       	.word	0xffff	; ????
    44fc:	ff ff       	.word	0xffff	; ????
    44fe:	ff ff       	.word	0xffff	; ????
    4500:	ff ff       	.word	0xffff	; ????
    4502:	ff ff       	.word	0xffff	; ????
    4504:	ff ff       	.word	0xffff	; ????
    4506:	ff ff       	.word	0xffff	; ????
    4508:	ff ff       	.word	0xffff	; ????
    450a:	ff ff       	.word	0xffff	; ????
    450c:	ff ff       	.word	0xffff	; ????
    450e:	ff ff       	.word	0xffff	; ????
    4510:	ff ff       	.word	0xffff	; ????
    4512:	ff ff       	.word	0xffff	; ????
    4514:	ff ff       	.word	0xffff	; ????
    4516:	ff ff       	.word	0xffff	; ????
    4518:	ff ff       	.word	0xffff	; ????
    451a:	ff ff       	.word	0xffff	; ????
    451c:	ff ff       	.word	0xffff	; ????
    451e:	ff ff       	.word	0xffff	; ????
    4520:	ff ff       	.word	0xffff	; ????
    4522:	ff ff       	.word	0xffff	; ????
    4524:	ff ff       	.word	0xffff	; ????
    4526:	ff ff       	.word	0xffff	; ????
    4528:	ff ff       	.word	0xffff	; ????
    452a:	ff ff       	.word	0xffff	; ????
    452c:	ff ff       	.word	0xffff	; ????
    452e:	ff ff       	.word	0xffff	; ????
    4530:	ff ff       	.word	0xffff	; ????
    4532:	ff ff       	.word	0xffff	; ????
    4534:	ff ff       	.word	0xffff	; ????
    4536:	ff ff       	.word	0xffff	; ????
    4538:	ff ff       	.word	0xffff	; ????
    453a:	ff ff       	.word	0xffff	; ????
    453c:	ff ff       	.word	0xffff	; ????
    453e:	ff ff       	.word	0xffff	; ????
    4540:	ff ff       	.word	0xffff	; ????
    4542:	ff ff       	.word	0xffff	; ????
    4544:	ff ff       	.word	0xffff	; ????
    4546:	ff ff       	.word	0xffff	; ????
    4548:	ff ff       	.word	0xffff	; ????
    454a:	ff ff       	.word	0xffff	; ????
    454c:	ff ff       	.word	0xffff	; ????
    454e:	ff ff       	.word	0xffff	; ????
    4550:	ff ff       	.word	0xffff	; ????
    4552:	ff ff       	.word	0xffff	; ????
    4554:	ff ff       	.word	0xffff	; ????
    4556:	ff ff       	.word	0xffff	; ????
    4558:	ff ff       	.word	0xffff	; ????
    455a:	ff ff       	.word	0xffff	; ????
    455c:	ff ff       	.word	0xffff	; ????
    455e:	ff ff       	.word	0xffff	; ????
    4560:	ff ff       	.word	0xffff	; ????
    4562:	ff ff       	.word	0xffff	; ????
    4564:	ff ff       	.word	0xffff	; ????
    4566:	ff ff       	.word	0xffff	; ????
    4568:	ff ff       	.word	0xffff	; ????
    456a:	ff ff       	.word	0xffff	; ????
    456c:	ff ff       	.word	0xffff	; ????
    456e:	ff ff       	.word	0xffff	; ????
    4570:	ff ff       	.word	0xffff	; ????
    4572:	ff ff       	.word	0xffff	; ????
    4574:	ff ff       	.word	0xffff	; ????
    4576:	ff ff       	.word	0xffff	; ????
    4578:	ff ff       	.word	0xffff	; ????
    457a:	ff ff       	.word	0xffff	; ????
    457c:	ff ff       	.word	0xffff	; ????
    457e:	ff ff       	.word	0xffff	; ????
    4580:	ff ff       	.word	0xffff	; ????
    4582:	ff ff       	.word	0xffff	; ????
    4584:	ff ff       	.word	0xffff	; ????
    4586:	ff ff       	.word	0xffff	; ????
    4588:	ff ff       	.word	0xffff	; ????
    458a:	ff ff       	.word	0xffff	; ????
    458c:	ff ff       	.word	0xffff	; ????
    458e:	ff ff       	.word	0xffff	; ????
    4590:	ff ff       	.word	0xffff	; ????
    4592:	ff ff       	.word	0xffff	; ????
    4594:	ff ff       	.word	0xffff	; ????
    4596:	ff ff       	.word	0xffff	; ????
    4598:	ff ff       	.word	0xffff	; ????
    459a:	ff ff       	.word	0xffff	; ????
    459c:	ff ff       	.word	0xffff	; ????
    459e:	ff ff       	.word	0xffff	; ????
    45a0:	ff ff       	.word	0xffff	; ????
    45a2:	ff ff       	.word	0xffff	; ????
    45a4:	ff ff       	.word	0xffff	; ????
    45a6:	ff ff       	.word	0xffff	; ????
    45a8:	ff ff       	.word	0xffff	; ????
    45aa:	ff ff       	.word	0xffff	; ????
    45ac:	ff ff       	.word	0xffff	; ????
    45ae:	ff ff       	.word	0xffff	; ????
    45b0:	ff ff       	.word	0xffff	; ????
    45b2:	ff ff       	.word	0xffff	; ????
    45b4:	ff ff       	.word	0xffff	; ????
    45b6:	ff ff       	.word	0xffff	; ????
    45b8:	ff ff       	.word	0xffff	; ????
    45ba:	ff ff       	.word	0xffff	; ????
    45bc:	ff ff       	.word	0xffff	; ????
    45be:	ff ff       	.word	0xffff	; ????
    45c0:	ff ff       	.word	0xffff	; ????
    45c2:	ff ff       	.word	0xffff	; ????
    45c4:	ff ff       	.word	0xffff	; ????
    45c6:	ff ff       	.word	0xffff	; ????
    45c8:	ff ff       	.word	0xffff	; ????
    45ca:	ff ff       	.word	0xffff	; ????
    45cc:	ff ff       	.word	0xffff	; ????
    45ce:	ff ff       	.word	0xffff	; ????
    45d0:	ff ff       	.word	0xffff	; ????
    45d2:	ff ff       	.word	0xffff	; ????
    45d4:	ff ff       	.word	0xffff	; ????
    45d6:	ff ff       	.word	0xffff	; ????
    45d8:	ff ff       	.word	0xffff	; ????
    45da:	ff ff       	.word	0xffff	; ????
    45dc:	ff ff       	.word	0xffff	; ????
    45de:	ff ff       	.word	0xffff	; ????
    45e0:	ff ff       	.word	0xffff	; ????
    45e2:	ff ff       	.word	0xffff	; ????
    45e4:	ff ff       	.word	0xffff	; ????
    45e6:	ff ff       	.word	0xffff	; ????
    45e8:	ff ff       	.word	0xffff	; ????
    45ea:	ff ff       	.word	0xffff	; ????
    45ec:	ff ff       	.word	0xffff	; ????
    45ee:	ff ff       	.word	0xffff	; ????
    45f0:	ff ff       	.word	0xffff	; ????
    45f2:	ff ff       	.word	0xffff	; ????
    45f4:	ff ff       	.word	0xffff	; ????
    45f6:	ff ff       	.word	0xffff	; ????
    45f8:	ff ff       	.word	0xffff	; ????
    45fa:	ff ff       	.word	0xffff	; ????
    45fc:	ff ff       	.word	0xffff	; ????
    45fe:	ff ff       	.word	0xffff	; ????
    4600:	ff ff       	.word	0xffff	; ????
    4602:	ff ff       	.word	0xffff	; ????
    4604:	ff ff       	.word	0xffff	; ????
    4606:	ff ff       	.word	0xffff	; ????
    4608:	ff ff       	.word	0xffff	; ????
    460a:	ff ff       	.word	0xffff	; ????
    460c:	ff ff       	.word	0xffff	; ????
    460e:	ff ff       	.word	0xffff	; ????
    4610:	ff ff       	.word	0xffff	; ????
    4612:	ff ff       	.word	0xffff	; ????
    4614:	ff ff       	.word	0xffff	; ????
    4616:	ff ff       	.word	0xffff	; ????
    4618:	ff ff       	.word	0xffff	; ????
    461a:	ff ff       	.word	0xffff	; ????
    461c:	ff ff       	.word	0xffff	; ????
    461e:	ff ff       	.word	0xffff	; ????
    4620:	ff ff       	.word	0xffff	; ????
    4622:	ff ff       	.word	0xffff	; ????
    4624:	ff ff       	.word	0xffff	; ????
    4626:	ff ff       	.word	0xffff	; ????
    4628:	ff ff       	.word	0xffff	; ????
    462a:	ff ff       	.word	0xffff	; ????
    462c:	ff ff       	.word	0xffff	; ????
    462e:	ff ff       	.word	0xffff	; ????
    4630:	ff ff       	.word	0xffff	; ????
    4632:	ff ff       	.word	0xffff	; ????
    4634:	ff ff       	.word	0xffff	; ????
    4636:	ff ff       	.word	0xffff	; ????
    4638:	ff ff       	.word	0xffff	; ????
    463a:	ff ff       	.word	0xffff	; ????
    463c:	ff ff       	.word	0xffff	; ????
    463e:	ff ff       	.word	0xffff	; ????
    4640:	ff ff       	.word	0xffff	; ????
    4642:	ff ff       	.word	0xffff	; ????
    4644:	ff ff       	.word	0xffff	; ????
    4646:	ff ff       	.word	0xffff	; ????
    4648:	ff ff       	.word	0xffff	; ????
    464a:	ff ff       	.word	0xffff	; ????
    464c:	ff ff       	.word	0xffff	; ????
    464e:	ff ff       	.word	0xffff	; ????
    4650:	ff ff       	.word	0xffff	; ????
    4652:	ff ff       	.word	0xffff	; ????
    4654:	ff ff       	.word	0xffff	; ????
    4656:	ff ff       	.word	0xffff	; ????
    4658:	ff ff       	.word	0xffff	; ????
    465a:	ff ff       	.word	0xffff	; ????
    465c:	ff ff       	.word	0xffff	; ????
    465e:	ff ff       	.word	0xffff	; ????
    4660:	ff ff       	.word	0xffff	; ????
    4662:	ff ff       	.word	0xffff	; ????
    4664:	ff ff       	.word	0xffff	; ????
    4666:	ff ff       	.word	0xffff	; ????
    4668:	ff ff       	.word	0xffff	; ????
    466a:	ff ff       	.word	0xffff	; ????
    466c:	ff ff       	.word	0xffff	; ????
    466e:	ff ff       	.word	0xffff	; ????
    4670:	ff ff       	.word	0xffff	; ????
    4672:	ff ff       	.word	0xffff	; ????
    4674:	ff ff       	.word	0xffff	; ????
    4676:	ff ff       	.word	0xffff	; ????
    4678:	ff ff       	.word	0xffff	; ????
    467a:	ff ff       	.word	0xffff	; ????
    467c:	ff ff       	.word	0xffff	; ????
    467e:	ff ff       	.word	0xffff	; ????
    4680:	ff ff       	.word	0xffff	; ????
    4682:	ff ff       	.word	0xffff	; ????
    4684:	ff ff       	.word	0xffff	; ????
    4686:	ff ff       	.word	0xffff	; ????
    4688:	ff ff       	.word	0xffff	; ????
    468a:	ff ff       	.word	0xffff	; ????
    468c:	ff ff       	.word	0xffff	; ????
    468e:	ff ff       	.word	0xffff	; ????
    4690:	ff ff       	.word	0xffff	; ????
    4692:	ff ff       	.word	0xffff	; ????
    4694:	ff ff       	.word	0xffff	; ????
    4696:	ff ff       	.word	0xffff	; ????
    4698:	ff ff       	.word	0xffff	; ????
    469a:	ff ff       	.word	0xffff	; ????
    469c:	ff ff       	.word	0xffff	; ????
    469e:	ff ff       	.word	0xffff	; ????
    46a0:	ff ff       	.word	0xffff	; ????
    46a2:	ff ff       	.word	0xffff	; ????
    46a4:	ff ff       	.word	0xffff	; ????
    46a6:	ff ff       	.word	0xffff	; ????
    46a8:	ff ff       	.word	0xffff	; ????
    46aa:	ff ff       	.word	0xffff	; ????
    46ac:	ff ff       	.word	0xffff	; ????
    46ae:	ff ff       	.word	0xffff	; ????
    46b0:	ff ff       	.word	0xffff	; ????
    46b2:	ff ff       	.word	0xffff	; ????
    46b4:	ff ff       	.word	0xffff	; ????
    46b6:	ff ff       	.word	0xffff	; ????
    46b8:	ff ff       	.word	0xffff	; ????
    46ba:	ff ff       	.word	0xffff	; ????
    46bc:	ff ff       	.word	0xffff	; ????
    46be:	ff ff       	.word	0xffff	; ????
    46c0:	ff ff       	.word	0xffff	; ????
    46c2:	ff ff       	.word	0xffff	; ????
    46c4:	ff ff       	.word	0xffff	; ????
    46c6:	ff ff       	.word	0xffff	; ????
    46c8:	ff ff       	.word	0xffff	; ????
    46ca:	ff ff       	.word	0xffff	; ????
    46cc:	ff ff       	.word	0xffff	; ????
    46ce:	ff ff       	.word	0xffff	; ????
    46d0:	ff ff       	.word	0xffff	; ????
    46d2:	ff ff       	.word	0xffff	; ????
    46d4:	ff ff       	.word	0xffff	; ????
    46d6:	ff ff       	.word	0xffff	; ????
    46d8:	ff ff       	.word	0xffff	; ????
    46da:	ff ff       	.word	0xffff	; ????
    46dc:	ff ff       	.word	0xffff	; ????
    46de:	ff ff       	.word	0xffff	; ????
    46e0:	ff ff       	.word	0xffff	; ????
    46e2:	ff ff       	.word	0xffff	; ????
    46e4:	ff ff       	.word	0xffff	; ????
    46e6:	ff ff       	.word	0xffff	; ????
    46e8:	ff ff       	.word	0xffff	; ????
    46ea:	ff ff       	.word	0xffff	; ????
    46ec:	ff ff       	.word	0xffff	; ????
    46ee:	ff ff       	.word	0xffff	; ????
    46f0:	ff ff       	.word	0xffff	; ????
    46f2:	ff ff       	.word	0xffff	; ????
    46f4:	ff ff       	.word	0xffff	; ????
    46f6:	ff ff       	.word	0xffff	; ????
    46f8:	ff ff       	.word	0xffff	; ????
    46fa:	ff ff       	.word	0xffff	; ????
    46fc:	ff ff       	.word	0xffff	; ????
    46fe:	ff ff       	.word	0xffff	; ????
    4700:	ff ff       	.word	0xffff	; ????
    4702:	ff ff       	.word	0xffff	; ????
    4704:	ff ff       	.word	0xffff	; ????
    4706:	ff ff       	.word	0xffff	; ????
    4708:	ff ff       	.word	0xffff	; ????
    470a:	ff ff       	.word	0xffff	; ????
    470c:	ff ff       	.word	0xffff	; ????
    470e:	ff ff       	.word	0xffff	; ????
    4710:	ff ff       	.word	0xffff	; ????
    4712:	ff ff       	.word	0xffff	; ????
    4714:	ff ff       	.word	0xffff	; ????
    4716:	ff ff       	.word	0xffff	; ????
    4718:	ff ff       	.word	0xffff	; ????
    471a:	ff ff       	.word	0xffff	; ????
    471c:	ff ff       	.word	0xffff	; ????
    471e:	ff ff       	.word	0xffff	; ????
    4720:	ff ff       	.word	0xffff	; ????
    4722:	ff ff       	.word	0xffff	; ????
    4724:	ff ff       	.word	0xffff	; ????
    4726:	ff ff       	.word	0xffff	; ????
    4728:	ff ff       	.word	0xffff	; ????
    472a:	ff ff       	.word	0xffff	; ????
    472c:	ff ff       	.word	0xffff	; ????
    472e:	ff ff       	.word	0xffff	; ????
    4730:	ff ff       	.word	0xffff	; ????
    4732:	ff ff       	.word	0xffff	; ????
    4734:	ff ff       	.word	0xffff	; ????
    4736:	ff ff       	.word	0xffff	; ????
    4738:	ff ff       	.word	0xffff	; ????
    473a:	ff ff       	.word	0xffff	; ????
    473c:	ff ff       	.word	0xffff	; ????
    473e:	ff ff       	.word	0xffff	; ????
    4740:	ff ff       	.word	0xffff	; ????
    4742:	ff ff       	.word	0xffff	; ????
    4744:	ff ff       	.word	0xffff	; ????
    4746:	ff ff       	.word	0xffff	; ????
    4748:	ff ff       	.word	0xffff	; ????
    474a:	ff ff       	.word	0xffff	; ????
    474c:	ff ff       	.word	0xffff	; ????
    474e:	ff ff       	.word	0xffff	; ????
    4750:	ff ff       	.word	0xffff	; ????
    4752:	ff ff       	.word	0xffff	; ????
    4754:	ff ff       	.word	0xffff	; ????
    4756:	ff ff       	.word	0xffff	; ????
    4758:	ff ff       	.word	0xffff	; ????
    475a:	ff ff       	.word	0xffff	; ????
    475c:	ff ff       	.word	0xffff	; ????
    475e:	ff ff       	.word	0xffff	; ????
    4760:	ff ff       	.word	0xffff	; ????
    4762:	ff ff       	.word	0xffff	; ????
    4764:	ff ff       	.word	0xffff	; ????
    4766:	ff ff       	.word	0xffff	; ????
    4768:	ff ff       	.word	0xffff	; ????
    476a:	ff ff       	.word	0xffff	; ????
    476c:	ff ff       	.word	0xffff	; ????
    476e:	ff ff       	.word	0xffff	; ????
    4770:	ff ff       	.word	0xffff	; ????
    4772:	ff ff       	.word	0xffff	; ????
    4774:	ff ff       	.word	0xffff	; ????
    4776:	ff ff       	.word	0xffff	; ????
    4778:	ff ff       	.word	0xffff	; ????
    477a:	ff ff       	.word	0xffff	; ????
    477c:	ff ff       	.word	0xffff	; ????
    477e:	ff ff       	.word	0xffff	; ????
    4780:	ff ff       	.word	0xffff	; ????
    4782:	ff ff       	.word	0xffff	; ????
    4784:	ff ff       	.word	0xffff	; ????
    4786:	ff ff       	.word	0xffff	; ????
    4788:	ff ff       	.word	0xffff	; ????
    478a:	ff ff       	.word	0xffff	; ????
    478c:	ff ff       	.word	0xffff	; ????
    478e:	ff ff       	.word	0xffff	; ????
    4790:	ff ff       	.word	0xffff	; ????
    4792:	ff ff       	.word	0xffff	; ????
    4794:	ff ff       	.word	0xffff	; ????
    4796:	ff ff       	.word	0xffff	; ????
    4798:	ff ff       	.word	0xffff	; ????
    479a:	ff ff       	.word	0xffff	; ????
    479c:	ff ff       	.word	0xffff	; ????
    479e:	ff ff       	.word	0xffff	; ????
    47a0:	ff ff       	.word	0xffff	; ????
    47a2:	ff ff       	.word	0xffff	; ????
    47a4:	ff ff       	.word	0xffff	; ????
    47a6:	ff ff       	.word	0xffff	; ????
    47a8:	ff ff       	.word	0xffff	; ????
    47aa:	ff ff       	.word	0xffff	; ????
    47ac:	ff ff       	.word	0xffff	; ????
    47ae:	ff ff       	.word	0xffff	; ????
    47b0:	ff ff       	.word	0xffff	; ????
    47b2:	ff ff       	.word	0xffff	; ????
    47b4:	ff ff       	.word	0xffff	; ????
    47b6:	ff ff       	.word	0xffff	; ????
    47b8:	ff ff       	.word	0xffff	; ????
    47ba:	ff ff       	.word	0xffff	; ????
    47bc:	ff ff       	.word	0xffff	; ????
    47be:	ff ff       	.word	0xffff	; ????
    47c0:	ff ff       	.word	0xffff	; ????
    47c2:	ff ff       	.word	0xffff	; ????
    47c4:	ff ff       	.word	0xffff	; ????
    47c6:	ff ff       	.word	0xffff	; ????
    47c8:	ff ff       	.word	0xffff	; ????
    47ca:	ff ff       	.word	0xffff	; ????
    47cc:	ff ff       	.word	0xffff	; ????
    47ce:	ff ff       	.word	0xffff	; ????
    47d0:	ff ff       	.word	0xffff	; ????
    47d2:	ff ff       	.word	0xffff	; ????
    47d4:	ff ff       	.word	0xffff	; ????
    47d6:	ff ff       	.word	0xffff	; ????
    47d8:	ff ff       	.word	0xffff	; ????
    47da:	ff ff       	.word	0xffff	; ????
    47dc:	ff ff       	.word	0xffff	; ????
    47de:	ff ff       	.word	0xffff	; ????
    47e0:	ff ff       	.word	0xffff	; ????
    47e2:	ff ff       	.word	0xffff	; ????
    47e4:	ff ff       	.word	0xffff	; ????
    47e6:	ff ff       	.word	0xffff	; ????
    47e8:	ff ff       	.word	0xffff	; ????
    47ea:	ff ff       	.word	0xffff	; ????
    47ec:	ff ff       	.word	0xffff	; ????
    47ee:	ff ff       	.word	0xffff	; ????
    47f0:	ff ff       	.word	0xffff	; ????
    47f2:	ff ff       	.word	0xffff	; ????
    47f4:	ff ff       	.word	0xffff	; ????
    47f6:	ff ff       	.word	0xffff	; ????
    47f8:	ff ff       	.word	0xffff	; ????
    47fa:	ff ff       	.word	0xffff	; ????
    47fc:	ff ff       	.word	0xffff	; ????
    47fe:	ff ff       	.word	0xffff	; ????
    4800:	ff ff       	.word	0xffff	; ????
    4802:	ff ff       	.word	0xffff	; ????
    4804:	ff ff       	.word	0xffff	; ????
    4806:	ff ff       	.word	0xffff	; ????
    4808:	ff ff       	.word	0xffff	; ????
    480a:	ff ff       	.word	0xffff	; ????
    480c:	ff ff       	.word	0xffff	; ????
    480e:	ff ff       	.word	0xffff	; ????
    4810:	ff ff       	.word	0xffff	; ????
    4812:	ff ff       	.word	0xffff	; ????
    4814:	ff ff       	.word	0xffff	; ????
    4816:	ff ff       	.word	0xffff	; ????
    4818:	ff ff       	.word	0xffff	; ????
    481a:	ff ff       	.word	0xffff	; ????
    481c:	ff ff       	.word	0xffff	; ????
    481e:	ff ff       	.word	0xffff	; ????
    4820:	ff ff       	.word	0xffff	; ????
    4822:	ff ff       	.word	0xffff	; ????
    4824:	ff ff       	.word	0xffff	; ????
    4826:	ff ff       	.word	0xffff	; ????
    4828:	ff ff       	.word	0xffff	; ????
    482a:	ff ff       	.word	0xffff	; ????
    482c:	ff ff       	.word	0xffff	; ????
    482e:	ff ff       	.word	0xffff	; ????
    4830:	ff ff       	.word	0xffff	; ????
    4832:	ff ff       	.word	0xffff	; ????
    4834:	ff ff       	.word	0xffff	; ????
    4836:	ff ff       	.word	0xffff	; ????
    4838:	ff ff       	.word	0xffff	; ????
    483a:	ff ff       	.word	0xffff	; ????
    483c:	ff ff       	.word	0xffff	; ????
    483e:	ff ff       	.word	0xffff	; ????
    4840:	ff ff       	.word	0xffff	; ????
    4842:	ff ff       	.word	0xffff	; ????
    4844:	ff ff       	.word	0xffff	; ????
    4846:	ff ff       	.word	0xffff	; ????
    4848:	ff ff       	.word	0xffff	; ????
    484a:	ff ff       	.word	0xffff	; ????
    484c:	ff ff       	.word	0xffff	; ????
    484e:	ff ff       	.word	0xffff	; ????
    4850:	ff ff       	.word	0xffff	; ????
    4852:	ff ff       	.word	0xffff	; ????
    4854:	ff ff       	.word	0xffff	; ????
    4856:	ff ff       	.word	0xffff	; ????
    4858:	ff ff       	.word	0xffff	; ????
    485a:	ff ff       	.word	0xffff	; ????
    485c:	ff ff       	.word	0xffff	; ????
    485e:	ff ff       	.word	0xffff	; ????
    4860:	ff ff       	.word	0xffff	; ????
    4862:	ff ff       	.word	0xffff	; ????
    4864:	ff ff       	.word	0xffff	; ????
    4866:	ff ff       	.word	0xffff	; ????
    4868:	ff ff       	.word	0xffff	; ????
    486a:	ff ff       	.word	0xffff	; ????
    486c:	ff ff       	.word	0xffff	; ????
    486e:	ff ff       	.word	0xffff	; ????
    4870:	ff ff       	.word	0xffff	; ????
    4872:	ff ff       	.word	0xffff	; ????
    4874:	ff ff       	.word	0xffff	; ????
    4876:	ff ff       	.word	0xffff	; ????
    4878:	ff ff       	.word	0xffff	; ????
    487a:	ff ff       	.word	0xffff	; ????
    487c:	ff ff       	.word	0xffff	; ????
    487e:	ff ff       	.word	0xffff	; ????
    4880:	ff ff       	.word	0xffff	; ????
    4882:	ff ff       	.word	0xffff	; ????
    4884:	ff ff       	.word	0xffff	; ????
    4886:	ff ff       	.word	0xffff	; ????
    4888:	ff ff       	.word	0xffff	; ????
    488a:	ff ff       	.word	0xffff	; ????
    488c:	ff ff       	.word	0xffff	; ????
    488e:	ff ff       	.word	0xffff	; ????
    4890:	ff ff       	.word	0xffff	; ????
    4892:	ff ff       	.word	0xffff	; ????
    4894:	ff ff       	.word	0xffff	; ????
    4896:	ff ff       	.word	0xffff	; ????
    4898:	ff ff       	.word	0xffff	; ????
    489a:	ff ff       	.word	0xffff	; ????
    489c:	ff ff       	.word	0xffff	; ????
    489e:	ff ff       	.word	0xffff	; ????
    48a0:	ff ff       	.word	0xffff	; ????
    48a2:	ff ff       	.word	0xffff	; ????
    48a4:	ff ff       	.word	0xffff	; ????
    48a6:	ff ff       	.word	0xffff	; ????
    48a8:	ff ff       	.word	0xffff	; ????
    48aa:	ff ff       	.word	0xffff	; ????
    48ac:	ff ff       	.word	0xffff	; ????
    48ae:	ff ff       	.word	0xffff	; ????
    48b0:	ff ff       	.word	0xffff	; ????
    48b2:	ff ff       	.word	0xffff	; ????
    48b4:	ff ff       	.word	0xffff	; ????
    48b6:	ff ff       	.word	0xffff	; ????
    48b8:	ff ff       	.word	0xffff	; ????
    48ba:	ff ff       	.word	0xffff	; ????
    48bc:	ff ff       	.word	0xffff	; ????
    48be:	ff ff       	.word	0xffff	; ????
    48c0:	ff ff       	.word	0xffff	; ????
    48c2:	ff ff       	.word	0xffff	; ????
    48c4:	ff ff       	.word	0xffff	; ????
    48c6:	ff ff       	.word	0xffff	; ????
    48c8:	ff ff       	.word	0xffff	; ????
    48ca:	ff ff       	.word	0xffff	; ????
    48cc:	ff ff       	.word	0xffff	; ????
    48ce:	ff ff       	.word	0xffff	; ????
    48d0:	ff ff       	.word	0xffff	; ????
    48d2:	ff ff       	.word	0xffff	; ????
    48d4:	ff ff       	.word	0xffff	; ????
    48d6:	ff ff       	.word	0xffff	; ????
    48d8:	ff ff       	.word	0xffff	; ????
    48da:	ff ff       	.word	0xffff	; ????
    48dc:	ff ff       	.word	0xffff	; ????
    48de:	ff ff       	.word	0xffff	; ????
    48e0:	ff ff       	.word	0xffff	; ????
    48e2:	ff ff       	.word	0xffff	; ????
    48e4:	ff ff       	.word	0xffff	; ????
    48e6:	ff ff       	.word	0xffff	; ????
    48e8:	ff ff       	.word	0xffff	; ????
    48ea:	ff ff       	.word	0xffff	; ????
    48ec:	ff ff       	.word	0xffff	; ????
    48ee:	ff ff       	.word	0xffff	; ????
    48f0:	ff ff       	.word	0xffff	; ????
    48f2:	ff ff       	.word	0xffff	; ????
    48f4:	ff ff       	.word	0xffff	; ????
    48f6:	ff ff       	.word	0xffff	; ????
    48f8:	ff ff       	.word	0xffff	; ????
    48fa:	ff ff       	.word	0xffff	; ????
    48fc:	ff ff       	.word	0xffff	; ????
    48fe:	ff ff       	.word	0xffff	; ????
    4900:	ff ff       	.word	0xffff	; ????
    4902:	ff ff       	.word	0xffff	; ????
    4904:	ff ff       	.word	0xffff	; ????
    4906:	ff ff       	.word	0xffff	; ????
    4908:	ff ff       	.word	0xffff	; ????
    490a:	ff ff       	.word	0xffff	; ????
    490c:	ff ff       	.word	0xffff	; ????
    490e:	ff ff       	.word	0xffff	; ????
    4910:	ff ff       	.word	0xffff	; ????
    4912:	ff ff       	.word	0xffff	; ????
    4914:	ff ff       	.word	0xffff	; ????
    4916:	ff ff       	.word	0xffff	; ????
    4918:	ff ff       	.word	0xffff	; ????
    491a:	ff ff       	.word	0xffff	; ????
    491c:	ff ff       	.word	0xffff	; ????
    491e:	ff ff       	.word	0xffff	; ????
    4920:	ff ff       	.word	0xffff	; ????
    4922:	ff ff       	.word	0xffff	; ????
    4924:	ff ff       	.word	0xffff	; ????
    4926:	ff ff       	.word	0xffff	; ????
    4928:	ff ff       	.word	0xffff	; ????
    492a:	ff ff       	.word	0xffff	; ????
    492c:	ff ff       	.word	0xffff	; ????
    492e:	ff ff       	.word	0xffff	; ????
    4930:	ff ff       	.word	0xffff	; ????
    4932:	ff ff       	.word	0xffff	; ????
    4934:	ff ff       	.word	0xffff	; ????
    4936:	ff ff       	.word	0xffff	; ????
    4938:	ff ff       	.word	0xffff	; ????
    493a:	ff ff       	.word	0xffff	; ????
    493c:	ff ff       	.word	0xffff	; ????
    493e:	ff ff       	.word	0xffff	; ????
    4940:	ff ff       	.word	0xffff	; ????
    4942:	ff ff       	.word	0xffff	; ????
    4944:	ff ff       	.word	0xffff	; ????
    4946:	ff ff       	.word	0xffff	; ????
    4948:	ff ff       	.word	0xffff	; ????
    494a:	ff ff       	.word	0xffff	; ????
    494c:	ff ff       	.word	0xffff	; ????
    494e:	ff ff       	.word	0xffff	; ????
    4950:	ff ff       	.word	0xffff	; ????
    4952:	ff ff       	.word	0xffff	; ????
    4954:	ff ff       	.word	0xffff	; ????
    4956:	ff ff       	.word	0xffff	; ????
    4958:	ff ff       	.word	0xffff	; ????
    495a:	ff ff       	.word	0xffff	; ????
    495c:	ff ff       	.word	0xffff	; ????
    495e:	ff ff       	.word	0xffff	; ????
    4960:	ff ff       	.word	0xffff	; ????
    4962:	ff ff       	.word	0xffff	; ????
    4964:	ff ff       	.word	0xffff	; ????
    4966:	ff ff       	.word	0xffff	; ????
    4968:	ff ff       	.word	0xffff	; ????
    496a:	ff ff       	.word	0xffff	; ????
    496c:	ff ff       	.word	0xffff	; ????
    496e:	ff ff       	.word	0xffff	; ????
    4970:	ff ff       	.word	0xffff	; ????
    4972:	ff ff       	.word	0xffff	; ????
    4974:	ff ff       	.word	0xffff	; ????
    4976:	ff ff       	.word	0xffff	; ????
    4978:	ff ff       	.word	0xffff	; ????
    497a:	ff ff       	.word	0xffff	; ????
    497c:	ff ff       	.word	0xffff	; ????
    497e:	ff ff       	.word	0xffff	; ????
    4980:	ff ff       	.word	0xffff	; ????
    4982:	ff ff       	.word	0xffff	; ????
    4984:	ff ff       	.word	0xffff	; ????
    4986:	ff ff       	.word	0xffff	; ????
    4988:	ff ff       	.word	0xffff	; ????
    498a:	ff ff       	.word	0xffff	; ????
    498c:	ff ff       	.word	0xffff	; ????
    498e:	ff ff       	.word	0xffff	; ????
    4990:	ff ff       	.word	0xffff	; ????
    4992:	ff ff       	.word	0xffff	; ????
    4994:	ff ff       	.word	0xffff	; ????
    4996:	ff ff       	.word	0xffff	; ????
    4998:	ff ff       	.word	0xffff	; ????
    499a:	ff ff       	.word	0xffff	; ????
    499c:	ff ff       	.word	0xffff	; ????
    499e:	ff ff       	.word	0xffff	; ????
    49a0:	ff ff       	.word	0xffff	; ????
    49a2:	ff ff       	.word	0xffff	; ????
    49a4:	ff ff       	.word	0xffff	; ????
    49a6:	ff ff       	.word	0xffff	; ????
    49a8:	ff ff       	.word	0xffff	; ????
    49aa:	ff ff       	.word	0xffff	; ????
    49ac:	ff ff       	.word	0xffff	; ????
    49ae:	ff ff       	.word	0xffff	; ????
    49b0:	ff ff       	.word	0xffff	; ????
    49b2:	ff ff       	.word	0xffff	; ????
    49b4:	ff ff       	.word	0xffff	; ????
    49b6:	ff ff       	.word	0xffff	; ????
    49b8:	ff ff       	.word	0xffff	; ????
    49ba:	ff ff       	.word	0xffff	; ????
    49bc:	ff ff       	.word	0xffff	; ????
    49be:	ff ff       	.word	0xffff	; ????
    49c0:	ff ff       	.word	0xffff	; ????
    49c2:	ff ff       	.word	0xffff	; ????
    49c4:	ff ff       	.word	0xffff	; ????
    49c6:	ff ff       	.word	0xffff	; ????
    49c8:	ff ff       	.word	0xffff	; ????
    49ca:	ff ff       	.word	0xffff	; ????
    49cc:	ff ff       	.word	0xffff	; ????
    49ce:	ff ff       	.word	0xffff	; ????
    49d0:	ff ff       	.word	0xffff	; ????
    49d2:	ff ff       	.word	0xffff	; ????
    49d4:	ff ff       	.word	0xffff	; ????
    49d6:	ff ff       	.word	0xffff	; ????
    49d8:	ff ff       	.word	0xffff	; ????
    49da:	ff ff       	.word	0xffff	; ????
    49dc:	ff ff       	.word	0xffff	; ????
    49de:	ff ff       	.word	0xffff	; ????
    49e0:	ff ff       	.word	0xffff	; ????
    49e2:	ff ff       	.word	0xffff	; ????
    49e4:	ff ff       	.word	0xffff	; ????
    49e6:	ff ff       	.word	0xffff	; ????
    49e8:	ff ff       	.word	0xffff	; ????
    49ea:	ff ff       	.word	0xffff	; ????
    49ec:	ff ff       	.word	0xffff	; ????
    49ee:	ff ff       	.word	0xffff	; ????
    49f0:	ff ff       	.word	0xffff	; ????
    49f2:	ff ff       	.word	0xffff	; ????
    49f4:	ff ff       	.word	0xffff	; ????
    49f6:	ff ff       	.word	0xffff	; ????
    49f8:	ff ff       	.word	0xffff	; ????
    49fa:	ff ff       	.word	0xffff	; ????
    49fc:	ff ff       	.word	0xffff	; ????
    49fe:	ff ff       	.word	0xffff	; ????
    4a00:	ff ff       	.word	0xffff	; ????
    4a02:	ff ff       	.word	0xffff	; ????
    4a04:	ff ff       	.word	0xffff	; ????
    4a06:	ff ff       	.word	0xffff	; ????
    4a08:	ff ff       	.word	0xffff	; ????
    4a0a:	ff ff       	.word	0xffff	; ????
    4a0c:	ff ff       	.word	0xffff	; ????
    4a0e:	ff ff       	.word	0xffff	; ????
    4a10:	ff ff       	.word	0xffff	; ????
    4a12:	ff ff       	.word	0xffff	; ????
    4a14:	ff ff       	.word	0xffff	; ????
    4a16:	ff ff       	.word	0xffff	; ????
    4a18:	ff ff       	.word	0xffff	; ????
    4a1a:	ff ff       	.word	0xffff	; ????
    4a1c:	ff ff       	.word	0xffff	; ????
    4a1e:	ff ff       	.word	0xffff	; ????
    4a20:	ff ff       	.word	0xffff	; ????
    4a22:	ff ff       	.word	0xffff	; ????
    4a24:	ff ff       	.word	0xffff	; ????
    4a26:	ff ff       	.word	0xffff	; ????
    4a28:	ff ff       	.word	0xffff	; ????
    4a2a:	ff ff       	.word	0xffff	; ????
    4a2c:	ff ff       	.word	0xffff	; ????
    4a2e:	ff ff       	.word	0xffff	; ????
    4a30:	ff ff       	.word	0xffff	; ????
    4a32:	ff ff       	.word	0xffff	; ????
    4a34:	ff ff       	.word	0xffff	; ????
    4a36:	ff ff       	.word	0xffff	; ????
    4a38:	ff ff       	.word	0xffff	; ????
    4a3a:	ff ff       	.word	0xffff	; ????
    4a3c:	ff ff       	.word	0xffff	; ????
    4a3e:	ff ff       	.word	0xffff	; ????
    4a40:	ff ff       	.word	0xffff	; ????
    4a42:	ff ff       	.word	0xffff	; ????
    4a44:	ff ff       	.word	0xffff	; ????
    4a46:	ff ff       	.word	0xffff	; ????
    4a48:	ff ff       	.word	0xffff	; ????
    4a4a:	ff ff       	.word	0xffff	; ????
    4a4c:	ff ff       	.word	0xffff	; ????
    4a4e:	ff ff       	.word	0xffff	; ????
    4a50:	ff ff       	.word	0xffff	; ????
    4a52:	ff ff       	.word	0xffff	; ????
    4a54:	ff ff       	.word	0xffff	; ????
    4a56:	ff ff       	.word	0xffff	; ????
    4a58:	ff ff       	.word	0xffff	; ????
    4a5a:	ff ff       	.word	0xffff	; ????
    4a5c:	ff ff       	.word	0xffff	; ????
    4a5e:	ff ff       	.word	0xffff	; ????
    4a60:	ff ff       	.word	0xffff	; ????
    4a62:	ff ff       	.word	0xffff	; ????
    4a64:	ff ff       	.word	0xffff	; ????
    4a66:	ff ff       	.word	0xffff	; ????
    4a68:	ff ff       	.word	0xffff	; ????
    4a6a:	ff ff       	.word	0xffff	; ????
    4a6c:	ff ff       	.word	0xffff	; ????
    4a6e:	ff ff       	.word	0xffff	; ????
    4a70:	ff ff       	.word	0xffff	; ????
    4a72:	ff ff       	.word	0xffff	; ????
    4a74:	ff ff       	.word	0xffff	; ????
    4a76:	ff ff       	.word	0xffff	; ????
    4a78:	ff ff       	.word	0xffff	; ????
    4a7a:	ff ff       	.word	0xffff	; ????
    4a7c:	ff ff       	.word	0xffff	; ????
    4a7e:	ff ff       	.word	0xffff	; ????
    4a80:	ff ff       	.word	0xffff	; ????
    4a82:	ff ff       	.word	0xffff	; ????
    4a84:	ff ff       	.word	0xffff	; ????
    4a86:	ff ff       	.word	0xffff	; ????
    4a88:	ff ff       	.word	0xffff	; ????
    4a8a:	ff ff       	.word	0xffff	; ????
    4a8c:	ff ff       	.word	0xffff	; ????
    4a8e:	ff ff       	.word	0xffff	; ????
    4a90:	ff ff       	.word	0xffff	; ????
    4a92:	ff ff       	.word	0xffff	; ????
    4a94:	ff ff       	.word	0xffff	; ????
    4a96:	ff ff       	.word	0xffff	; ????
    4a98:	ff ff       	.word	0xffff	; ????
    4a9a:	ff ff       	.word	0xffff	; ????
    4a9c:	ff ff       	.word	0xffff	; ????
    4a9e:	ff ff       	.word	0xffff	; ????
    4aa0:	ff ff       	.word	0xffff	; ????
    4aa2:	ff ff       	.word	0xffff	; ????
    4aa4:	ff ff       	.word	0xffff	; ????
    4aa6:	ff ff       	.word	0xffff	; ????
    4aa8:	ff ff       	.word	0xffff	; ????
    4aaa:	ff ff       	.word	0xffff	; ????
    4aac:	ff ff       	.word	0xffff	; ????
    4aae:	ff ff       	.word	0xffff	; ????
    4ab0:	ff ff       	.word	0xffff	; ????
    4ab2:	ff ff       	.word	0xffff	; ????
    4ab4:	ff ff       	.word	0xffff	; ????
    4ab6:	ff ff       	.word	0xffff	; ????
    4ab8:	ff ff       	.word	0xffff	; ????
    4aba:	ff ff       	.word	0xffff	; ????
    4abc:	ff ff       	.word	0xffff	; ????
    4abe:	ff ff       	.word	0xffff	; ????
    4ac0:	ff ff       	.word	0xffff	; ????
    4ac2:	ff ff       	.word	0xffff	; ????
    4ac4:	ff ff       	.word	0xffff	; ????
    4ac6:	ff ff       	.word	0xffff	; ????
    4ac8:	ff ff       	.word	0xffff	; ????
    4aca:	ff ff       	.word	0xffff	; ????
    4acc:	ff ff       	.word	0xffff	; ????
    4ace:	ff ff       	.word	0xffff	; ????
    4ad0:	ff ff       	.word	0xffff	; ????
    4ad2:	ff ff       	.word	0xffff	; ????
    4ad4:	ff ff       	.word	0xffff	; ????
    4ad6:	ff ff       	.word	0xffff	; ????
    4ad8:	ff ff       	.word	0xffff	; ????
    4ada:	ff ff       	.word	0xffff	; ????
    4adc:	ff ff       	.word	0xffff	; ????
    4ade:	ff ff       	.word	0xffff	; ????
    4ae0:	ff ff       	.word	0xffff	; ????
    4ae2:	ff ff       	.word	0xffff	; ????
    4ae4:	ff ff       	.word	0xffff	; ????
    4ae6:	ff ff       	.word	0xffff	; ????
    4ae8:	ff ff       	.word	0xffff	; ????
    4aea:	ff ff       	.word	0xffff	; ????
    4aec:	ff ff       	.word	0xffff	; ????
    4aee:	ff ff       	.word	0xffff	; ????
    4af0:	ff ff       	.word	0xffff	; ????
    4af2:	ff ff       	.word	0xffff	; ????
    4af4:	ff ff       	.word	0xffff	; ????
    4af6:	ff ff       	.word	0xffff	; ????
    4af8:	ff ff       	.word	0xffff	; ????
    4afa:	ff ff       	.word	0xffff	; ????
    4afc:	ff ff       	.word	0xffff	; ????
    4afe:	ff ff       	.word	0xffff	; ????
    4b00:	ff ff       	.word	0xffff	; ????
    4b02:	ff ff       	.word	0xffff	; ????
    4b04:	ff ff       	.word	0xffff	; ????
    4b06:	ff ff       	.word	0xffff	; ????
    4b08:	ff ff       	.word	0xffff	; ????
    4b0a:	ff ff       	.word	0xffff	; ????
    4b0c:	ff ff       	.word	0xffff	; ????
    4b0e:	ff ff       	.word	0xffff	; ????
    4b10:	ff ff       	.word	0xffff	; ????
    4b12:	ff ff       	.word	0xffff	; ????
    4b14:	ff ff       	.word	0xffff	; ????
    4b16:	ff ff       	.word	0xffff	; ????
    4b18:	ff ff       	.word	0xffff	; ????
    4b1a:	ff ff       	.word	0xffff	; ????
    4b1c:	ff ff       	.word	0xffff	; ????
    4b1e:	ff ff       	.word	0xffff	; ????
    4b20:	ff ff       	.word	0xffff	; ????
    4b22:	ff ff       	.word	0xffff	; ????
    4b24:	ff ff       	.word	0xffff	; ????
    4b26:	ff ff       	.word	0xffff	; ????
    4b28:	ff ff       	.word	0xffff	; ????
    4b2a:	ff ff       	.word	0xffff	; ????
    4b2c:	ff ff       	.word	0xffff	; ????
    4b2e:	ff ff       	.word	0xffff	; ????
    4b30:	ff ff       	.word	0xffff	; ????
    4b32:	ff ff       	.word	0xffff	; ????
    4b34:	ff ff       	.word	0xffff	; ????
    4b36:	ff ff       	.word	0xffff	; ????
    4b38:	ff ff       	.word	0xffff	; ????
    4b3a:	ff ff       	.word	0xffff	; ????
    4b3c:	ff ff       	.word	0xffff	; ????
    4b3e:	ff ff       	.word	0xffff	; ????
    4b40:	ff ff       	.word	0xffff	; ????
    4b42:	ff ff       	.word	0xffff	; ????
    4b44:	ff ff       	.word	0xffff	; ????
    4b46:	ff ff       	.word	0xffff	; ????
    4b48:	ff ff       	.word	0xffff	; ????
    4b4a:	ff ff       	.word	0xffff	; ????
    4b4c:	ff ff       	.word	0xffff	; ????
    4b4e:	ff ff       	.word	0xffff	; ????
    4b50:	ff ff       	.word	0xffff	; ????
    4b52:	ff ff       	.word	0xffff	; ????
    4b54:	ff ff       	.word	0xffff	; ????
    4b56:	ff ff       	.word	0xffff	; ????
    4b58:	ff ff       	.word	0xffff	; ????
    4b5a:	ff ff       	.word	0xffff	; ????
    4b5c:	ff ff       	.word	0xffff	; ????
    4b5e:	ff ff       	.word	0xffff	; ????
    4b60:	ff ff       	.word	0xffff	; ????
    4b62:	ff ff       	.word	0xffff	; ????
    4b64:	ff ff       	.word	0xffff	; ????
    4b66:	ff ff       	.word	0xffff	; ????
    4b68:	ff ff       	.word	0xffff	; ????
    4b6a:	ff ff       	.word	0xffff	; ????
    4b6c:	ff ff       	.word	0xffff	; ????
    4b6e:	ff ff       	.word	0xffff	; ????
    4b70:	ff ff       	.word	0xffff	; ????
    4b72:	ff ff       	.word	0xffff	; ????
    4b74:	ff ff       	.word	0xffff	; ????
    4b76:	ff ff       	.word	0xffff	; ????
    4b78:	ff ff       	.word	0xffff	; ????
    4b7a:	ff ff       	.word	0xffff	; ????
    4b7c:	ff ff       	.word	0xffff	; ????
    4b7e:	ff ff       	.word	0xffff	; ????
    4b80:	ff ff       	.word	0xffff	; ????
    4b82:	ff ff       	.word	0xffff	; ????
    4b84:	ff ff       	.word	0xffff	; ????
    4b86:	ff ff       	.word	0xffff	; ????
    4b88:	ff ff       	.word	0xffff	; ????
    4b8a:	ff ff       	.word	0xffff	; ????
    4b8c:	ff ff       	.word	0xffff	; ????
    4b8e:	ff ff       	.word	0xffff	; ????
    4b90:	ff ff       	.word	0xffff	; ????
    4b92:	ff ff       	.word	0xffff	; ????
    4b94:	ff ff       	.word	0xffff	; ????
    4b96:	ff ff       	.word	0xffff	; ????
    4b98:	ff ff       	.word	0xffff	; ????
    4b9a:	ff ff       	.word	0xffff	; ????
    4b9c:	ff ff       	.word	0xffff	; ????
    4b9e:	ff ff       	.word	0xffff	; ????
    4ba0:	ff ff       	.word	0xffff	; ????
    4ba2:	ff ff       	.word	0xffff	; ????
    4ba4:	ff ff       	.word	0xffff	; ????
    4ba6:	ff ff       	.word	0xffff	; ????
    4ba8:	ff ff       	.word	0xffff	; ????
    4baa:	ff ff       	.word	0xffff	; ????
    4bac:	ff ff       	.word	0xffff	; ????
    4bae:	ff ff       	.word	0xffff	; ????
    4bb0:	ff ff       	.word	0xffff	; ????
    4bb2:	ff ff       	.word	0xffff	; ????
    4bb4:	ff ff       	.word	0xffff	; ????
    4bb6:	ff ff       	.word	0xffff	; ????
    4bb8:	ff ff       	.word	0xffff	; ????
    4bba:	ff ff       	.word	0xffff	; ????
    4bbc:	ff ff       	.word	0xffff	; ????
    4bbe:	ff ff       	.word	0xffff	; ????
    4bc0:	ff ff       	.word	0xffff	; ????
    4bc2:	ff ff       	.word	0xffff	; ????
    4bc4:	ff ff       	.word	0xffff	; ????
    4bc6:	ff ff       	.word	0xffff	; ????
    4bc8:	ff ff       	.word	0xffff	; ????
    4bca:	ff ff       	.word	0xffff	; ????
    4bcc:	ff ff       	.word	0xffff	; ????
    4bce:	ff ff       	.word	0xffff	; ????
    4bd0:	ff ff       	.word	0xffff	; ????
    4bd2:	ff ff       	.word	0xffff	; ????
    4bd4:	ff ff       	.word	0xffff	; ????
    4bd6:	ff ff       	.word	0xffff	; ????
    4bd8:	ff ff       	.word	0xffff	; ????
    4bda:	ff ff       	.word	0xffff	; ????
    4bdc:	ff ff       	.word	0xffff	; ????
    4bde:	ff ff       	.word	0xffff	; ????
    4be0:	ff ff       	.word	0xffff	; ????
    4be2:	ff ff       	.word	0xffff	; ????
    4be4:	ff ff       	.word	0xffff	; ????
    4be6:	ff ff       	.word	0xffff	; ????
    4be8:	ff ff       	.word	0xffff	; ????
    4bea:	ff ff       	.word	0xffff	; ????
    4bec:	ff ff       	.word	0xffff	; ????
    4bee:	ff ff       	.word	0xffff	; ????
    4bf0:	ff ff       	.word	0xffff	; ????
    4bf2:	ff ff       	.word	0xffff	; ????
    4bf4:	ff ff       	.word	0xffff	; ????
    4bf6:	ff ff       	.word	0xffff	; ????
    4bf8:	ff ff       	.word	0xffff	; ????
    4bfa:	ff ff       	.word	0xffff	; ????
    4bfc:	ff ff       	.word	0xffff	; ????
    4bfe:	ff ff       	.word	0xffff	; ????
    4c00:	ff ff       	.word	0xffff	; ????
    4c02:	ff ff       	.word	0xffff	; ????
    4c04:	ff ff       	.word	0xffff	; ????
    4c06:	ff ff       	.word	0xffff	; ????
    4c08:	ff ff       	.word	0xffff	; ????
    4c0a:	ff ff       	.word	0xffff	; ????
    4c0c:	ff ff       	.word	0xffff	; ????
    4c0e:	ff ff       	.word	0xffff	; ????
    4c10:	ff ff       	.word	0xffff	; ????
    4c12:	ff ff       	.word	0xffff	; ????
    4c14:	ff ff       	.word	0xffff	; ????
    4c16:	ff ff       	.word	0xffff	; ????
    4c18:	ff ff       	.word	0xffff	; ????
    4c1a:	ff ff       	.word	0xffff	; ????
    4c1c:	ff ff       	.word	0xffff	; ????
    4c1e:	ff ff       	.word	0xffff	; ????
    4c20:	ff ff       	.word	0xffff	; ????
    4c22:	ff ff       	.word	0xffff	; ????
    4c24:	ff ff       	.word	0xffff	; ????
    4c26:	ff ff       	.word	0xffff	; ????
    4c28:	ff ff       	.word	0xffff	; ????
    4c2a:	ff ff       	.word	0xffff	; ????
    4c2c:	ff ff       	.word	0xffff	; ????
    4c2e:	ff ff       	.word	0xffff	; ????
    4c30:	ff ff       	.word	0xffff	; ????
    4c32:	ff ff       	.word	0xffff	; ????
    4c34:	ff ff       	.word	0xffff	; ????
    4c36:	ff ff       	.word	0xffff	; ????
    4c38:	ff ff       	.word	0xffff	; ????
    4c3a:	ff ff       	.word	0xffff	; ????
    4c3c:	ff ff       	.word	0xffff	; ????
    4c3e:	ff ff       	.word	0xffff	; ????
    4c40:	ff ff       	.word	0xffff	; ????
    4c42:	ff ff       	.word	0xffff	; ????
    4c44:	ff ff       	.word	0xffff	; ????
    4c46:	ff ff       	.word	0xffff	; ????
    4c48:	ff ff       	.word	0xffff	; ????
    4c4a:	ff ff       	.word	0xffff	; ????
    4c4c:	ff ff       	.word	0xffff	; ????
    4c4e:	ff ff       	.word	0xffff	; ????
    4c50:	ff ff       	.word	0xffff	; ????
    4c52:	ff ff       	.word	0xffff	; ????
    4c54:	ff ff       	.word	0xffff	; ????
    4c56:	ff ff       	.word	0xffff	; ????
    4c58:	ff ff       	.word	0xffff	; ????
    4c5a:	ff ff       	.word	0xffff	; ????
    4c5c:	ff ff       	.word	0xffff	; ????
    4c5e:	ff ff       	.word	0xffff	; ????
    4c60:	ff ff       	.word	0xffff	; ????
    4c62:	ff ff       	.word	0xffff	; ????
    4c64:	ff ff       	.word	0xffff	; ????
    4c66:	ff ff       	.word	0xffff	; ????
    4c68:	ff ff       	.word	0xffff	; ????
    4c6a:	ff ff       	.word	0xffff	; ????
    4c6c:	ff ff       	.word	0xffff	; ????
    4c6e:	ff ff       	.word	0xffff	; ????
    4c70:	ff ff       	.word	0xffff	; ????
    4c72:	ff ff       	.word	0xffff	; ????
    4c74:	ff ff       	.word	0xffff	; ????
    4c76:	ff ff       	.word	0xffff	; ????
    4c78:	ff ff       	.word	0xffff	; ????
    4c7a:	ff ff       	.word	0xffff	; ????
    4c7c:	ff ff       	.word	0xffff	; ????
    4c7e:	ff ff       	.word	0xffff	; ????
    4c80:	ff ff       	.word	0xffff	; ????
    4c82:	ff ff       	.word	0xffff	; ????
    4c84:	ff ff       	.word	0xffff	; ????
    4c86:	ff ff       	.word	0xffff	; ????
    4c88:	ff ff       	.word	0xffff	; ????
    4c8a:	ff ff       	.word	0xffff	; ????
    4c8c:	ff ff       	.word	0xffff	; ????
    4c8e:	ff ff       	.word	0xffff	; ????
    4c90:	ff ff       	.word	0xffff	; ????
    4c92:	ff ff       	.word	0xffff	; ????
    4c94:	ff ff       	.word	0xffff	; ????
    4c96:	ff ff       	.word	0xffff	; ????
    4c98:	ff ff       	.word	0xffff	; ????
    4c9a:	ff ff       	.word	0xffff	; ????
    4c9c:	ff ff       	.word	0xffff	; ????
    4c9e:	ff ff       	.word	0xffff	; ????
    4ca0:	ff ff       	.word	0xffff	; ????
    4ca2:	ff ff       	.word	0xffff	; ????
    4ca4:	ff ff       	.word	0xffff	; ????
    4ca6:	ff ff       	.word	0xffff	; ????
    4ca8:	ff ff       	.word	0xffff	; ????
    4caa:	ff ff       	.word	0xffff	; ????
    4cac:	ff ff       	.word	0xffff	; ????
    4cae:	ff ff       	.word	0xffff	; ????
    4cb0:	ff ff       	.word	0xffff	; ????
    4cb2:	ff ff       	.word	0xffff	; ????
    4cb4:	ff ff       	.word	0xffff	; ????
    4cb6:	ff ff       	.word	0xffff	; ????
    4cb8:	ff ff       	.word	0xffff	; ????
    4cba:	ff ff       	.word	0xffff	; ????
    4cbc:	ff ff       	.word	0xffff	; ????
    4cbe:	ff ff       	.word	0xffff	; ????
    4cc0:	ff ff       	.word	0xffff	; ????
    4cc2:	ff ff       	.word	0xffff	; ????
    4cc4:	ff ff       	.word	0xffff	; ????
    4cc6:	ff ff       	.word	0xffff	; ????
    4cc8:	ff ff       	.word	0xffff	; ????
    4cca:	ff ff       	.word	0xffff	; ????
    4ccc:	ff ff       	.word	0xffff	; ????
    4cce:	ff ff       	.word	0xffff	; ????
    4cd0:	ff ff       	.word	0xffff	; ????
    4cd2:	ff ff       	.word	0xffff	; ????
    4cd4:	ff ff       	.word	0xffff	; ????
    4cd6:	ff ff       	.word	0xffff	; ????
    4cd8:	ff ff       	.word	0xffff	; ????
    4cda:	ff ff       	.word	0xffff	; ????
    4cdc:	ff ff       	.word	0xffff	; ????
    4cde:	ff ff       	.word	0xffff	; ????
    4ce0:	ff ff       	.word	0xffff	; ????
    4ce2:	ff ff       	.word	0xffff	; ????
    4ce4:	ff ff       	.word	0xffff	; ????
    4ce6:	ff ff       	.word	0xffff	; ????
    4ce8:	ff ff       	.word	0xffff	; ????
    4cea:	ff ff       	.word	0xffff	; ????
    4cec:	ff ff       	.word	0xffff	; ????
    4cee:	ff ff       	.word	0xffff	; ????
    4cf0:	ff ff       	.word	0xffff	; ????
    4cf2:	ff ff       	.word	0xffff	; ????
    4cf4:	ff ff       	.word	0xffff	; ????
    4cf6:	ff ff       	.word	0xffff	; ????
    4cf8:	ff ff       	.word	0xffff	; ????
    4cfa:	ff ff       	.word	0xffff	; ????
    4cfc:	ff ff       	.word	0xffff	; ????
    4cfe:	ff ff       	.word	0xffff	; ????
    4d00:	ff ff       	.word	0xffff	; ????
    4d02:	ff ff       	.word	0xffff	; ????
    4d04:	ff ff       	.word	0xffff	; ????
    4d06:	ff ff       	.word	0xffff	; ????
    4d08:	ff ff       	.word	0xffff	; ????
    4d0a:	ff ff       	.word	0xffff	; ????
    4d0c:	ff ff       	.word	0xffff	; ????
    4d0e:	ff ff       	.word	0xffff	; ????
    4d10:	ff ff       	.word	0xffff	; ????
    4d12:	ff ff       	.word	0xffff	; ????
    4d14:	ff ff       	.word	0xffff	; ????
    4d16:	ff ff       	.word	0xffff	; ????
    4d18:	ff ff       	.word	0xffff	; ????
    4d1a:	ff ff       	.word	0xffff	; ????
    4d1c:	ff ff       	.word	0xffff	; ????
    4d1e:	ff ff       	.word	0xffff	; ????
    4d20:	ff ff       	.word	0xffff	; ????
    4d22:	ff ff       	.word	0xffff	; ????
    4d24:	ff ff       	.word	0xffff	; ????
    4d26:	ff ff       	.word	0xffff	; ????
    4d28:	ff ff       	.word	0xffff	; ????
    4d2a:	ff ff       	.word	0xffff	; ????
    4d2c:	ff ff       	.word	0xffff	; ????
    4d2e:	ff ff       	.word	0xffff	; ????
    4d30:	ff ff       	.word	0xffff	; ????
    4d32:	ff ff       	.word	0xffff	; ????
    4d34:	ff ff       	.word	0xffff	; ????
    4d36:	ff ff       	.word	0xffff	; ????
    4d38:	ff ff       	.word	0xffff	; ????
    4d3a:	ff ff       	.word	0xffff	; ????
    4d3c:	ff ff       	.word	0xffff	; ????
    4d3e:	ff ff       	.word	0xffff	; ????
    4d40:	ff ff       	.word	0xffff	; ????
    4d42:	ff ff       	.word	0xffff	; ????
    4d44:	ff ff       	.word	0xffff	; ????
    4d46:	ff ff       	.word	0xffff	; ????
    4d48:	ff ff       	.word	0xffff	; ????
    4d4a:	ff ff       	.word	0xffff	; ????
    4d4c:	ff ff       	.word	0xffff	; ????
    4d4e:	ff ff       	.word	0xffff	; ????
    4d50:	ff ff       	.word	0xffff	; ????
    4d52:	ff ff       	.word	0xffff	; ????
    4d54:	ff ff       	.word	0xffff	; ????
    4d56:	ff ff       	.word	0xffff	; ????
    4d58:	ff ff       	.word	0xffff	; ????
    4d5a:	ff ff       	.word	0xffff	; ????
    4d5c:	ff ff       	.word	0xffff	; ????
    4d5e:	ff ff       	.word	0xffff	; ????
    4d60:	ff ff       	.word	0xffff	; ????
    4d62:	ff ff       	.word	0xffff	; ????
    4d64:	ff ff       	.word	0xffff	; ????
    4d66:	ff ff       	.word	0xffff	; ????
    4d68:	ff ff       	.word	0xffff	; ????
    4d6a:	ff ff       	.word	0xffff	; ????
    4d6c:	ff ff       	.word	0xffff	; ????
    4d6e:	ff ff       	.word	0xffff	; ????
    4d70:	ff ff       	.word	0xffff	; ????
    4d72:	ff ff       	.word	0xffff	; ????
    4d74:	ff ff       	.word	0xffff	; ????
    4d76:	ff ff       	.word	0xffff	; ????
    4d78:	ff ff       	.word	0xffff	; ????
    4d7a:	ff ff       	.word	0xffff	; ????
    4d7c:	ff ff       	.word	0xffff	; ????
    4d7e:	ff ff       	.word	0xffff	; ????
    4d80:	ff ff       	.word	0xffff	; ????
    4d82:	ff ff       	.word	0xffff	; ????
    4d84:	ff ff       	.word	0xffff	; ????
    4d86:	ff ff       	.word	0xffff	; ????
    4d88:	ff ff       	.word	0xffff	; ????
    4d8a:	ff ff       	.word	0xffff	; ????
    4d8c:	ff ff       	.word	0xffff	; ????
    4d8e:	ff ff       	.word	0xffff	; ????
    4d90:	ff ff       	.word	0xffff	; ????
    4d92:	ff ff       	.word	0xffff	; ????
    4d94:	ff ff       	.word	0xffff	; ????
    4d96:	ff ff       	.word	0xffff	; ????
    4d98:	ff ff       	.word	0xffff	; ????
    4d9a:	ff ff       	.word	0xffff	; ????
    4d9c:	ff ff       	.word	0xffff	; ????
    4d9e:	ff ff       	.word	0xffff	; ????
    4da0:	ff ff       	.word	0xffff	; ????
    4da2:	ff ff       	.word	0xffff	; ????
    4da4:	ff ff       	.word	0xffff	; ????
    4da6:	ff ff       	.word	0xffff	; ????
    4da8:	ff ff       	.word	0xffff	; ????
    4daa:	ff ff       	.word	0xffff	; ????
    4dac:	ff ff       	.word	0xffff	; ????
    4dae:	ff ff       	.word	0xffff	; ????
    4db0:	ff ff       	.word	0xffff	; ????
    4db2:	ff ff       	.word	0xffff	; ????
    4db4:	ff ff       	.word	0xffff	; ????
    4db6:	ff ff       	.word	0xffff	; ????
    4db8:	ff ff       	.word	0xffff	; ????
    4dba:	ff ff       	.word	0xffff	; ????
    4dbc:	ff ff       	.word	0xffff	; ????
    4dbe:	ff ff       	.word	0xffff	; ????
    4dc0:	ff ff       	.word	0xffff	; ????
    4dc2:	ff ff       	.word	0xffff	; ????
    4dc4:	ff ff       	.word	0xffff	; ????
    4dc6:	ff ff       	.word	0xffff	; ????
    4dc8:	ff ff       	.word	0xffff	; ????
    4dca:	ff ff       	.word	0xffff	; ????
    4dcc:	ff ff       	.word	0xffff	; ????
    4dce:	ff ff       	.word	0xffff	; ????
    4dd0:	ff ff       	.word	0xffff	; ????
    4dd2:	ff ff       	.word	0xffff	; ????
    4dd4:	ff ff       	.word	0xffff	; ????
    4dd6:	ff ff       	.word	0xffff	; ????
    4dd8:	ff ff       	.word	0xffff	; ????
    4dda:	ff ff       	.word	0xffff	; ????
    4ddc:	ff ff       	.word	0xffff	; ????
    4dde:	ff ff       	.word	0xffff	; ????
    4de0:	ff ff       	.word	0xffff	; ????
    4de2:	ff ff       	.word	0xffff	; ????
    4de4:	ff ff       	.word	0xffff	; ????
    4de6:	ff ff       	.word	0xffff	; ????
    4de8:	ff ff       	.word	0xffff	; ????
    4dea:	ff ff       	.word	0xffff	; ????
    4dec:	ff ff       	.word	0xffff	; ????
    4dee:	ff ff       	.word	0xffff	; ????
    4df0:	ff ff       	.word	0xffff	; ????
    4df2:	ff ff       	.word	0xffff	; ????
    4df4:	ff ff       	.word	0xffff	; ????
    4df6:	ff ff       	.word	0xffff	; ????
    4df8:	ff ff       	.word	0xffff	; ????
    4dfa:	ff ff       	.word	0xffff	; ????
    4dfc:	ff ff       	.word	0xffff	; ????
    4dfe:	ff ff       	.word	0xffff	; ????
    4e00:	ff ff       	.word	0xffff	; ????
    4e02:	ff ff       	.word	0xffff	; ????
    4e04:	ff ff       	.word	0xffff	; ????
    4e06:	ff ff       	.word	0xffff	; ????
    4e08:	ff ff       	.word	0xffff	; ????
    4e0a:	ff ff       	.word	0xffff	; ????
    4e0c:	ff ff       	.word	0xffff	; ????
    4e0e:	ff ff       	.word	0xffff	; ????
    4e10:	ff ff       	.word	0xffff	; ????
    4e12:	ff ff       	.word	0xffff	; ????
    4e14:	ff ff       	.word	0xffff	; ????
    4e16:	ff ff       	.word	0xffff	; ????
    4e18:	ff ff       	.word	0xffff	; ????
    4e1a:	ff ff       	.word	0xffff	; ????
    4e1c:	ff ff       	.word	0xffff	; ????
    4e1e:	ff ff       	.word	0xffff	; ????
    4e20:	ff ff       	.word	0xffff	; ????
    4e22:	ff ff       	.word	0xffff	; ????
    4e24:	ff ff       	.word	0xffff	; ????
    4e26:	ff ff       	.word	0xffff	; ????
    4e28:	ff ff       	.word	0xffff	; ????
    4e2a:	ff ff       	.word	0xffff	; ????
    4e2c:	ff ff       	.word	0xffff	; ????
    4e2e:	ff ff       	.word	0xffff	; ????
    4e30:	ff ff       	.word	0xffff	; ????
    4e32:	ff ff       	.word	0xffff	; ????
    4e34:	ff ff       	.word	0xffff	; ????
    4e36:	ff ff       	.word	0xffff	; ????
    4e38:	ff ff       	.word	0xffff	; ????
    4e3a:	ff ff       	.word	0xffff	; ????
    4e3c:	ff ff       	.word	0xffff	; ????
    4e3e:	ff ff       	.word	0xffff	; ????
    4e40:	ff ff       	.word	0xffff	; ????
    4e42:	ff ff       	.word	0xffff	; ????
    4e44:	ff ff       	.word	0xffff	; ????
    4e46:	ff ff       	.word	0xffff	; ????
    4e48:	ff ff       	.word	0xffff	; ????
    4e4a:	ff ff       	.word	0xffff	; ????
    4e4c:	ff ff       	.word	0xffff	; ????
    4e4e:	ff ff       	.word	0xffff	; ????
    4e50:	ff ff       	.word	0xffff	; ????
    4e52:	ff ff       	.word	0xffff	; ????
    4e54:	ff ff       	.word	0xffff	; ????
    4e56:	ff ff       	.word	0xffff	; ????
    4e58:	ff ff       	.word	0xffff	; ????
    4e5a:	ff ff       	.word	0xffff	; ????
    4e5c:	ff ff       	.word	0xffff	; ????
    4e5e:	ff ff       	.word	0xffff	; ????
    4e60:	ff ff       	.word	0xffff	; ????
    4e62:	ff ff       	.word	0xffff	; ????
    4e64:	ff ff       	.word	0xffff	; ????
    4e66:	ff ff       	.word	0xffff	; ????
    4e68:	ff ff       	.word	0xffff	; ????
    4e6a:	ff ff       	.word	0xffff	; ????
    4e6c:	ff ff       	.word	0xffff	; ????
    4e6e:	ff ff       	.word	0xffff	; ????
    4e70:	ff ff       	.word	0xffff	; ????
    4e72:	ff ff       	.word	0xffff	; ????
    4e74:	ff ff       	.word	0xffff	; ????
    4e76:	ff ff       	.word	0xffff	; ????
    4e78:	ff ff       	.word	0xffff	; ????
    4e7a:	ff ff       	.word	0xffff	; ????
    4e7c:	ff ff       	.word	0xffff	; ????
    4e7e:	ff ff       	.word	0xffff	; ????
    4e80:	ff ff       	.word	0xffff	; ????
    4e82:	ff ff       	.word	0xffff	; ????
    4e84:	ff ff       	.word	0xffff	; ????
    4e86:	ff ff       	.word	0xffff	; ????
    4e88:	ff ff       	.word	0xffff	; ????
    4e8a:	ff ff       	.word	0xffff	; ????
    4e8c:	ff ff       	.word	0xffff	; ????
    4e8e:	ff ff       	.word	0xffff	; ????
    4e90:	ff ff       	.word	0xffff	; ????
    4e92:	ff ff       	.word	0xffff	; ????
    4e94:	ff ff       	.word	0xffff	; ????
    4e96:	ff ff       	.word	0xffff	; ????
    4e98:	ff ff       	.word	0xffff	; ????
    4e9a:	ff ff       	.word	0xffff	; ????
    4e9c:	ff ff       	.word	0xffff	; ????
    4e9e:	ff ff       	.word	0xffff	; ????
    4ea0:	ff ff       	.word	0xffff	; ????
    4ea2:	ff ff       	.word	0xffff	; ????
    4ea4:	ff ff       	.word	0xffff	; ????
    4ea6:	ff ff       	.word	0xffff	; ????
    4ea8:	ff ff       	.word	0xffff	; ????
    4eaa:	ff ff       	.word	0xffff	; ????
    4eac:	ff ff       	.word	0xffff	; ????
    4eae:	ff ff       	.word	0xffff	; ????
    4eb0:	ff ff       	.word	0xffff	; ????
    4eb2:	ff ff       	.word	0xffff	; ????
    4eb4:	ff ff       	.word	0xffff	; ????
    4eb6:	ff ff       	.word	0xffff	; ????
    4eb8:	ff ff       	.word	0xffff	; ????
    4eba:	ff ff       	.word	0xffff	; ????
    4ebc:	ff ff       	.word	0xffff	; ????
    4ebe:	ff ff       	.word	0xffff	; ????
    4ec0:	ff ff       	.word	0xffff	; ????
    4ec2:	ff ff       	.word	0xffff	; ????
    4ec4:	ff ff       	.word	0xffff	; ????
    4ec6:	ff ff       	.word	0xffff	; ????
    4ec8:	ff ff       	.word	0xffff	; ????
    4eca:	ff ff       	.word	0xffff	; ????
    4ecc:	ff ff       	.word	0xffff	; ????
    4ece:	ff ff       	.word	0xffff	; ????
    4ed0:	ff ff       	.word	0xffff	; ????
    4ed2:	ff ff       	.word	0xffff	; ????
    4ed4:	ff ff       	.word	0xffff	; ????
    4ed6:	ff ff       	.word	0xffff	; ????
    4ed8:	ff ff       	.word	0xffff	; ????
    4eda:	ff ff       	.word	0xffff	; ????
    4edc:	ff ff       	.word	0xffff	; ????
    4ede:	ff ff       	.word	0xffff	; ????
    4ee0:	ff ff       	.word	0xffff	; ????
    4ee2:	ff ff       	.word	0xffff	; ????
    4ee4:	ff ff       	.word	0xffff	; ????
    4ee6:	ff ff       	.word	0xffff	; ????
    4ee8:	ff ff       	.word	0xffff	; ????
    4eea:	ff ff       	.word	0xffff	; ????
    4eec:	ff ff       	.word	0xffff	; ????
    4eee:	ff ff       	.word	0xffff	; ????
    4ef0:	ff ff       	.word	0xffff	; ????
    4ef2:	ff ff       	.word	0xffff	; ????
    4ef4:	ff ff       	.word	0xffff	; ????
    4ef6:	ff ff       	.word	0xffff	; ????
    4ef8:	ff ff       	.word	0xffff	; ????
    4efa:	ff ff       	.word	0xffff	; ????
    4efc:	ff ff       	.word	0xffff	; ????
    4efe:	ff ff       	.word	0xffff	; ????
    4f00:	ff ff       	.word	0xffff	; ????
    4f02:	ff ff       	.word	0xffff	; ????
    4f04:	ff ff       	.word	0xffff	; ????
    4f06:	ff ff       	.word	0xffff	; ????
    4f08:	ff ff       	.word	0xffff	; ????
    4f0a:	ff ff       	.word	0xffff	; ????
    4f0c:	ff ff       	.word	0xffff	; ????
    4f0e:	ff ff       	.word	0xffff	; ????
    4f10:	ff ff       	.word	0xffff	; ????
    4f12:	ff ff       	.word	0xffff	; ????
    4f14:	ff ff       	.word	0xffff	; ????
    4f16:	ff ff       	.word	0xffff	; ????
    4f18:	ff ff       	.word	0xffff	; ????
    4f1a:	ff ff       	.word	0xffff	; ????
    4f1c:	ff ff       	.word	0xffff	; ????
    4f1e:	ff ff       	.word	0xffff	; ????
    4f20:	ff ff       	.word	0xffff	; ????
    4f22:	ff ff       	.word	0xffff	; ????
    4f24:	ff ff       	.word	0xffff	; ????
    4f26:	ff ff       	.word	0xffff	; ????
    4f28:	ff ff       	.word	0xffff	; ????
    4f2a:	ff ff       	.word	0xffff	; ????
    4f2c:	ff ff       	.word	0xffff	; ????
    4f2e:	ff ff       	.word	0xffff	; ????
    4f30:	ff ff       	.word	0xffff	; ????
    4f32:	ff ff       	.word	0xffff	; ????
    4f34:	ff ff       	.word	0xffff	; ????
    4f36:	ff ff       	.word	0xffff	; ????
    4f38:	ff ff       	.word	0xffff	; ????
    4f3a:	ff ff       	.word	0xffff	; ????
    4f3c:	ff ff       	.word	0xffff	; ????
    4f3e:	ff ff       	.word	0xffff	; ????
    4f40:	ff ff       	.word	0xffff	; ????
    4f42:	ff ff       	.word	0xffff	; ????
    4f44:	ff ff       	.word	0xffff	; ????
    4f46:	ff ff       	.word	0xffff	; ????
    4f48:	ff ff       	.word	0xffff	; ????
    4f4a:	ff ff       	.word	0xffff	; ????
    4f4c:	ff ff       	.word	0xffff	; ????
    4f4e:	ff ff       	.word	0xffff	; ????
    4f50:	ff ff       	.word	0xffff	; ????
    4f52:	ff ff       	.word	0xffff	; ????
    4f54:	ff ff       	.word	0xffff	; ????
    4f56:	ff ff       	.word	0xffff	; ????
    4f58:	ff ff       	.word	0xffff	; ????
    4f5a:	ff ff       	.word	0xffff	; ????
    4f5c:	ff ff       	.word	0xffff	; ????
    4f5e:	ff ff       	.word	0xffff	; ????
    4f60:	ff ff       	.word	0xffff	; ????
    4f62:	ff ff       	.word	0xffff	; ????
    4f64:	ff ff       	.word	0xffff	; ????
    4f66:	ff ff       	.word	0xffff	; ????
    4f68:	ff ff       	.word	0xffff	; ????
    4f6a:	ff ff       	.word	0xffff	; ????
    4f6c:	ff ff       	.word	0xffff	; ????
    4f6e:	ff ff       	.word	0xffff	; ????
    4f70:	ff ff       	.word	0xffff	; ????
    4f72:	ff ff       	.word	0xffff	; ????
    4f74:	ff ff       	.word	0xffff	; ????
    4f76:	ff ff       	.word	0xffff	; ????
    4f78:	ff ff       	.word	0xffff	; ????
    4f7a:	ff ff       	.word	0xffff	; ????
    4f7c:	ff ff       	.word	0xffff	; ????
    4f7e:	ff ff       	.word	0xffff	; ????
    4f80:	ff ff       	.word	0xffff	; ????
    4f82:	ff ff       	.word	0xffff	; ????
    4f84:	ff ff       	.word	0xffff	; ????
    4f86:	ff ff       	.word	0xffff	; ????
    4f88:	ff ff       	.word	0xffff	; ????
    4f8a:	ff ff       	.word	0xffff	; ????
    4f8c:	ff ff       	.word	0xffff	; ????
    4f8e:	ff ff       	.word	0xffff	; ????
    4f90:	ff ff       	.word	0xffff	; ????
    4f92:	ff ff       	.word	0xffff	; ????
    4f94:	ff ff       	.word	0xffff	; ????
    4f96:	ff ff       	.word	0xffff	; ????
    4f98:	ff ff       	.word	0xffff	; ????
    4f9a:	ff ff       	.word	0xffff	; ????
    4f9c:	ff ff       	.word	0xffff	; ????
    4f9e:	ff ff       	.word	0xffff	; ????
    4fa0:	ff ff       	.word	0xffff	; ????
    4fa2:	ff ff       	.word	0xffff	; ????
    4fa4:	ff ff       	.word	0xffff	; ????
    4fa6:	ff ff       	.word	0xffff	; ????
    4fa8:	ff ff       	.word	0xffff	; ????
    4faa:	ff ff       	.word	0xffff	; ????
    4fac:	ff ff       	.word	0xffff	; ????
    4fae:	ff ff       	.word	0xffff	; ????
    4fb0:	ff ff       	.word	0xffff	; ????
    4fb2:	ff ff       	.word	0xffff	; ????
    4fb4:	ff ff       	.word	0xffff	; ????
    4fb6:	ff ff       	.word	0xffff	; ????
    4fb8:	ff ff       	.word	0xffff	; ????
    4fba:	ff ff       	.word	0xffff	; ????
    4fbc:	ff ff       	.word	0xffff	; ????
    4fbe:	ff ff       	.word	0xffff	; ????
    4fc0:	ff ff       	.word	0xffff	; ????
    4fc2:	ff ff       	.word	0xffff	; ????
    4fc4:	ff ff       	.word	0xffff	; ????
    4fc6:	ff ff       	.word	0xffff	; ????
    4fc8:	ff ff       	.word	0xffff	; ????
    4fca:	ff ff       	.word	0xffff	; ????
    4fcc:	ff ff       	.word	0xffff	; ????
    4fce:	ff ff       	.word	0xffff	; ????
    4fd0:	ff ff       	.word	0xffff	; ????
    4fd2:	ff ff       	.word	0xffff	; ????
    4fd4:	ff ff       	.word	0xffff	; ????
    4fd6:	ff ff       	.word	0xffff	; ????
    4fd8:	ff ff       	.word	0xffff	; ????
    4fda:	ff ff       	.word	0xffff	; ????
    4fdc:	ff ff       	.word	0xffff	; ????
    4fde:	ff ff       	.word	0xffff	; ????
    4fe0:	ff ff       	.word	0xffff	; ????
    4fe2:	ff ff       	.word	0xffff	; ????
    4fe4:	ff ff       	.word	0xffff	; ????
    4fe6:	ff ff       	.word	0xffff	; ????
    4fe8:	ff ff       	.word	0xffff	; ????
    4fea:	ff ff       	.word	0xffff	; ????
    4fec:	ff ff       	.word	0xffff	; ????
    4fee:	ff ff       	.word	0xffff	; ????
    4ff0:	ff ff       	.word	0xffff	; ????
    4ff2:	ff ff       	.word	0xffff	; ????
    4ff4:	ff ff       	.word	0xffff	; ????
    4ff6:	ff ff       	.word	0xffff	; ????
    4ff8:	ff ff       	.word	0xffff	; ????
    4ffa:	ff ff       	.word	0xffff	; ????
    4ffc:	ff ff       	.word	0xffff	; ????
    4ffe:	ff ff       	.word	0xffff	; ????
    5000:	ff ff       	.word	0xffff	; ????
    5002:	ff ff       	.word	0xffff	; ????
    5004:	ff ff       	.word	0xffff	; ????
    5006:	ff ff       	.word	0xffff	; ????
    5008:	ff ff       	.word	0xffff	; ????
    500a:	ff ff       	.word	0xffff	; ????
    500c:	ff ff       	.word	0xffff	; ????
    500e:	ff ff       	.word	0xffff	; ????
    5010:	ff ff       	.word	0xffff	; ????
    5012:	ff ff       	.word	0xffff	; ????
    5014:	ff ff       	.word	0xffff	; ????
    5016:	ff ff       	.word	0xffff	; ????
    5018:	ff ff       	.word	0xffff	; ????
    501a:	ff ff       	.word	0xffff	; ????
    501c:	ff ff       	.word	0xffff	; ????
    501e:	ff ff       	.word	0xffff	; ????
    5020:	ff ff       	.word	0xffff	; ????
    5022:	ff ff       	.word	0xffff	; ????
    5024:	ff ff       	.word	0xffff	; ????
    5026:	ff ff       	.word	0xffff	; ????
    5028:	ff ff       	.word	0xffff	; ????
    502a:	ff ff       	.word	0xffff	; ????
    502c:	ff ff       	.word	0xffff	; ????
    502e:	ff ff       	.word	0xffff	; ????
    5030:	ff ff       	.word	0xffff	; ????
    5032:	ff ff       	.word	0xffff	; ????
    5034:	ff ff       	.word	0xffff	; ????
    5036:	ff ff       	.word	0xffff	; ????
    5038:	ff ff       	.word	0xffff	; ????
    503a:	ff ff       	.word	0xffff	; ????
    503c:	ff ff       	.word	0xffff	; ????
    503e:	ff ff       	.word	0xffff	; ????
    5040:	ff ff       	.word	0xffff	; ????
    5042:	ff ff       	.word	0xffff	; ????
    5044:	ff ff       	.word	0xffff	; ????
    5046:	ff ff       	.word	0xffff	; ????
    5048:	ff ff       	.word	0xffff	; ????
    504a:	ff ff       	.word	0xffff	; ????
    504c:	ff ff       	.word	0xffff	; ????
    504e:	ff ff       	.word	0xffff	; ????
    5050:	ff ff       	.word	0xffff	; ????
    5052:	ff ff       	.word	0xffff	; ????
    5054:	ff ff       	.word	0xffff	; ????
    5056:	ff ff       	.word	0xffff	; ????
    5058:	ff ff       	.word	0xffff	; ????
    505a:	ff ff       	.word	0xffff	; ????
    505c:	ff ff       	.word	0xffff	; ????
    505e:	ff ff       	.word	0xffff	; ????
    5060:	ff ff       	.word	0xffff	; ????
    5062:	ff ff       	.word	0xffff	; ????
    5064:	ff ff       	.word	0xffff	; ????
    5066:	ff ff       	.word	0xffff	; ????
    5068:	ff ff       	.word	0xffff	; ????
    506a:	ff ff       	.word	0xffff	; ????
    506c:	ff ff       	.word	0xffff	; ????
    506e:	ff ff       	.word	0xffff	; ????
    5070:	ff ff       	.word	0xffff	; ????
    5072:	ff ff       	.word	0xffff	; ????
    5074:	ff ff       	.word	0xffff	; ????
    5076:	ff ff       	.word	0xffff	; ????
    5078:	ff ff       	.word	0xffff	; ????
    507a:	ff ff       	.word	0xffff	; ????
    507c:	ff ff       	.word	0xffff	; ????
    507e:	ff ff       	.word	0xffff	; ????
    5080:	ff ff       	.word	0xffff	; ????
    5082:	ff ff       	.word	0xffff	; ????
    5084:	ff ff       	.word	0xffff	; ????
    5086:	ff ff       	.word	0xffff	; ????
    5088:	ff ff       	.word	0xffff	; ????
    508a:	ff ff       	.word	0xffff	; ????
    508c:	ff ff       	.word	0xffff	; ????
    508e:	ff ff       	.word	0xffff	; ????
    5090:	ff ff       	.word	0xffff	; ????
    5092:	ff ff       	.word	0xffff	; ????
    5094:	ff ff       	.word	0xffff	; ????
    5096:	ff ff       	.word	0xffff	; ????
    5098:	ff ff       	.word	0xffff	; ????
    509a:	ff ff       	.word	0xffff	; ????
    509c:	ff ff       	.word	0xffff	; ????
    509e:	ff ff       	.word	0xffff	; ????
    50a0:	ff ff       	.word	0xffff	; ????
    50a2:	ff ff       	.word	0xffff	; ????
    50a4:	ff ff       	.word	0xffff	; ????
    50a6:	ff ff       	.word	0xffff	; ????
    50a8:	ff ff       	.word	0xffff	; ????
    50aa:	ff ff       	.word	0xffff	; ????
    50ac:	ff ff       	.word	0xffff	; ????
    50ae:	ff ff       	.word	0xffff	; ????
    50b0:	ff ff       	.word	0xffff	; ????
    50b2:	ff ff       	.word	0xffff	; ????
    50b4:	ff ff       	.word	0xffff	; ????
    50b6:	ff ff       	.word	0xffff	; ????
    50b8:	ff ff       	.word	0xffff	; ????
    50ba:	ff ff       	.word	0xffff	; ????
    50bc:	ff ff       	.word	0xffff	; ????
    50be:	ff ff       	.word	0xffff	; ????
    50c0:	ff ff       	.word	0xffff	; ????
    50c2:	ff ff       	.word	0xffff	; ????
    50c4:	ff ff       	.word	0xffff	; ????
    50c6:	ff ff       	.word	0xffff	; ????
    50c8:	ff ff       	.word	0xffff	; ????
    50ca:	ff ff       	.word	0xffff	; ????
    50cc:	ff ff       	.word	0xffff	; ????
    50ce:	ff ff       	.word	0xffff	; ????
    50d0:	ff ff       	.word	0xffff	; ????
    50d2:	ff ff       	.word	0xffff	; ????
    50d4:	ff ff       	.word	0xffff	; ????
    50d6:	ff ff       	.word	0xffff	; ????
    50d8:	ff ff       	.word	0xffff	; ????
    50da:	ff ff       	.word	0xffff	; ????
    50dc:	ff ff       	.word	0xffff	; ????
    50de:	ff ff       	.word	0xffff	; ????
    50e0:	ff ff       	.word	0xffff	; ????
    50e2:	ff ff       	.word	0xffff	; ????
    50e4:	ff ff       	.word	0xffff	; ????
    50e6:	ff ff       	.word	0xffff	; ????
    50e8:	ff ff       	.word	0xffff	; ????
    50ea:	ff ff       	.word	0xffff	; ????
    50ec:	ff ff       	.word	0xffff	; ????
    50ee:	ff ff       	.word	0xffff	; ????
    50f0:	ff ff       	.word	0xffff	; ????
    50f2:	ff ff       	.word	0xffff	; ????
    50f4:	ff ff       	.word	0xffff	; ????
    50f6:	ff ff       	.word	0xffff	; ????
    50f8:	ff ff       	.word	0xffff	; ????
    50fa:	ff ff       	.word	0xffff	; ????
    50fc:	ff ff       	.word	0xffff	; ????
    50fe:	ff ff       	.word	0xffff	; ????
    5100:	ff ff       	.word	0xffff	; ????
    5102:	ff ff       	.word	0xffff	; ????
    5104:	ff ff       	.word	0xffff	; ????
    5106:	ff ff       	.word	0xffff	; ????
    5108:	ff ff       	.word	0xffff	; ????
    510a:	ff ff       	.word	0xffff	; ????
    510c:	ff ff       	.word	0xffff	; ????
    510e:	ff ff       	.word	0xffff	; ????
    5110:	ff ff       	.word	0xffff	; ????
    5112:	ff ff       	.word	0xffff	; ????
    5114:	ff ff       	.word	0xffff	; ????
    5116:	ff ff       	.word	0xffff	; ????
    5118:	ff ff       	.word	0xffff	; ????
    511a:	ff ff       	.word	0xffff	; ????
    511c:	ff ff       	.word	0xffff	; ????
    511e:	ff ff       	.word	0xffff	; ????
    5120:	ff ff       	.word	0xffff	; ????
    5122:	ff ff       	.word	0xffff	; ????
    5124:	ff ff       	.word	0xffff	; ????
    5126:	ff ff       	.word	0xffff	; ????
    5128:	ff ff       	.word	0xffff	; ????
    512a:	ff ff       	.word	0xffff	; ????
    512c:	ff ff       	.word	0xffff	; ????
    512e:	ff ff       	.word	0xffff	; ????
    5130:	ff ff       	.word	0xffff	; ????
    5132:	ff ff       	.word	0xffff	; ????
    5134:	ff ff       	.word	0xffff	; ????
    5136:	ff ff       	.word	0xffff	; ????
    5138:	ff ff       	.word	0xffff	; ????
    513a:	ff ff       	.word	0xffff	; ????
    513c:	ff ff       	.word	0xffff	; ????
    513e:	ff ff       	.word	0xffff	; ????
    5140:	ff ff       	.word	0xffff	; ????
    5142:	ff ff       	.word	0xffff	; ????
    5144:	ff ff       	.word	0xffff	; ????
    5146:	ff ff       	.word	0xffff	; ????
    5148:	ff ff       	.word	0xffff	; ????
    514a:	ff ff       	.word	0xffff	; ????
    514c:	ff ff       	.word	0xffff	; ????
    514e:	ff ff       	.word	0xffff	; ????
    5150:	ff ff       	.word	0xffff	; ????
    5152:	ff ff       	.word	0xffff	; ????
    5154:	ff ff       	.word	0xffff	; ????
    5156:	ff ff       	.word	0xffff	; ????
    5158:	ff ff       	.word	0xffff	; ????
    515a:	ff ff       	.word	0xffff	; ????
    515c:	ff ff       	.word	0xffff	; ????
    515e:	ff ff       	.word	0xffff	; ????
    5160:	ff ff       	.word	0xffff	; ????
    5162:	ff ff       	.word	0xffff	; ????
    5164:	ff ff       	.word	0xffff	; ????
    5166:	ff ff       	.word	0xffff	; ????
    5168:	ff ff       	.word	0xffff	; ????
    516a:	ff ff       	.word	0xffff	; ????
    516c:	ff ff       	.word	0xffff	; ????
    516e:	ff ff       	.word	0xffff	; ????
    5170:	ff ff       	.word	0xffff	; ????
    5172:	ff ff       	.word	0xffff	; ????
    5174:	ff ff       	.word	0xffff	; ????
    5176:	ff ff       	.word	0xffff	; ????
    5178:	ff ff       	.word	0xffff	; ????
    517a:	ff ff       	.word	0xffff	; ????
    517c:	ff ff       	.word	0xffff	; ????
    517e:	ff ff       	.word	0xffff	; ????
    5180:	ff ff       	.word	0xffff	; ????
    5182:	ff ff       	.word	0xffff	; ????
    5184:	ff ff       	.word	0xffff	; ????
    5186:	ff ff       	.word	0xffff	; ????
    5188:	ff ff       	.word	0xffff	; ????
    518a:	ff ff       	.word	0xffff	; ????
    518c:	ff ff       	.word	0xffff	; ????
    518e:	ff ff       	.word	0xffff	; ????
    5190:	ff ff       	.word	0xffff	; ????
    5192:	ff ff       	.word	0xffff	; ????
    5194:	ff ff       	.word	0xffff	; ????
    5196:	ff ff       	.word	0xffff	; ????
    5198:	ff ff       	.word	0xffff	; ????
    519a:	ff ff       	.word	0xffff	; ????
    519c:	ff ff       	.word	0xffff	; ????
    519e:	ff ff       	.word	0xffff	; ????
    51a0:	ff ff       	.word	0xffff	; ????
    51a2:	ff ff       	.word	0xffff	; ????
    51a4:	ff ff       	.word	0xffff	; ????
    51a6:	ff ff       	.word	0xffff	; ????
    51a8:	ff ff       	.word	0xffff	; ????
    51aa:	ff ff       	.word	0xffff	; ????
    51ac:	ff ff       	.word	0xffff	; ????
    51ae:	ff ff       	.word	0xffff	; ????
    51b0:	ff ff       	.word	0xffff	; ????
    51b2:	ff ff       	.word	0xffff	; ????
    51b4:	ff ff       	.word	0xffff	; ????
    51b6:	ff ff       	.word	0xffff	; ????
    51b8:	ff ff       	.word	0xffff	; ????
    51ba:	ff ff       	.word	0xffff	; ????
    51bc:	ff ff       	.word	0xffff	; ????
    51be:	ff ff       	.word	0xffff	; ????
    51c0:	ff ff       	.word	0xffff	; ????
    51c2:	ff ff       	.word	0xffff	; ????
    51c4:	ff ff       	.word	0xffff	; ????
    51c6:	ff ff       	.word	0xffff	; ????
    51c8:	ff ff       	.word	0xffff	; ????
    51ca:	ff ff       	.word	0xffff	; ????
    51cc:	ff ff       	.word	0xffff	; ????
    51ce:	ff ff       	.word	0xffff	; ????
    51d0:	ff ff       	.word	0xffff	; ????
    51d2:	ff ff       	.word	0xffff	; ????
    51d4:	ff ff       	.word	0xffff	; ????
    51d6:	ff ff       	.word	0xffff	; ????
    51d8:	ff ff       	.word	0xffff	; ????
    51da:	ff ff       	.word	0xffff	; ????
    51dc:	ff ff       	.word	0xffff	; ????
    51de:	ff ff       	.word	0xffff	; ????
    51e0:	ff ff       	.word	0xffff	; ????
    51e2:	ff ff       	.word	0xffff	; ????
    51e4:	ff ff       	.word	0xffff	; ????
    51e6:	ff ff       	.word	0xffff	; ????
    51e8:	ff ff       	.word	0xffff	; ????
    51ea:	ff ff       	.word	0xffff	; ????
    51ec:	ff ff       	.word	0xffff	; ????
    51ee:	ff ff       	.word	0xffff	; ????
    51f0:	ff ff       	.word	0xffff	; ????
    51f2:	ff ff       	.word	0xffff	; ????
    51f4:	ff ff       	.word	0xffff	; ????
    51f6:	ff ff       	.word	0xffff	; ????
    51f8:	ff ff       	.word	0xffff	; ????
    51fa:	ff ff       	.word	0xffff	; ????
    51fc:	ff ff       	.word	0xffff	; ????
    51fe:	ff ff       	.word	0xffff	; ????
    5200:	ff ff       	.word	0xffff	; ????
    5202:	ff ff       	.word	0xffff	; ????
    5204:	ff ff       	.word	0xffff	; ????
    5206:	ff ff       	.word	0xffff	; ????
    5208:	ff ff       	.word	0xffff	; ????
    520a:	ff ff       	.word	0xffff	; ????
    520c:	ff ff       	.word	0xffff	; ????
    520e:	ff ff       	.word	0xffff	; ????
    5210:	ff ff       	.word	0xffff	; ????
    5212:	ff ff       	.word	0xffff	; ????
    5214:	ff ff       	.word	0xffff	; ????
    5216:	ff ff       	.word	0xffff	; ????
    5218:	ff ff       	.word	0xffff	; ????
    521a:	ff ff       	.word	0xffff	; ????
    521c:	ff ff       	.word	0xffff	; ????
    521e:	ff ff       	.word	0xffff	; ????
    5220:	ff ff       	.word	0xffff	; ????
    5222:	ff ff       	.word	0xffff	; ????
    5224:	ff ff       	.word	0xffff	; ????
    5226:	ff ff       	.word	0xffff	; ????
    5228:	ff ff       	.word	0xffff	; ????
    522a:	ff ff       	.word	0xffff	; ????
    522c:	ff ff       	.word	0xffff	; ????
    522e:	ff ff       	.word	0xffff	; ????
    5230:	ff ff       	.word	0xffff	; ????
    5232:	ff ff       	.word	0xffff	; ????
    5234:	ff ff       	.word	0xffff	; ????
    5236:	ff ff       	.word	0xffff	; ????
    5238:	ff ff       	.word	0xffff	; ????
    523a:	ff ff       	.word	0xffff	; ????
    523c:	ff ff       	.word	0xffff	; ????
    523e:	ff ff       	.word	0xffff	; ????
    5240:	ff ff       	.word	0xffff	; ????
    5242:	ff ff       	.word	0xffff	; ????
    5244:	ff ff       	.word	0xffff	; ????
    5246:	ff ff       	.word	0xffff	; ????
    5248:	ff ff       	.word	0xffff	; ????
    524a:	ff ff       	.word	0xffff	; ????
    524c:	ff ff       	.word	0xffff	; ????
    524e:	ff ff       	.word	0xffff	; ????
    5250:	ff ff       	.word	0xffff	; ????
    5252:	ff ff       	.word	0xffff	; ????
    5254:	ff ff       	.word	0xffff	; ????
    5256:	ff ff       	.word	0xffff	; ????
    5258:	ff ff       	.word	0xffff	; ????
    525a:	ff ff       	.word	0xffff	; ????
    525c:	ff ff       	.word	0xffff	; ????
    525e:	ff ff       	.word	0xffff	; ????
    5260:	ff ff       	.word	0xffff	; ????
    5262:	ff ff       	.word	0xffff	; ????
    5264:	ff ff       	.word	0xffff	; ????
    5266:	ff ff       	.word	0xffff	; ????
    5268:	ff ff       	.word	0xffff	; ????
    526a:	ff ff       	.word	0xffff	; ????
    526c:	ff ff       	.word	0xffff	; ????
    526e:	ff ff       	.word	0xffff	; ????
    5270:	ff ff       	.word	0xffff	; ????
    5272:	ff ff       	.word	0xffff	; ????
    5274:	ff ff       	.word	0xffff	; ????
    5276:	ff ff       	.word	0xffff	; ????
    5278:	ff ff       	.word	0xffff	; ????
    527a:	ff ff       	.word	0xffff	; ????
    527c:	ff ff       	.word	0xffff	; ????
    527e:	ff ff       	.word	0xffff	; ????
    5280:	ff ff       	.word	0xffff	; ????
    5282:	ff ff       	.word	0xffff	; ????
    5284:	ff ff       	.word	0xffff	; ????
    5286:	ff ff       	.word	0xffff	; ????
    5288:	ff ff       	.word	0xffff	; ????
    528a:	ff ff       	.word	0xffff	; ????
    528c:	ff ff       	.word	0xffff	; ????
    528e:	ff ff       	.word	0xffff	; ????
    5290:	ff ff       	.word	0xffff	; ????
    5292:	ff ff       	.word	0xffff	; ????
    5294:	ff ff       	.word	0xffff	; ????
    5296:	ff ff       	.word	0xffff	; ????
    5298:	ff ff       	.word	0xffff	; ????
    529a:	ff ff       	.word	0xffff	; ????
    529c:	ff ff       	.word	0xffff	; ????
    529e:	ff ff       	.word	0xffff	; ????
    52a0:	ff ff       	.word	0xffff	; ????
    52a2:	ff ff       	.word	0xffff	; ????
    52a4:	ff ff       	.word	0xffff	; ????
    52a6:	ff ff       	.word	0xffff	; ????
    52a8:	ff ff       	.word	0xffff	; ????
    52aa:	ff ff       	.word	0xffff	; ????
    52ac:	ff ff       	.word	0xffff	; ????
    52ae:	ff ff       	.word	0xffff	; ????
    52b0:	ff ff       	.word	0xffff	; ????
    52b2:	ff ff       	.word	0xffff	; ????
    52b4:	ff ff       	.word	0xffff	; ????
    52b6:	ff ff       	.word	0xffff	; ????
    52b8:	ff ff       	.word	0xffff	; ????
    52ba:	ff ff       	.word	0xffff	; ????
    52bc:	ff ff       	.word	0xffff	; ????
    52be:	ff ff       	.word	0xffff	; ????
    52c0:	ff ff       	.word	0xffff	; ????
    52c2:	ff ff       	.word	0xffff	; ????
    52c4:	ff ff       	.word	0xffff	; ????
    52c6:	ff ff       	.word	0xffff	; ????
    52c8:	ff ff       	.word	0xffff	; ????
    52ca:	ff ff       	.word	0xffff	; ????
    52cc:	ff ff       	.word	0xffff	; ????
    52ce:	ff ff       	.word	0xffff	; ????
    52d0:	ff ff       	.word	0xffff	; ????
    52d2:	ff ff       	.word	0xffff	; ????
    52d4:	ff ff       	.word	0xffff	; ????
    52d6:	ff ff       	.word	0xffff	; ????
    52d8:	ff ff       	.word	0xffff	; ????
    52da:	ff ff       	.word	0xffff	; ????
    52dc:	ff ff       	.word	0xffff	; ????
    52de:	ff ff       	.word	0xffff	; ????
    52e0:	ff ff       	.word	0xffff	; ????
    52e2:	ff ff       	.word	0xffff	; ????
    52e4:	ff ff       	.word	0xffff	; ????
    52e6:	ff ff       	.word	0xffff	; ????
    52e8:	ff ff       	.word	0xffff	; ????
    52ea:	ff ff       	.word	0xffff	; ????
    52ec:	ff ff       	.word	0xffff	; ????
    52ee:	ff ff       	.word	0xffff	; ????
    52f0:	ff ff       	.word	0xffff	; ????
    52f2:	ff ff       	.word	0xffff	; ????
    52f4:	ff ff       	.word	0xffff	; ????
    52f6:	ff ff       	.word	0xffff	; ????
    52f8:	ff ff       	.word	0xffff	; ????
    52fa:	ff ff       	.word	0xffff	; ????
    52fc:	ff ff       	.word	0xffff	; ????
    52fe:	ff ff       	.word	0xffff	; ????
    5300:	ff ff       	.word	0xffff	; ????
    5302:	ff ff       	.word	0xffff	; ????
    5304:	ff ff       	.word	0xffff	; ????
    5306:	ff ff       	.word	0xffff	; ????
    5308:	ff ff       	.word	0xffff	; ????
    530a:	ff ff       	.word	0xffff	; ????
    530c:	ff ff       	.word	0xffff	; ????
    530e:	ff ff       	.word	0xffff	; ????
    5310:	ff ff       	.word	0xffff	; ????
    5312:	ff ff       	.word	0xffff	; ????
    5314:	ff ff       	.word	0xffff	; ????
    5316:	ff ff       	.word	0xffff	; ????
    5318:	ff ff       	.word	0xffff	; ????
    531a:	ff ff       	.word	0xffff	; ????
    531c:	ff ff       	.word	0xffff	; ????
    531e:	ff ff       	.word	0xffff	; ????
    5320:	ff ff       	.word	0xffff	; ????
    5322:	ff ff       	.word	0xffff	; ????
    5324:	ff ff       	.word	0xffff	; ????
    5326:	ff ff       	.word	0xffff	; ????
    5328:	ff ff       	.word	0xffff	; ????
    532a:	ff ff       	.word	0xffff	; ????
    532c:	ff ff       	.word	0xffff	; ????
    532e:	ff ff       	.word	0xffff	; ????
    5330:	ff ff       	.word	0xffff	; ????
    5332:	ff ff       	.word	0xffff	; ????
    5334:	ff ff       	.word	0xffff	; ????
    5336:	ff ff       	.word	0xffff	; ????
    5338:	ff ff       	.word	0xffff	; ????
    533a:	ff ff       	.word	0xffff	; ????
    533c:	ff ff       	.word	0xffff	; ????
    533e:	ff ff       	.word	0xffff	; ????
    5340:	ff ff       	.word	0xffff	; ????
    5342:	ff ff       	.word	0xffff	; ????
    5344:	ff ff       	.word	0xffff	; ????
    5346:	ff ff       	.word	0xffff	; ????
    5348:	ff ff       	.word	0xffff	; ????
    534a:	ff ff       	.word	0xffff	; ????
    534c:	ff ff       	.word	0xffff	; ????
    534e:	ff ff       	.word	0xffff	; ????
    5350:	ff ff       	.word	0xffff	; ????
    5352:	ff ff       	.word	0xffff	; ????
    5354:	ff ff       	.word	0xffff	; ????
    5356:	ff ff       	.word	0xffff	; ????
    5358:	ff ff       	.word	0xffff	; ????
    535a:	ff ff       	.word	0xffff	; ????
    535c:	ff ff       	.word	0xffff	; ????
    535e:	ff ff       	.word	0xffff	; ????
    5360:	ff ff       	.word	0xffff	; ????
    5362:	ff ff       	.word	0xffff	; ????
    5364:	ff ff       	.word	0xffff	; ????
    5366:	ff ff       	.word	0xffff	; ????
    5368:	ff ff       	.word	0xffff	; ????
    536a:	ff ff       	.word	0xffff	; ????
    536c:	ff ff       	.word	0xffff	; ????
    536e:	ff ff       	.word	0xffff	; ????
    5370:	ff ff       	.word	0xffff	; ????
    5372:	ff ff       	.word	0xffff	; ????
    5374:	ff ff       	.word	0xffff	; ????
    5376:	ff ff       	.word	0xffff	; ????
    5378:	ff ff       	.word	0xffff	; ????
    537a:	ff ff       	.word	0xffff	; ????
    537c:	ff ff       	.word	0xffff	; ????
    537e:	ff ff       	.word	0xffff	; ????
    5380:	ff ff       	.word	0xffff	; ????
    5382:	ff ff       	.word	0xffff	; ????
    5384:	ff ff       	.word	0xffff	; ????
    5386:	ff ff       	.word	0xffff	; ????
    5388:	ff ff       	.word	0xffff	; ????
    538a:	ff ff       	.word	0xffff	; ????
    538c:	ff ff       	.word	0xffff	; ????
    538e:	ff ff       	.word	0xffff	; ????
    5390:	ff ff       	.word	0xffff	; ????
    5392:	ff ff       	.word	0xffff	; ????
    5394:	ff ff       	.word	0xffff	; ????
    5396:	ff ff       	.word	0xffff	; ????
    5398:	ff ff       	.word	0xffff	; ????
    539a:	ff ff       	.word	0xffff	; ????
    539c:	ff ff       	.word	0xffff	; ????
    539e:	ff ff       	.word	0xffff	; ????
    53a0:	ff ff       	.word	0xffff	; ????
    53a2:	ff ff       	.word	0xffff	; ????
    53a4:	ff ff       	.word	0xffff	; ????
    53a6:	ff ff       	.word	0xffff	; ????
    53a8:	ff ff       	.word	0xffff	; ????
    53aa:	ff ff       	.word	0xffff	; ????
    53ac:	ff ff       	.word	0xffff	; ????
    53ae:	ff ff       	.word	0xffff	; ????
    53b0:	ff ff       	.word	0xffff	; ????
    53b2:	ff ff       	.word	0xffff	; ????
    53b4:	ff ff       	.word	0xffff	; ????
    53b6:	ff ff       	.word	0xffff	; ????
    53b8:	ff ff       	.word	0xffff	; ????
    53ba:	ff ff       	.word	0xffff	; ????
    53bc:	ff ff       	.word	0xffff	; ????
    53be:	ff ff       	.word	0xffff	; ????
    53c0:	ff ff       	.word	0xffff	; ????
    53c2:	ff ff       	.word	0xffff	; ????
    53c4:	ff ff       	.word	0xffff	; ????
    53c6:	ff ff       	.word	0xffff	; ????
    53c8:	ff ff       	.word	0xffff	; ????
    53ca:	ff ff       	.word	0xffff	; ????
    53cc:	ff ff       	.word	0xffff	; ????
    53ce:	ff ff       	.word	0xffff	; ????
    53d0:	ff ff       	.word	0xffff	; ????
    53d2:	ff ff       	.word	0xffff	; ????
    53d4:	ff ff       	.word	0xffff	; ????
    53d6:	ff ff       	.word	0xffff	; ????
    53d8:	ff ff       	.word	0xffff	; ????
    53da:	ff ff       	.word	0xffff	; ????
    53dc:	ff ff       	.word	0xffff	; ????
    53de:	ff ff       	.word	0xffff	; ????
    53e0:	ff ff       	.word	0xffff	; ????
    53e2:	ff ff       	.word	0xffff	; ????
    53e4:	ff ff       	.word	0xffff	; ????
    53e6:	ff ff       	.word	0xffff	; ????
    53e8:	ff ff       	.word	0xffff	; ????
    53ea:	ff ff       	.word	0xffff	; ????
    53ec:	ff ff       	.word	0xffff	; ????
    53ee:	ff ff       	.word	0xffff	; ????
    53f0:	ff ff       	.word	0xffff	; ????
    53f2:	ff ff       	.word	0xffff	; ????
    53f4:	ff ff       	.word	0xffff	; ????
    53f6:	ff ff       	.word	0xffff	; ????
    53f8:	ff ff       	.word	0xffff	; ????
    53fa:	ff ff       	.word	0xffff	; ????
    53fc:	ff ff       	.word	0xffff	; ????
    53fe:	ff ff       	.word	0xffff	; ????
    5400:	ff ff       	.word	0xffff	; ????
    5402:	ff ff       	.word	0xffff	; ????
    5404:	ff ff       	.word	0xffff	; ????
    5406:	ff ff       	.word	0xffff	; ????
    5408:	ff ff       	.word	0xffff	; ????
    540a:	ff ff       	.word	0xffff	; ????
    540c:	ff ff       	.word	0xffff	; ????
    540e:	ff ff       	.word	0xffff	; ????
    5410:	ff ff       	.word	0xffff	; ????
    5412:	ff ff       	.word	0xffff	; ????
    5414:	ff ff       	.word	0xffff	; ????
    5416:	ff ff       	.word	0xffff	; ????
    5418:	ff ff       	.word	0xffff	; ????
    541a:	ff ff       	.word	0xffff	; ????
    541c:	ff ff       	.word	0xffff	; ????
    541e:	ff ff       	.word	0xffff	; ????
    5420:	ff ff       	.word	0xffff	; ????
    5422:	ff ff       	.word	0xffff	; ????
    5424:	ff ff       	.word	0xffff	; ????
    5426:	ff ff       	.word	0xffff	; ????
    5428:	ff ff       	.word	0xffff	; ????
    542a:	ff ff       	.word	0xffff	; ????
    542c:	ff ff       	.word	0xffff	; ????
    542e:	ff ff       	.word	0xffff	; ????
    5430:	ff ff       	.word	0xffff	; ????
    5432:	ff ff       	.word	0xffff	; ????
    5434:	ff ff       	.word	0xffff	; ????
    5436:	ff ff       	.word	0xffff	; ????
    5438:	ff ff       	.word	0xffff	; ????
    543a:	ff ff       	.word	0xffff	; ????
    543c:	ff ff       	.word	0xffff	; ????
    543e:	ff ff       	.word	0xffff	; ????
    5440:	ff ff       	.word	0xffff	; ????
    5442:	ff ff       	.word	0xffff	; ????
    5444:	ff ff       	.word	0xffff	; ????
    5446:	ff ff       	.word	0xffff	; ????
    5448:	ff ff       	.word	0xffff	; ????
    544a:	ff ff       	.word	0xffff	; ????
    544c:	ff ff       	.word	0xffff	; ????
    544e:	ff ff       	.word	0xffff	; ????
    5450:	ff ff       	.word	0xffff	; ????
    5452:	ff ff       	.word	0xffff	; ????
    5454:	ff ff       	.word	0xffff	; ????
    5456:	ff ff       	.word	0xffff	; ????
    5458:	ff ff       	.word	0xffff	; ????
    545a:	ff ff       	.word	0xffff	; ????
    545c:	ff ff       	.word	0xffff	; ????
    545e:	ff ff       	.word	0xffff	; ????
    5460:	ff ff       	.word	0xffff	; ????
    5462:	ff ff       	.word	0xffff	; ????
    5464:	ff ff       	.word	0xffff	; ????
    5466:	ff ff       	.word	0xffff	; ????
    5468:	ff ff       	.word	0xffff	; ????
    546a:	ff ff       	.word	0xffff	; ????
    546c:	ff ff       	.word	0xffff	; ????
    546e:	ff ff       	.word	0xffff	; ????
    5470:	ff ff       	.word	0xffff	; ????
    5472:	ff ff       	.word	0xffff	; ????
    5474:	ff ff       	.word	0xffff	; ????
    5476:	ff ff       	.word	0xffff	; ????
    5478:	ff ff       	.word	0xffff	; ????
    547a:	ff ff       	.word	0xffff	; ????
    547c:	ff ff       	.word	0xffff	; ????
    547e:	ff ff       	.word	0xffff	; ????
    5480:	ff ff       	.word	0xffff	; ????
    5482:	ff ff       	.word	0xffff	; ????
    5484:	ff ff       	.word	0xffff	; ????
    5486:	ff ff       	.word	0xffff	; ????
    5488:	ff ff       	.word	0xffff	; ????
    548a:	ff ff       	.word	0xffff	; ????
    548c:	ff ff       	.word	0xffff	; ????
    548e:	ff ff       	.word	0xffff	; ????
    5490:	ff ff       	.word	0xffff	; ????
    5492:	ff ff       	.word	0xffff	; ????
    5494:	ff ff       	.word	0xffff	; ????
    5496:	ff ff       	.word	0xffff	; ????
    5498:	ff ff       	.word	0xffff	; ????
    549a:	ff ff       	.word	0xffff	; ????
    549c:	ff ff       	.word	0xffff	; ????
    549e:	ff ff       	.word	0xffff	; ????
    54a0:	ff ff       	.word	0xffff	; ????
    54a2:	ff ff       	.word	0xffff	; ????
    54a4:	ff ff       	.word	0xffff	; ????
    54a6:	ff ff       	.word	0xffff	; ????
    54a8:	ff ff       	.word	0xffff	; ????
    54aa:	ff ff       	.word	0xffff	; ????
    54ac:	ff ff       	.word	0xffff	; ????
    54ae:	ff ff       	.word	0xffff	; ????
    54b0:	ff ff       	.word	0xffff	; ????
    54b2:	ff ff       	.word	0xffff	; ????
    54b4:	ff ff       	.word	0xffff	; ????
    54b6:	ff ff       	.word	0xffff	; ????
    54b8:	ff ff       	.word	0xffff	; ????
    54ba:	ff ff       	.word	0xffff	; ????
    54bc:	ff ff       	.word	0xffff	; ????
    54be:	ff ff       	.word	0xffff	; ????
    54c0:	ff ff       	.word	0xffff	; ????
    54c2:	ff ff       	.word	0xffff	; ????
    54c4:	ff ff       	.word	0xffff	; ????
    54c6:	ff ff       	.word	0xffff	; ????
    54c8:	ff ff       	.word	0xffff	; ????
    54ca:	ff ff       	.word	0xffff	; ????
    54cc:	ff ff       	.word	0xffff	; ????
    54ce:	ff ff       	.word	0xffff	; ????
    54d0:	ff ff       	.word	0xffff	; ????
    54d2:	ff ff       	.word	0xffff	; ????
    54d4:	ff ff       	.word	0xffff	; ????
    54d6:	ff ff       	.word	0xffff	; ????
    54d8:	ff ff       	.word	0xffff	; ????
    54da:	ff ff       	.word	0xffff	; ????
    54dc:	ff ff       	.word	0xffff	; ????
    54de:	ff ff       	.word	0xffff	; ????
    54e0:	ff ff       	.word	0xffff	; ????
    54e2:	ff ff       	.word	0xffff	; ????
    54e4:	ff ff       	.word	0xffff	; ????
    54e6:	ff ff       	.word	0xffff	; ????
    54e8:	ff ff       	.word	0xffff	; ????
    54ea:	ff ff       	.word	0xffff	; ????
    54ec:	ff ff       	.word	0xffff	; ????
    54ee:	ff ff       	.word	0xffff	; ????
    54f0:	ff ff       	.word	0xffff	; ????
    54f2:	ff ff       	.word	0xffff	; ????
    54f4:	ff ff       	.word	0xffff	; ????
    54f6:	ff ff       	.word	0xffff	; ????
    54f8:	ff ff       	.word	0xffff	; ????
    54fa:	ff ff       	.word	0xffff	; ????
    54fc:	ff ff       	.word	0xffff	; ????
    54fe:	ff ff       	.word	0xffff	; ????
    5500:	ff ff       	.word	0xffff	; ????
    5502:	ff ff       	.word	0xffff	; ????
    5504:	ff ff       	.word	0xffff	; ????
    5506:	ff ff       	.word	0xffff	; ????
    5508:	ff ff       	.word	0xffff	; ????
    550a:	ff ff       	.word	0xffff	; ????
    550c:	ff ff       	.word	0xffff	; ????
    550e:	ff ff       	.word	0xffff	; ????
    5510:	ff ff       	.word	0xffff	; ????
    5512:	ff ff       	.word	0xffff	; ????
    5514:	ff ff       	.word	0xffff	; ????
    5516:	ff ff       	.word	0xffff	; ????
    5518:	ff ff       	.word	0xffff	; ????
    551a:	ff ff       	.word	0xffff	; ????
    551c:	ff ff       	.word	0xffff	; ????
    551e:	ff ff       	.word	0xffff	; ????
    5520:	ff ff       	.word	0xffff	; ????
    5522:	ff ff       	.word	0xffff	; ????
    5524:	ff ff       	.word	0xffff	; ????
    5526:	ff ff       	.word	0xffff	; ????
    5528:	ff ff       	.word	0xffff	; ????
    552a:	ff ff       	.word	0xffff	; ????
    552c:	ff ff       	.word	0xffff	; ????
    552e:	ff ff       	.word	0xffff	; ????
    5530:	ff ff       	.word	0xffff	; ????
    5532:	ff ff       	.word	0xffff	; ????
    5534:	ff ff       	.word	0xffff	; ????
    5536:	ff ff       	.word	0xffff	; ????
    5538:	ff ff       	.word	0xffff	; ????
    553a:	ff ff       	.word	0xffff	; ????
    553c:	ff ff       	.word	0xffff	; ????
    553e:	ff ff       	.word	0xffff	; ????
    5540:	ff ff       	.word	0xffff	; ????
    5542:	ff ff       	.word	0xffff	; ????
    5544:	ff ff       	.word	0xffff	; ????
    5546:	ff ff       	.word	0xffff	; ????
    5548:	ff ff       	.word	0xffff	; ????
    554a:	ff ff       	.word	0xffff	; ????
    554c:	ff ff       	.word	0xffff	; ????
    554e:	ff ff       	.word	0xffff	; ????
    5550:	ff ff       	.word	0xffff	; ????
    5552:	ff ff       	.word	0xffff	; ????
    5554:	ff ff       	.word	0xffff	; ????
    5556:	ff ff       	.word	0xffff	; ????
    5558:	ff ff       	.word	0xffff	; ????
    555a:	ff ff       	.word	0xffff	; ????
    555c:	ff ff       	.word	0xffff	; ????
    555e:	ff ff       	.word	0xffff	; ????
    5560:	ff ff       	.word	0xffff	; ????
    5562:	ff ff       	.word	0xffff	; ????
    5564:	ff ff       	.word	0xffff	; ????
    5566:	ff ff       	.word	0xffff	; ????
    5568:	ff ff       	.word	0xffff	; ????
    556a:	ff ff       	.word	0xffff	; ????
    556c:	ff ff       	.word	0xffff	; ????
    556e:	ff ff       	.word	0xffff	; ????
    5570:	ff ff       	.word	0xffff	; ????
    5572:	ff ff       	.word	0xffff	; ????
    5574:	ff ff       	.word	0xffff	; ????
    5576:	ff ff       	.word	0xffff	; ????
    5578:	ff ff       	.word	0xffff	; ????
    557a:	ff ff       	.word	0xffff	; ????
    557c:	ff ff       	.word	0xffff	; ????
    557e:	ff ff       	.word	0xffff	; ????
    5580:	ff ff       	.word	0xffff	; ????
    5582:	ff ff       	.word	0xffff	; ????
    5584:	ff ff       	.word	0xffff	; ????
    5586:	ff ff       	.word	0xffff	; ????
    5588:	ff ff       	.word	0xffff	; ????
    558a:	ff ff       	.word	0xffff	; ????
    558c:	ff ff       	.word	0xffff	; ????
    558e:	ff ff       	.word	0xffff	; ????
    5590:	ff ff       	.word	0xffff	; ????
    5592:	ff ff       	.word	0xffff	; ????
    5594:	ff ff       	.word	0xffff	; ????
    5596:	ff ff       	.word	0xffff	; ????
    5598:	ff ff       	.word	0xffff	; ????
    559a:	ff ff       	.word	0xffff	; ????
    559c:	ff ff       	.word	0xffff	; ????
    559e:	ff ff       	.word	0xffff	; ????
    55a0:	ff ff       	.word	0xffff	; ????
    55a2:	ff ff       	.word	0xffff	; ????
    55a4:	ff ff       	.word	0xffff	; ????
    55a6:	ff ff       	.word	0xffff	; ????
    55a8:	ff ff       	.word	0xffff	; ????
    55aa:	ff ff       	.word	0xffff	; ????
    55ac:	ff ff       	.word	0xffff	; ????
    55ae:	ff ff       	.word	0xffff	; ????
    55b0:	ff ff       	.word	0xffff	; ????
    55b2:	ff ff       	.word	0xffff	; ????
    55b4:	ff ff       	.word	0xffff	; ????
    55b6:	ff ff       	.word	0xffff	; ????
    55b8:	ff ff       	.word	0xffff	; ????
    55ba:	ff ff       	.word	0xffff	; ????
    55bc:	ff ff       	.word	0xffff	; ????
    55be:	ff ff       	.word	0xffff	; ????
    55c0:	ff ff       	.word	0xffff	; ????
    55c2:	ff ff       	.word	0xffff	; ????
    55c4:	ff ff       	.word	0xffff	; ????
    55c6:	ff ff       	.word	0xffff	; ????
    55c8:	ff ff       	.word	0xffff	; ????
    55ca:	ff ff       	.word	0xffff	; ????
    55cc:	ff ff       	.word	0xffff	; ????
    55ce:	ff ff       	.word	0xffff	; ????
    55d0:	ff ff       	.word	0xffff	; ????
    55d2:	ff ff       	.word	0xffff	; ????
    55d4:	ff ff       	.word	0xffff	; ????
    55d6:	ff ff       	.word	0xffff	; ????
    55d8:	ff ff       	.word	0xffff	; ????
    55da:	ff ff       	.word	0xffff	; ????
    55dc:	ff ff       	.word	0xffff	; ????
    55de:	ff ff       	.word	0xffff	; ????
    55e0:	ff ff       	.word	0xffff	; ????
    55e2:	ff ff       	.word	0xffff	; ????
    55e4:	ff ff       	.word	0xffff	; ????
    55e6:	ff ff       	.word	0xffff	; ????
    55e8:	ff ff       	.word	0xffff	; ????
    55ea:	ff ff       	.word	0xffff	; ????
    55ec:	ff ff       	.word	0xffff	; ????
    55ee:	ff ff       	.word	0xffff	; ????
    55f0:	ff ff       	.word	0xffff	; ????
    55f2:	ff ff       	.word	0xffff	; ????
    55f4:	ff ff       	.word	0xffff	; ????
    55f6:	ff ff       	.word	0xffff	; ????
    55f8:	ff ff       	.word	0xffff	; ????
    55fa:	ff ff       	.word	0xffff	; ????
    55fc:	ff ff       	.word	0xffff	; ????
    55fe:	ff ff       	.word	0xffff	; ????
    5600:	ff ff       	.word	0xffff	; ????
    5602:	ff ff       	.word	0xffff	; ????
    5604:	ff ff       	.word	0xffff	; ????
    5606:	ff ff       	.word	0xffff	; ????
    5608:	ff ff       	.word	0xffff	; ????
    560a:	ff ff       	.word	0xffff	; ????
    560c:	ff ff       	.word	0xffff	; ????
    560e:	ff ff       	.word	0xffff	; ????
    5610:	ff ff       	.word	0xffff	; ????
    5612:	ff ff       	.word	0xffff	; ????
    5614:	ff ff       	.word	0xffff	; ????
    5616:	ff ff       	.word	0xffff	; ????
    5618:	ff ff       	.word	0xffff	; ????
    561a:	ff ff       	.word	0xffff	; ????
    561c:	ff ff       	.word	0xffff	; ????
    561e:	ff ff       	.word	0xffff	; ????
    5620:	ff ff       	.word	0xffff	; ????
    5622:	ff ff       	.word	0xffff	; ????
    5624:	ff ff       	.word	0xffff	; ????
    5626:	ff ff       	.word	0xffff	; ????
    5628:	ff ff       	.word	0xffff	; ????
    562a:	ff ff       	.word	0xffff	; ????
    562c:	ff ff       	.word	0xffff	; ????
    562e:	ff ff       	.word	0xffff	; ????
    5630:	ff ff       	.word	0xffff	; ????
    5632:	ff ff       	.word	0xffff	; ????
    5634:	ff ff       	.word	0xffff	; ????
    5636:	ff ff       	.word	0xffff	; ????
    5638:	ff ff       	.word	0xffff	; ????
    563a:	ff ff       	.word	0xffff	; ????
    563c:	ff ff       	.word	0xffff	; ????
    563e:	ff ff       	.word	0xffff	; ????
    5640:	ff ff       	.word	0xffff	; ????
    5642:	ff ff       	.word	0xffff	; ????
    5644:	ff ff       	.word	0xffff	; ????
    5646:	ff ff       	.word	0xffff	; ????
    5648:	ff ff       	.word	0xffff	; ????
    564a:	ff ff       	.word	0xffff	; ????
    564c:	ff ff       	.word	0xffff	; ????
    564e:	ff ff       	.word	0xffff	; ????
    5650:	ff ff       	.word	0xffff	; ????
    5652:	ff ff       	.word	0xffff	; ????
    5654:	ff ff       	.word	0xffff	; ????
    5656:	ff ff       	.word	0xffff	; ????
    5658:	ff ff       	.word	0xffff	; ????
    565a:	ff ff       	.word	0xffff	; ????
    565c:	ff ff       	.word	0xffff	; ????
    565e:	ff ff       	.word	0xffff	; ????
    5660:	ff ff       	.word	0xffff	; ????
    5662:	ff ff       	.word	0xffff	; ????
    5664:	ff ff       	.word	0xffff	; ????
    5666:	ff ff       	.word	0xffff	; ????
    5668:	ff ff       	.word	0xffff	; ????
    566a:	ff ff       	.word	0xffff	; ????
    566c:	ff ff       	.word	0xffff	; ????
    566e:	ff ff       	.word	0xffff	; ????
    5670:	ff ff       	.word	0xffff	; ????
    5672:	ff ff       	.word	0xffff	; ????
    5674:	ff ff       	.word	0xffff	; ????
    5676:	ff ff       	.word	0xffff	; ????
    5678:	ff ff       	.word	0xffff	; ????
    567a:	ff ff       	.word	0xffff	; ????
    567c:	ff ff       	.word	0xffff	; ????
    567e:	ff ff       	.word	0xffff	; ????
    5680:	ff ff       	.word	0xffff	; ????
    5682:	ff ff       	.word	0xffff	; ????
    5684:	ff ff       	.word	0xffff	; ????
    5686:	ff ff       	.word	0xffff	; ????
    5688:	ff ff       	.word	0xffff	; ????
    568a:	ff ff       	.word	0xffff	; ????
    568c:	ff ff       	.word	0xffff	; ????
    568e:	ff ff       	.word	0xffff	; ????
    5690:	ff ff       	.word	0xffff	; ????
    5692:	ff ff       	.word	0xffff	; ????
    5694:	ff ff       	.word	0xffff	; ????
    5696:	ff ff       	.word	0xffff	; ????
    5698:	ff ff       	.word	0xffff	; ????
    569a:	ff ff       	.word	0xffff	; ????
    569c:	ff ff       	.word	0xffff	; ????
    569e:	ff ff       	.word	0xffff	; ????
    56a0:	ff ff       	.word	0xffff	; ????
    56a2:	ff ff       	.word	0xffff	; ????
    56a4:	ff ff       	.word	0xffff	; ????
    56a6:	ff ff       	.word	0xffff	; ????
    56a8:	ff ff       	.word	0xffff	; ????
    56aa:	ff ff       	.word	0xffff	; ????
    56ac:	ff ff       	.word	0xffff	; ????
    56ae:	ff ff       	.word	0xffff	; ????
    56b0:	ff ff       	.word	0xffff	; ????
    56b2:	ff ff       	.word	0xffff	; ????
    56b4:	ff ff       	.word	0xffff	; ????
    56b6:	ff ff       	.word	0xffff	; ????
    56b8:	ff ff       	.word	0xffff	; ????
    56ba:	ff ff       	.word	0xffff	; ????
    56bc:	ff ff       	.word	0xffff	; ????
    56be:	ff ff       	.word	0xffff	; ????
    56c0:	ff ff       	.word	0xffff	; ????
    56c2:	ff ff       	.word	0xffff	; ????
    56c4:	ff ff       	.word	0xffff	; ????
    56c6:	ff ff       	.word	0xffff	; ????
    56c8:	ff ff       	.word	0xffff	; ????
    56ca:	ff ff       	.word	0xffff	; ????
    56cc:	ff ff       	.word	0xffff	; ????
    56ce:	ff ff       	.word	0xffff	; ????
    56d0:	ff ff       	.word	0xffff	; ????
    56d2:	ff ff       	.word	0xffff	; ????
    56d4:	ff ff       	.word	0xffff	; ????
    56d6:	ff ff       	.word	0xffff	; ????
    56d8:	ff ff       	.word	0xffff	; ????
    56da:	ff ff       	.word	0xffff	; ????
    56dc:	ff ff       	.word	0xffff	; ????
    56de:	ff ff       	.word	0xffff	; ????
    56e0:	ff ff       	.word	0xffff	; ????
    56e2:	ff ff       	.word	0xffff	; ????
    56e4:	ff ff       	.word	0xffff	; ????
    56e6:	ff ff       	.word	0xffff	; ????
    56e8:	ff ff       	.word	0xffff	; ????
    56ea:	ff ff       	.word	0xffff	; ????
    56ec:	ff ff       	.word	0xffff	; ????
    56ee:	ff ff       	.word	0xffff	; ????
    56f0:	ff ff       	.word	0xffff	; ????
    56f2:	ff ff       	.word	0xffff	; ????
    56f4:	ff ff       	.word	0xffff	; ????
    56f6:	ff ff       	.word	0xffff	; ????
    56f8:	ff ff       	.word	0xffff	; ????
    56fa:	ff ff       	.word	0xffff	; ????
    56fc:	ff ff       	.word	0xffff	; ????
    56fe:	ff ff       	.word	0xffff	; ????
    5700:	ff ff       	.word	0xffff	; ????
    5702:	ff ff       	.word	0xffff	; ????
    5704:	ff ff       	.word	0xffff	; ????
    5706:	ff ff       	.word	0xffff	; ????
    5708:	ff ff       	.word	0xffff	; ????
    570a:	ff ff       	.word	0xffff	; ????
    570c:	ff ff       	.word	0xffff	; ????
    570e:	ff ff       	.word	0xffff	; ????
    5710:	ff ff       	.word	0xffff	; ????
    5712:	ff ff       	.word	0xffff	; ????
    5714:	ff ff       	.word	0xffff	; ????
    5716:	ff ff       	.word	0xffff	; ????
    5718:	ff ff       	.word	0xffff	; ????
    571a:	ff ff       	.word	0xffff	; ????
    571c:	ff ff       	.word	0xffff	; ????
    571e:	ff ff       	.word	0xffff	; ????
    5720:	ff ff       	.word	0xffff	; ????
    5722:	ff ff       	.word	0xffff	; ????
    5724:	ff ff       	.word	0xffff	; ????
    5726:	ff ff       	.word	0xffff	; ????
    5728:	ff ff       	.word	0xffff	; ????
    572a:	ff ff       	.word	0xffff	; ????
    572c:	ff ff       	.word	0xffff	; ????
    572e:	ff ff       	.word	0xffff	; ????
    5730:	ff ff       	.word	0xffff	; ????
    5732:	ff ff       	.word	0xffff	; ????
    5734:	ff ff       	.word	0xffff	; ????
    5736:	ff ff       	.word	0xffff	; ????
    5738:	ff ff       	.word	0xffff	; ????
    573a:	ff ff       	.word	0xffff	; ????
    573c:	ff ff       	.word	0xffff	; ????
    573e:	ff ff       	.word	0xffff	; ????
    5740:	ff ff       	.word	0xffff	; ????
    5742:	ff ff       	.word	0xffff	; ????
    5744:	ff ff       	.word	0xffff	; ????
    5746:	ff ff       	.word	0xffff	; ????
    5748:	ff ff       	.word	0xffff	; ????
    574a:	ff ff       	.word	0xffff	; ????
    574c:	ff ff       	.word	0xffff	; ????
    574e:	ff ff       	.word	0xffff	; ????
    5750:	ff ff       	.word	0xffff	; ????
    5752:	ff ff       	.word	0xffff	; ????
    5754:	ff ff       	.word	0xffff	; ????
    5756:	ff ff       	.word	0xffff	; ????
    5758:	ff ff       	.word	0xffff	; ????
    575a:	ff ff       	.word	0xffff	; ????
    575c:	ff ff       	.word	0xffff	; ????
    575e:	ff ff       	.word	0xffff	; ????
    5760:	ff ff       	.word	0xffff	; ????
    5762:	ff ff       	.word	0xffff	; ????
    5764:	ff ff       	.word	0xffff	; ????
    5766:	ff ff       	.word	0xffff	; ????
    5768:	ff ff       	.word	0xffff	; ????
    576a:	ff ff       	.word	0xffff	; ????
    576c:	ff ff       	.word	0xffff	; ????
    576e:	ff ff       	.word	0xffff	; ????
    5770:	ff ff       	.word	0xffff	; ????
    5772:	ff ff       	.word	0xffff	; ????
    5774:	ff ff       	.word	0xffff	; ????
    5776:	ff ff       	.word	0xffff	; ????
    5778:	ff ff       	.word	0xffff	; ????
    577a:	ff ff       	.word	0xffff	; ????
    577c:	ff ff       	.word	0xffff	; ????
    577e:	ff ff       	.word	0xffff	; ????
    5780:	ff ff       	.word	0xffff	; ????
    5782:	ff ff       	.word	0xffff	; ????
    5784:	ff ff       	.word	0xffff	; ????
    5786:	ff ff       	.word	0xffff	; ????
    5788:	ff ff       	.word	0xffff	; ????
    578a:	ff ff       	.word	0xffff	; ????
    578c:	ff ff       	.word	0xffff	; ????
    578e:	ff ff       	.word	0xffff	; ????
    5790:	ff ff       	.word	0xffff	; ????
    5792:	ff ff       	.word	0xffff	; ????
    5794:	ff ff       	.word	0xffff	; ????
    5796:	ff ff       	.word	0xffff	; ????
    5798:	ff ff       	.word	0xffff	; ????
    579a:	ff ff       	.word	0xffff	; ????
    579c:	ff ff       	.word	0xffff	; ????
    579e:	ff ff       	.word	0xffff	; ????
    57a0:	ff ff       	.word	0xffff	; ????
    57a2:	ff ff       	.word	0xffff	; ????
    57a4:	ff ff       	.word	0xffff	; ????
    57a6:	ff ff       	.word	0xffff	; ????
    57a8:	ff ff       	.word	0xffff	; ????
    57aa:	ff ff       	.word	0xffff	; ????
    57ac:	ff ff       	.word	0xffff	; ????
    57ae:	ff ff       	.word	0xffff	; ????
    57b0:	ff ff       	.word	0xffff	; ????
    57b2:	ff ff       	.word	0xffff	; ????
    57b4:	ff ff       	.word	0xffff	; ????
    57b6:	ff ff       	.word	0xffff	; ????
    57b8:	ff ff       	.word	0xffff	; ????
    57ba:	ff ff       	.word	0xffff	; ????
    57bc:	ff ff       	.word	0xffff	; ????
    57be:	ff ff       	.word	0xffff	; ????
    57c0:	ff ff       	.word	0xffff	; ????
    57c2:	ff ff       	.word	0xffff	; ????
    57c4:	ff ff       	.word	0xffff	; ????
    57c6:	ff ff       	.word	0xffff	; ????
    57c8:	ff ff       	.word	0xffff	; ????
    57ca:	ff ff       	.word	0xffff	; ????
    57cc:	ff ff       	.word	0xffff	; ????
    57ce:	ff ff       	.word	0xffff	; ????
    57d0:	ff ff       	.word	0xffff	; ????
    57d2:	ff ff       	.word	0xffff	; ????
    57d4:	ff ff       	.word	0xffff	; ????
    57d6:	ff ff       	.word	0xffff	; ????
    57d8:	ff ff       	.word	0xffff	; ????
    57da:	ff ff       	.word	0xffff	; ????
    57dc:	ff ff       	.word	0xffff	; ????
    57de:	ff ff       	.word	0xffff	; ????
    57e0:	ff ff       	.word	0xffff	; ????
    57e2:	ff ff       	.word	0xffff	; ????
    57e4:	ff ff       	.word	0xffff	; ????
    57e6:	ff ff       	.word	0xffff	; ????
    57e8:	ff ff       	.word	0xffff	; ????
    57ea:	ff ff       	.word	0xffff	; ????
    57ec:	ff ff       	.word	0xffff	; ????
    57ee:	ff ff       	.word	0xffff	; ????
    57f0:	ff ff       	.word	0xffff	; ????
    57f2:	ff ff       	.word	0xffff	; ????
    57f4:	ff ff       	.word	0xffff	; ????
    57f6:	ff ff       	.word	0xffff	; ????
    57f8:	ff ff       	.word	0xffff	; ????
    57fa:	ff ff       	.word	0xffff	; ????
    57fc:	ff ff       	.word	0xffff	; ????
    57fe:	ff ff       	.word	0xffff	; ????
    5800:	ff ff       	.word	0xffff	; ????
    5802:	ff ff       	.word	0xffff	; ????
    5804:	ff ff       	.word	0xffff	; ????
    5806:	ff ff       	.word	0xffff	; ????
    5808:	ff ff       	.word	0xffff	; ????
    580a:	ff ff       	.word	0xffff	; ????
    580c:	ff ff       	.word	0xffff	; ????
    580e:	ff ff       	.word	0xffff	; ????
    5810:	ff ff       	.word	0xffff	; ????
    5812:	ff ff       	.word	0xffff	; ????
    5814:	ff ff       	.word	0xffff	; ????
    5816:	ff ff       	.word	0xffff	; ????
    5818:	ff ff       	.word	0xffff	; ????
    581a:	ff ff       	.word	0xffff	; ????
    581c:	ff ff       	.word	0xffff	; ????
    581e:	ff ff       	.word	0xffff	; ????
    5820:	ff ff       	.word	0xffff	; ????
    5822:	ff ff       	.word	0xffff	; ????
    5824:	ff ff       	.word	0xffff	; ????
    5826:	ff ff       	.word	0xffff	; ????
    5828:	ff ff       	.word	0xffff	; ????
    582a:	ff ff       	.word	0xffff	; ????
    582c:	ff ff       	.word	0xffff	; ????
    582e:	ff ff       	.word	0xffff	; ????
    5830:	ff ff       	.word	0xffff	; ????
    5832:	ff ff       	.word	0xffff	; ????
    5834:	ff ff       	.word	0xffff	; ????
    5836:	ff ff       	.word	0xffff	; ????
    5838:	ff ff       	.word	0xffff	; ????
    583a:	ff ff       	.word	0xffff	; ????
    583c:	ff ff       	.word	0xffff	; ????
    583e:	ff ff       	.word	0xffff	; ????
    5840:	ff ff       	.word	0xffff	; ????
    5842:	ff ff       	.word	0xffff	; ????
    5844:	ff ff       	.word	0xffff	; ????
    5846:	ff ff       	.word	0xffff	; ????
    5848:	ff ff       	.word	0xffff	; ????
    584a:	ff ff       	.word	0xffff	; ????
    584c:	ff ff       	.word	0xffff	; ????
    584e:	ff ff       	.word	0xffff	; ????
    5850:	ff ff       	.word	0xffff	; ????
    5852:	ff ff       	.word	0xffff	; ????
    5854:	ff ff       	.word	0xffff	; ????
    5856:	ff ff       	.word	0xffff	; ????
    5858:	ff ff       	.word	0xffff	; ????
    585a:	ff ff       	.word	0xffff	; ????
    585c:	ff ff       	.word	0xffff	; ????
    585e:	ff ff       	.word	0xffff	; ????
    5860:	ff ff       	.word	0xffff	; ????
    5862:	ff ff       	.word	0xffff	; ????
    5864:	ff ff       	.word	0xffff	; ????
    5866:	ff ff       	.word	0xffff	; ????
    5868:	ff ff       	.word	0xffff	; ????
    586a:	ff ff       	.word	0xffff	; ????
    586c:	ff ff       	.word	0xffff	; ????
    586e:	ff ff       	.word	0xffff	; ????
    5870:	ff ff       	.word	0xffff	; ????
    5872:	ff ff       	.word	0xffff	; ????
    5874:	ff ff       	.word	0xffff	; ????
    5876:	ff ff       	.word	0xffff	; ????
    5878:	ff ff       	.word	0xffff	; ????
    587a:	ff ff       	.word	0xffff	; ????
    587c:	ff ff       	.word	0xffff	; ????
    587e:	ff ff       	.word	0xffff	; ????
    5880:	ff ff       	.word	0xffff	; ????
    5882:	ff ff       	.word	0xffff	; ????
    5884:	ff ff       	.word	0xffff	; ????
    5886:	ff ff       	.word	0xffff	; ????
    5888:	ff ff       	.word	0xffff	; ????
    588a:	ff ff       	.word	0xffff	; ????
    588c:	ff ff       	.word	0xffff	; ????
    588e:	ff ff       	.word	0xffff	; ????
    5890:	ff ff       	.word	0xffff	; ????
    5892:	ff ff       	.word	0xffff	; ????
    5894:	ff ff       	.word	0xffff	; ????
    5896:	ff ff       	.word	0xffff	; ????
    5898:	ff ff       	.word	0xffff	; ????
    589a:	ff ff       	.word	0xffff	; ????
    589c:	ff ff       	.word	0xffff	; ????
    589e:	ff ff       	.word	0xffff	; ????
    58a0:	ff ff       	.word	0xffff	; ????
    58a2:	ff ff       	.word	0xffff	; ????
    58a4:	ff ff       	.word	0xffff	; ????
    58a6:	ff ff       	.word	0xffff	; ????
    58a8:	ff ff       	.word	0xffff	; ????
    58aa:	ff ff       	.word	0xffff	; ????
    58ac:	ff ff       	.word	0xffff	; ????
    58ae:	ff ff       	.word	0xffff	; ????
    58b0:	ff ff       	.word	0xffff	; ????
    58b2:	ff ff       	.word	0xffff	; ????
    58b4:	ff ff       	.word	0xffff	; ????
    58b6:	ff ff       	.word	0xffff	; ????
    58b8:	ff ff       	.word	0xffff	; ????
    58ba:	ff ff       	.word	0xffff	; ????
    58bc:	ff ff       	.word	0xffff	; ????
    58be:	ff ff       	.word	0xffff	; ????
    58c0:	ff ff       	.word	0xffff	; ????
    58c2:	ff ff       	.word	0xffff	; ????
    58c4:	ff ff       	.word	0xffff	; ????
    58c6:	ff ff       	.word	0xffff	; ????
    58c8:	ff ff       	.word	0xffff	; ????
    58ca:	ff ff       	.word	0xffff	; ????
    58cc:	ff ff       	.word	0xffff	; ????
    58ce:	ff ff       	.word	0xffff	; ????
    58d0:	ff ff       	.word	0xffff	; ????
    58d2:	ff ff       	.word	0xffff	; ????
    58d4:	ff ff       	.word	0xffff	; ????
    58d6:	ff ff       	.word	0xffff	; ????
    58d8:	ff ff       	.word	0xffff	; ????
    58da:	ff ff       	.word	0xffff	; ????
    58dc:	ff ff       	.word	0xffff	; ????
    58de:	ff ff       	.word	0xffff	; ????
    58e0:	ff ff       	.word	0xffff	; ????
    58e2:	ff ff       	.word	0xffff	; ????
    58e4:	ff ff       	.word	0xffff	; ????
    58e6:	ff ff       	.word	0xffff	; ????
    58e8:	ff ff       	.word	0xffff	; ????
    58ea:	ff ff       	.word	0xffff	; ????
    58ec:	ff ff       	.word	0xffff	; ????
    58ee:	ff ff       	.word	0xffff	; ????
    58f0:	ff ff       	.word	0xffff	; ????
    58f2:	ff ff       	.word	0xffff	; ????
    58f4:	ff ff       	.word	0xffff	; ????
    58f6:	ff ff       	.word	0xffff	; ????
    58f8:	ff ff       	.word	0xffff	; ????
    58fa:	ff ff       	.word	0xffff	; ????
    58fc:	ff ff       	.word	0xffff	; ????
    58fe:	ff ff       	.word	0xffff	; ????
    5900:	ff ff       	.word	0xffff	; ????
    5902:	ff ff       	.word	0xffff	; ????
    5904:	ff ff       	.word	0xffff	; ????
    5906:	ff ff       	.word	0xffff	; ????
    5908:	ff ff       	.word	0xffff	; ????
    590a:	ff ff       	.word	0xffff	; ????
    590c:	ff ff       	.word	0xffff	; ????
    590e:	ff ff       	.word	0xffff	; ????
    5910:	ff ff       	.word	0xffff	; ????
    5912:	ff ff       	.word	0xffff	; ????
    5914:	ff ff       	.word	0xffff	; ????
    5916:	ff ff       	.word	0xffff	; ????
    5918:	ff ff       	.word	0xffff	; ????
    591a:	ff ff       	.word	0xffff	; ????
    591c:	ff ff       	.word	0xffff	; ????
    591e:	ff ff       	.word	0xffff	; ????
    5920:	ff ff       	.word	0xffff	; ????
    5922:	ff ff       	.word	0xffff	; ????
    5924:	ff ff       	.word	0xffff	; ????
    5926:	ff ff       	.word	0xffff	; ????
    5928:	ff ff       	.word	0xffff	; ????
    592a:	ff ff       	.word	0xffff	; ????
    592c:	ff ff       	.word	0xffff	; ????
    592e:	ff ff       	.word	0xffff	; ????
    5930:	ff ff       	.word	0xffff	; ????
    5932:	ff ff       	.word	0xffff	; ????
    5934:	ff ff       	.word	0xffff	; ????
    5936:	ff ff       	.word	0xffff	; ????
    5938:	ff ff       	.word	0xffff	; ????
    593a:	ff ff       	.word	0xffff	; ????
    593c:	ff ff       	.word	0xffff	; ????
    593e:	ff ff       	.word	0xffff	; ????
    5940:	ff ff       	.word	0xffff	; ????
    5942:	ff ff       	.word	0xffff	; ????
    5944:	ff ff       	.word	0xffff	; ????
    5946:	ff ff       	.word	0xffff	; ????
    5948:	ff ff       	.word	0xffff	; ????
    594a:	ff ff       	.word	0xffff	; ????
    594c:	ff ff       	.word	0xffff	; ????
    594e:	ff ff       	.word	0xffff	; ????
    5950:	ff ff       	.word	0xffff	; ????
    5952:	ff ff       	.word	0xffff	; ????
    5954:	ff ff       	.word	0xffff	; ????
    5956:	ff ff       	.word	0xffff	; ????
    5958:	ff ff       	.word	0xffff	; ????
    595a:	ff ff       	.word	0xffff	; ????
    595c:	ff ff       	.word	0xffff	; ????
    595e:	ff ff       	.word	0xffff	; ????
    5960:	ff ff       	.word	0xffff	; ????
    5962:	ff ff       	.word	0xffff	; ????
    5964:	ff ff       	.word	0xffff	; ????
    5966:	ff ff       	.word	0xffff	; ????
    5968:	ff ff       	.word	0xffff	; ????
    596a:	ff ff       	.word	0xffff	; ????
    596c:	ff ff       	.word	0xffff	; ????
    596e:	ff ff       	.word	0xffff	; ????
    5970:	ff ff       	.word	0xffff	; ????
    5972:	ff ff       	.word	0xffff	; ????
    5974:	ff ff       	.word	0xffff	; ????
    5976:	ff ff       	.word	0xffff	; ????
    5978:	ff ff       	.word	0xffff	; ????
    597a:	ff ff       	.word	0xffff	; ????
    597c:	ff ff       	.word	0xffff	; ????
    597e:	ff ff       	.word	0xffff	; ????
    5980:	ff ff       	.word	0xffff	; ????
    5982:	ff ff       	.word	0xffff	; ????
    5984:	ff ff       	.word	0xffff	; ????
    5986:	ff ff       	.word	0xffff	; ????
    5988:	ff ff       	.word	0xffff	; ????
    598a:	ff ff       	.word	0xffff	; ????
    598c:	ff ff       	.word	0xffff	; ????
    598e:	ff ff       	.word	0xffff	; ????
    5990:	ff ff       	.word	0xffff	; ????
    5992:	ff ff       	.word	0xffff	; ????
    5994:	ff ff       	.word	0xffff	; ????
    5996:	ff ff       	.word	0xffff	; ????
    5998:	ff ff       	.word	0xffff	; ????
    599a:	ff ff       	.word	0xffff	; ????
    599c:	ff ff       	.word	0xffff	; ????
    599e:	ff ff       	.word	0xffff	; ????
    59a0:	ff ff       	.word	0xffff	; ????
    59a2:	ff ff       	.word	0xffff	; ????
    59a4:	ff ff       	.word	0xffff	; ????
    59a6:	ff ff       	.word	0xffff	; ????
    59a8:	ff ff       	.word	0xffff	; ????
    59aa:	ff ff       	.word	0xffff	; ????
    59ac:	ff ff       	.word	0xffff	; ????
    59ae:	ff ff       	.word	0xffff	; ????
    59b0:	ff ff       	.word	0xffff	; ????
    59b2:	ff ff       	.word	0xffff	; ????
    59b4:	ff ff       	.word	0xffff	; ????
    59b6:	ff ff       	.word	0xffff	; ????
    59b8:	ff ff       	.word	0xffff	; ????
    59ba:	ff ff       	.word	0xffff	; ????
    59bc:	ff ff       	.word	0xffff	; ????
    59be:	ff ff       	.word	0xffff	; ????
    59c0:	ff ff       	.word	0xffff	; ????
    59c2:	ff ff       	.word	0xffff	; ????
    59c4:	ff ff       	.word	0xffff	; ????
    59c6:	ff ff       	.word	0xffff	; ????
    59c8:	ff ff       	.word	0xffff	; ????
    59ca:	ff ff       	.word	0xffff	; ????
    59cc:	ff ff       	.word	0xffff	; ????
    59ce:	ff ff       	.word	0xffff	; ????
    59d0:	ff ff       	.word	0xffff	; ????
    59d2:	ff ff       	.word	0xffff	; ????
    59d4:	ff ff       	.word	0xffff	; ????
    59d6:	ff ff       	.word	0xffff	; ????
    59d8:	ff ff       	.word	0xffff	; ????
    59da:	ff ff       	.word	0xffff	; ????
    59dc:	ff ff       	.word	0xffff	; ????
    59de:	ff ff       	.word	0xffff	; ????
    59e0:	ff ff       	.word	0xffff	; ????
    59e2:	ff ff       	.word	0xffff	; ????
    59e4:	ff ff       	.word	0xffff	; ????
    59e6:	ff ff       	.word	0xffff	; ????
    59e8:	ff ff       	.word	0xffff	; ????
    59ea:	ff ff       	.word	0xffff	; ????
    59ec:	ff ff       	.word	0xffff	; ????
    59ee:	ff ff       	.word	0xffff	; ????
    59f0:	ff ff       	.word	0xffff	; ????
    59f2:	ff ff       	.word	0xffff	; ????
    59f4:	ff ff       	.word	0xffff	; ????
    59f6:	ff ff       	.word	0xffff	; ????
    59f8:	ff ff       	.word	0xffff	; ????
    59fa:	ff ff       	.word	0xffff	; ????
    59fc:	ff ff       	.word	0xffff	; ????
    59fe:	ff ff       	.word	0xffff	; ????
    5a00:	ff ff       	.word	0xffff	; ????
    5a02:	ff ff       	.word	0xffff	; ????
    5a04:	ff ff       	.word	0xffff	; ????
    5a06:	ff ff       	.word	0xffff	; ????
    5a08:	ff ff       	.word	0xffff	; ????
    5a0a:	ff ff       	.word	0xffff	; ????
    5a0c:	ff ff       	.word	0xffff	; ????
    5a0e:	ff ff       	.word	0xffff	; ????
    5a10:	ff ff       	.word	0xffff	; ????
    5a12:	ff ff       	.word	0xffff	; ????
    5a14:	ff ff       	.word	0xffff	; ????
    5a16:	ff ff       	.word	0xffff	; ????
    5a18:	ff ff       	.word	0xffff	; ????
    5a1a:	ff ff       	.word	0xffff	; ????
    5a1c:	ff ff       	.word	0xffff	; ????
    5a1e:	ff ff       	.word	0xffff	; ????
    5a20:	ff ff       	.word	0xffff	; ????
    5a22:	ff ff       	.word	0xffff	; ????
    5a24:	ff ff       	.word	0xffff	; ????
    5a26:	ff ff       	.word	0xffff	; ????
    5a28:	ff ff       	.word	0xffff	; ????
    5a2a:	ff ff       	.word	0xffff	; ????
    5a2c:	ff ff       	.word	0xffff	; ????
    5a2e:	ff ff       	.word	0xffff	; ????
    5a30:	ff ff       	.word	0xffff	; ????
    5a32:	ff ff       	.word	0xffff	; ????
    5a34:	ff ff       	.word	0xffff	; ????
    5a36:	ff ff       	.word	0xffff	; ????
    5a38:	ff ff       	.word	0xffff	; ????
    5a3a:	ff ff       	.word	0xffff	; ????
    5a3c:	ff ff       	.word	0xffff	; ????
    5a3e:	ff ff       	.word	0xffff	; ????
    5a40:	ff ff       	.word	0xffff	; ????
    5a42:	ff ff       	.word	0xffff	; ????
    5a44:	ff ff       	.word	0xffff	; ????
    5a46:	ff ff       	.word	0xffff	; ????
    5a48:	ff ff       	.word	0xffff	; ????
    5a4a:	ff ff       	.word	0xffff	; ????
    5a4c:	ff ff       	.word	0xffff	; ????
    5a4e:	ff ff       	.word	0xffff	; ????
    5a50:	ff ff       	.word	0xffff	; ????
    5a52:	ff ff       	.word	0xffff	; ????
    5a54:	ff ff       	.word	0xffff	; ????
    5a56:	ff ff       	.word	0xffff	; ????
    5a58:	ff ff       	.word	0xffff	; ????
    5a5a:	ff ff       	.word	0xffff	; ????
    5a5c:	ff ff       	.word	0xffff	; ????
    5a5e:	ff ff       	.word	0xffff	; ????
    5a60:	ff ff       	.word	0xffff	; ????
    5a62:	ff ff       	.word	0xffff	; ????
    5a64:	ff ff       	.word	0xffff	; ????
    5a66:	ff ff       	.word	0xffff	; ????
    5a68:	ff ff       	.word	0xffff	; ????
    5a6a:	ff ff       	.word	0xffff	; ????
    5a6c:	ff ff       	.word	0xffff	; ????
    5a6e:	ff ff       	.word	0xffff	; ????
    5a70:	ff ff       	.word	0xffff	; ????
    5a72:	ff ff       	.word	0xffff	; ????
    5a74:	ff ff       	.word	0xffff	; ????
    5a76:	ff ff       	.word	0xffff	; ????
    5a78:	ff ff       	.word	0xffff	; ????
    5a7a:	ff ff       	.word	0xffff	; ????
    5a7c:	ff ff       	.word	0xffff	; ????
    5a7e:	ff ff       	.word	0xffff	; ????
    5a80:	ff ff       	.word	0xffff	; ????
    5a82:	ff ff       	.word	0xffff	; ????
    5a84:	ff ff       	.word	0xffff	; ????
    5a86:	ff ff       	.word	0xffff	; ????
    5a88:	ff ff       	.word	0xffff	; ????
    5a8a:	ff ff       	.word	0xffff	; ????
    5a8c:	ff ff       	.word	0xffff	; ????
    5a8e:	ff ff       	.word	0xffff	; ????
    5a90:	ff ff       	.word	0xffff	; ????
    5a92:	ff ff       	.word	0xffff	; ????
    5a94:	ff ff       	.word	0xffff	; ????
    5a96:	ff ff       	.word	0xffff	; ????
    5a98:	ff ff       	.word	0xffff	; ????
    5a9a:	ff ff       	.word	0xffff	; ????
    5a9c:	ff ff       	.word	0xffff	; ????
    5a9e:	ff ff       	.word	0xffff	; ????
    5aa0:	ff ff       	.word	0xffff	; ????
    5aa2:	ff ff       	.word	0xffff	; ????
    5aa4:	ff ff       	.word	0xffff	; ????
    5aa6:	ff ff       	.word	0xffff	; ????
    5aa8:	ff ff       	.word	0xffff	; ????
    5aaa:	ff ff       	.word	0xffff	; ????
    5aac:	ff ff       	.word	0xffff	; ????
    5aae:	ff ff       	.word	0xffff	; ????
    5ab0:	ff ff       	.word	0xffff	; ????
    5ab2:	ff ff       	.word	0xffff	; ????
    5ab4:	ff ff       	.word	0xffff	; ????
    5ab6:	ff ff       	.word	0xffff	; ????
    5ab8:	ff ff       	.word	0xffff	; ????
    5aba:	ff ff       	.word	0xffff	; ????
    5abc:	ff ff       	.word	0xffff	; ????
    5abe:	ff ff       	.word	0xffff	; ????
    5ac0:	ff ff       	.word	0xffff	; ????
    5ac2:	ff ff       	.word	0xffff	; ????
    5ac4:	ff ff       	.word	0xffff	; ????
    5ac6:	ff ff       	.word	0xffff	; ????
    5ac8:	ff ff       	.word	0xffff	; ????
    5aca:	ff ff       	.word	0xffff	; ????
    5acc:	ff ff       	.word	0xffff	; ????
    5ace:	ff ff       	.word	0xffff	; ????
    5ad0:	ff ff       	.word	0xffff	; ????
    5ad2:	ff ff       	.word	0xffff	; ????
    5ad4:	ff ff       	.word	0xffff	; ????
    5ad6:	ff ff       	.word	0xffff	; ????
    5ad8:	ff ff       	.word	0xffff	; ????
    5ada:	ff ff       	.word	0xffff	; ????
    5adc:	ff ff       	.word	0xffff	; ????
    5ade:	ff ff       	.word	0xffff	; ????
    5ae0:	ff ff       	.word	0xffff	; ????
    5ae2:	ff ff       	.word	0xffff	; ????
    5ae4:	ff ff       	.word	0xffff	; ????
    5ae6:	ff ff       	.word	0xffff	; ????
    5ae8:	ff ff       	.word	0xffff	; ????
    5aea:	ff ff       	.word	0xffff	; ????
    5aec:	ff ff       	.word	0xffff	; ????
    5aee:	ff ff       	.word	0xffff	; ????
    5af0:	ff ff       	.word	0xffff	; ????
    5af2:	ff ff       	.word	0xffff	; ????
    5af4:	ff ff       	.word	0xffff	; ????
    5af6:	ff ff       	.word	0xffff	; ????
    5af8:	ff ff       	.word	0xffff	; ????
    5afa:	ff ff       	.word	0xffff	; ????
    5afc:	ff ff       	.word	0xffff	; ????
    5afe:	ff ff       	.word	0xffff	; ????
    5b00:	ff ff       	.word	0xffff	; ????
    5b02:	ff ff       	.word	0xffff	; ????
    5b04:	ff ff       	.word	0xffff	; ????
    5b06:	ff ff       	.word	0xffff	; ????
    5b08:	ff ff       	.word	0xffff	; ????
    5b0a:	ff ff       	.word	0xffff	; ????
    5b0c:	ff ff       	.word	0xffff	; ????
    5b0e:	ff ff       	.word	0xffff	; ????
    5b10:	ff ff       	.word	0xffff	; ????
    5b12:	ff ff       	.word	0xffff	; ????
    5b14:	ff ff       	.word	0xffff	; ????
    5b16:	ff ff       	.word	0xffff	; ????
    5b18:	ff ff       	.word	0xffff	; ????
    5b1a:	ff ff       	.word	0xffff	; ????
    5b1c:	ff ff       	.word	0xffff	; ????
    5b1e:	ff ff       	.word	0xffff	; ????
    5b20:	ff ff       	.word	0xffff	; ????
    5b22:	ff ff       	.word	0xffff	; ????
    5b24:	ff ff       	.word	0xffff	; ????
    5b26:	ff ff       	.word	0xffff	; ????
    5b28:	ff ff       	.word	0xffff	; ????
    5b2a:	ff ff       	.word	0xffff	; ????
    5b2c:	ff ff       	.word	0xffff	; ????
    5b2e:	ff ff       	.word	0xffff	; ????
    5b30:	ff ff       	.word	0xffff	; ????
    5b32:	ff ff       	.word	0xffff	; ????
    5b34:	ff ff       	.word	0xffff	; ????
    5b36:	ff ff       	.word	0xffff	; ????
    5b38:	ff ff       	.word	0xffff	; ????
    5b3a:	ff ff       	.word	0xffff	; ????
    5b3c:	ff ff       	.word	0xffff	; ????
    5b3e:	ff ff       	.word	0xffff	; ????
    5b40:	ff ff       	.word	0xffff	; ????
    5b42:	ff ff       	.word	0xffff	; ????
    5b44:	ff ff       	.word	0xffff	; ????
    5b46:	ff ff       	.word	0xffff	; ????
    5b48:	ff ff       	.word	0xffff	; ????
    5b4a:	ff ff       	.word	0xffff	; ????
    5b4c:	ff ff       	.word	0xffff	; ????
    5b4e:	ff ff       	.word	0xffff	; ????
    5b50:	ff ff       	.word	0xffff	; ????
    5b52:	ff ff       	.word	0xffff	; ????
    5b54:	ff ff       	.word	0xffff	; ????
    5b56:	ff ff       	.word	0xffff	; ????
    5b58:	ff ff       	.word	0xffff	; ????
    5b5a:	ff ff       	.word	0xffff	; ????
    5b5c:	ff ff       	.word	0xffff	; ????
    5b5e:	ff ff       	.word	0xffff	; ????
    5b60:	ff ff       	.word	0xffff	; ????
    5b62:	ff ff       	.word	0xffff	; ????
    5b64:	ff ff       	.word	0xffff	; ????
    5b66:	ff ff       	.word	0xffff	; ????
    5b68:	ff ff       	.word	0xffff	; ????
    5b6a:	ff ff       	.word	0xffff	; ????
    5b6c:	ff ff       	.word	0xffff	; ????
    5b6e:	ff ff       	.word	0xffff	; ????
    5b70:	ff ff       	.word	0xffff	; ????
    5b72:	ff ff       	.word	0xffff	; ????
    5b74:	ff ff       	.word	0xffff	; ????
    5b76:	ff ff       	.word	0xffff	; ????
    5b78:	ff ff       	.word	0xffff	; ????
    5b7a:	ff ff       	.word	0xffff	; ????
    5b7c:	ff ff       	.word	0xffff	; ????
    5b7e:	ff ff       	.word	0xffff	; ????
    5b80:	ff ff       	.word	0xffff	; ????
    5b82:	ff ff       	.word	0xffff	; ????
    5b84:	ff ff       	.word	0xffff	; ????
    5b86:	ff ff       	.word	0xffff	; ????
    5b88:	ff ff       	.word	0xffff	; ????
    5b8a:	ff ff       	.word	0xffff	; ????
    5b8c:	ff ff       	.word	0xffff	; ????
    5b8e:	ff ff       	.word	0xffff	; ????
    5b90:	ff ff       	.word	0xffff	; ????
    5b92:	ff ff       	.word	0xffff	; ????
    5b94:	ff ff       	.word	0xffff	; ????
    5b96:	ff ff       	.word	0xffff	; ????
    5b98:	ff ff       	.word	0xffff	; ????
    5b9a:	ff ff       	.word	0xffff	; ????
    5b9c:	ff ff       	.word	0xffff	; ????
    5b9e:	ff ff       	.word	0xffff	; ????
    5ba0:	ff ff       	.word	0xffff	; ????
    5ba2:	ff ff       	.word	0xffff	; ????
    5ba4:	ff ff       	.word	0xffff	; ????
    5ba6:	ff ff       	.word	0xffff	; ????
    5ba8:	ff ff       	.word	0xffff	; ????
    5baa:	ff ff       	.word	0xffff	; ????
    5bac:	ff ff       	.word	0xffff	; ????
    5bae:	ff ff       	.word	0xffff	; ????
    5bb0:	ff ff       	.word	0xffff	; ????
    5bb2:	ff ff       	.word	0xffff	; ????
    5bb4:	ff ff       	.word	0xffff	; ????
    5bb6:	ff ff       	.word	0xffff	; ????
    5bb8:	ff ff       	.word	0xffff	; ????
    5bba:	ff ff       	.word	0xffff	; ????
    5bbc:	ff ff       	.word	0xffff	; ????
    5bbe:	ff ff       	.word	0xffff	; ????
    5bc0:	ff ff       	.word	0xffff	; ????
    5bc2:	ff ff       	.word	0xffff	; ????
    5bc4:	ff ff       	.word	0xffff	; ????
    5bc6:	ff ff       	.word	0xffff	; ????
    5bc8:	ff ff       	.word	0xffff	; ????
    5bca:	ff ff       	.word	0xffff	; ????
    5bcc:	ff ff       	.word	0xffff	; ????
    5bce:	ff ff       	.word	0xffff	; ????
    5bd0:	ff ff       	.word	0xffff	; ????
    5bd2:	ff ff       	.word	0xffff	; ????
    5bd4:	ff ff       	.word	0xffff	; ????
    5bd6:	ff ff       	.word	0xffff	; ????
    5bd8:	ff ff       	.word	0xffff	; ????
    5bda:	ff ff       	.word	0xffff	; ????
    5bdc:	ff ff       	.word	0xffff	; ????
    5bde:	ff ff       	.word	0xffff	; ????
    5be0:	ff ff       	.word	0xffff	; ????
    5be2:	ff ff       	.word	0xffff	; ????
    5be4:	ff ff       	.word	0xffff	; ????
    5be6:	ff ff       	.word	0xffff	; ????
    5be8:	ff ff       	.word	0xffff	; ????
    5bea:	ff ff       	.word	0xffff	; ????
    5bec:	ff ff       	.word	0xffff	; ????
    5bee:	ff ff       	.word	0xffff	; ????
    5bf0:	ff ff       	.word	0xffff	; ????
    5bf2:	ff ff       	.word	0xffff	; ????
    5bf4:	ff ff       	.word	0xffff	; ????
    5bf6:	ff ff       	.word	0xffff	; ????
    5bf8:	ff ff       	.word	0xffff	; ????
    5bfa:	ff ff       	.word	0xffff	; ????
    5bfc:	ff ff       	.word	0xffff	; ????
    5bfe:	ff ff       	.word	0xffff	; ????
    5c00:	ff ff       	.word	0xffff	; ????
    5c02:	ff ff       	.word	0xffff	; ????
    5c04:	ff ff       	.word	0xffff	; ????
    5c06:	ff ff       	.word	0xffff	; ????
    5c08:	ff ff       	.word	0xffff	; ????
    5c0a:	ff ff       	.word	0xffff	; ????
    5c0c:	ff ff       	.word	0xffff	; ????
    5c0e:	ff ff       	.word	0xffff	; ????
    5c10:	ff ff       	.word	0xffff	; ????
    5c12:	ff ff       	.word	0xffff	; ????
    5c14:	ff ff       	.word	0xffff	; ????
    5c16:	ff ff       	.word	0xffff	; ????
    5c18:	ff ff       	.word	0xffff	; ????
    5c1a:	ff ff       	.word	0xffff	; ????
    5c1c:	ff ff       	.word	0xffff	; ????
    5c1e:	ff ff       	.word	0xffff	; ????
    5c20:	ff ff       	.word	0xffff	; ????
    5c22:	ff ff       	.word	0xffff	; ????
    5c24:	ff ff       	.word	0xffff	; ????
    5c26:	ff ff       	.word	0xffff	; ????
    5c28:	ff ff       	.word	0xffff	; ????
    5c2a:	ff ff       	.word	0xffff	; ????
    5c2c:	ff ff       	.word	0xffff	; ????
    5c2e:	ff ff       	.word	0xffff	; ????
    5c30:	ff ff       	.word	0xffff	; ????
    5c32:	ff ff       	.word	0xffff	; ????
    5c34:	ff ff       	.word	0xffff	; ????
    5c36:	ff ff       	.word	0xffff	; ????
    5c38:	ff ff       	.word	0xffff	; ????
    5c3a:	ff ff       	.word	0xffff	; ????
    5c3c:	ff ff       	.word	0xffff	; ????
    5c3e:	ff ff       	.word	0xffff	; ????
    5c40:	ff ff       	.word	0xffff	; ????
    5c42:	ff ff       	.word	0xffff	; ????
    5c44:	ff ff       	.word	0xffff	; ????
    5c46:	ff ff       	.word	0xffff	; ????
    5c48:	ff ff       	.word	0xffff	; ????
    5c4a:	ff ff       	.word	0xffff	; ????
    5c4c:	ff ff       	.word	0xffff	; ????
    5c4e:	ff ff       	.word	0xffff	; ????
    5c50:	ff ff       	.word	0xffff	; ????
    5c52:	ff ff       	.word	0xffff	; ????
    5c54:	ff ff       	.word	0xffff	; ????
    5c56:	ff ff       	.word	0xffff	; ????
    5c58:	ff ff       	.word	0xffff	; ????
    5c5a:	ff ff       	.word	0xffff	; ????
    5c5c:	ff ff       	.word	0xffff	; ????
    5c5e:	ff ff       	.word	0xffff	; ????
    5c60:	ff ff       	.word	0xffff	; ????
    5c62:	ff ff       	.word	0xffff	; ????
    5c64:	ff ff       	.word	0xffff	; ????
    5c66:	ff ff       	.word	0xffff	; ????
    5c68:	ff ff       	.word	0xffff	; ????
    5c6a:	ff ff       	.word	0xffff	; ????
    5c6c:	ff ff       	.word	0xffff	; ????
    5c6e:	ff ff       	.word	0xffff	; ????
    5c70:	ff ff       	.word	0xffff	; ????
    5c72:	ff ff       	.word	0xffff	; ????
    5c74:	ff ff       	.word	0xffff	; ????
    5c76:	ff ff       	.word	0xffff	; ????
    5c78:	ff ff       	.word	0xffff	; ????
    5c7a:	ff ff       	.word	0xffff	; ????
    5c7c:	ff ff       	.word	0xffff	; ????
    5c7e:	ff ff       	.word	0xffff	; ????
    5c80:	ff ff       	.word	0xffff	; ????
    5c82:	ff ff       	.word	0xffff	; ????
    5c84:	ff ff       	.word	0xffff	; ????
    5c86:	ff ff       	.word	0xffff	; ????
    5c88:	ff ff       	.word	0xffff	; ????
    5c8a:	ff ff       	.word	0xffff	; ????
    5c8c:	ff ff       	.word	0xffff	; ????
    5c8e:	ff ff       	.word	0xffff	; ????
    5c90:	ff ff       	.word	0xffff	; ????
    5c92:	ff ff       	.word	0xffff	; ????
    5c94:	ff ff       	.word	0xffff	; ????
    5c96:	ff ff       	.word	0xffff	; ????
    5c98:	ff ff       	.word	0xffff	; ????
    5c9a:	ff ff       	.word	0xffff	; ????
    5c9c:	ff ff       	.word	0xffff	; ????
    5c9e:	ff ff       	.word	0xffff	; ????
    5ca0:	ff ff       	.word	0xffff	; ????
    5ca2:	ff ff       	.word	0xffff	; ????
    5ca4:	ff ff       	.word	0xffff	; ????
    5ca6:	ff ff       	.word	0xffff	; ????
    5ca8:	ff ff       	.word	0xffff	; ????
    5caa:	ff ff       	.word	0xffff	; ????
    5cac:	ff ff       	.word	0xffff	; ????
    5cae:	ff ff       	.word	0xffff	; ????
    5cb0:	ff ff       	.word	0xffff	; ????
    5cb2:	ff ff       	.word	0xffff	; ????
    5cb4:	ff ff       	.word	0xffff	; ????
    5cb6:	ff ff       	.word	0xffff	; ????
    5cb8:	ff ff       	.word	0xffff	; ????
    5cba:	ff ff       	.word	0xffff	; ????
    5cbc:	ff ff       	.word	0xffff	; ????
    5cbe:	ff ff       	.word	0xffff	; ????
    5cc0:	ff ff       	.word	0xffff	; ????
    5cc2:	ff ff       	.word	0xffff	; ????
    5cc4:	ff ff       	.word	0xffff	; ????
    5cc6:	ff ff       	.word	0xffff	; ????
    5cc8:	ff ff       	.word	0xffff	; ????
    5cca:	ff ff       	.word	0xffff	; ????
    5ccc:	ff ff       	.word	0xffff	; ????
    5cce:	ff ff       	.word	0xffff	; ????
    5cd0:	ff ff       	.word	0xffff	; ????
    5cd2:	ff ff       	.word	0xffff	; ????
    5cd4:	ff ff       	.word	0xffff	; ????
    5cd6:	ff ff       	.word	0xffff	; ????
    5cd8:	ff ff       	.word	0xffff	; ????
    5cda:	ff ff       	.word	0xffff	; ????
    5cdc:	ff ff       	.word	0xffff	; ????
    5cde:	ff ff       	.word	0xffff	; ????
    5ce0:	ff ff       	.word	0xffff	; ????
    5ce2:	ff ff       	.word	0xffff	; ????
    5ce4:	ff ff       	.word	0xffff	; ????
    5ce6:	ff ff       	.word	0xffff	; ????
    5ce8:	ff ff       	.word	0xffff	; ????
    5cea:	ff ff       	.word	0xffff	; ????
    5cec:	ff ff       	.word	0xffff	; ????
    5cee:	ff ff       	.word	0xffff	; ????
    5cf0:	ff ff       	.word	0xffff	; ????
    5cf2:	ff ff       	.word	0xffff	; ????
    5cf4:	ff ff       	.word	0xffff	; ????
    5cf6:	ff ff       	.word	0xffff	; ????
    5cf8:	ff ff       	.word	0xffff	; ????
    5cfa:	ff ff       	.word	0xffff	; ????
    5cfc:	ff ff       	.word	0xffff	; ????
    5cfe:	ff ff       	.word	0xffff	; ????
    5d00:	ff ff       	.word	0xffff	; ????
    5d02:	ff ff       	.word	0xffff	; ????
    5d04:	ff ff       	.word	0xffff	; ????
    5d06:	ff ff       	.word	0xffff	; ????
    5d08:	ff ff       	.word	0xffff	; ????
    5d0a:	ff ff       	.word	0xffff	; ????
    5d0c:	ff ff       	.word	0xffff	; ????
    5d0e:	ff ff       	.word	0xffff	; ????
    5d10:	ff ff       	.word	0xffff	; ????
    5d12:	ff ff       	.word	0xffff	; ????
    5d14:	ff ff       	.word	0xffff	; ????
    5d16:	ff ff       	.word	0xffff	; ????
    5d18:	ff ff       	.word	0xffff	; ????
    5d1a:	ff ff       	.word	0xffff	; ????
    5d1c:	ff ff       	.word	0xffff	; ????
    5d1e:	ff ff       	.word	0xffff	; ????
    5d20:	ff ff       	.word	0xffff	; ????
    5d22:	ff ff       	.word	0xffff	; ????
    5d24:	ff ff       	.word	0xffff	; ????
    5d26:	ff ff       	.word	0xffff	; ????
    5d28:	ff ff       	.word	0xffff	; ????
    5d2a:	ff ff       	.word	0xffff	; ????
    5d2c:	ff ff       	.word	0xffff	; ????
    5d2e:	ff ff       	.word	0xffff	; ????
    5d30:	ff ff       	.word	0xffff	; ????
    5d32:	ff ff       	.word	0xffff	; ????
    5d34:	ff ff       	.word	0xffff	; ????
    5d36:	ff ff       	.word	0xffff	; ????
    5d38:	ff ff       	.word	0xffff	; ????
    5d3a:	ff ff       	.word	0xffff	; ????
    5d3c:	ff ff       	.word	0xffff	; ????
    5d3e:	ff ff       	.word	0xffff	; ????
    5d40:	ff ff       	.word	0xffff	; ????
    5d42:	ff ff       	.word	0xffff	; ????
    5d44:	ff ff       	.word	0xffff	; ????
    5d46:	ff ff       	.word	0xffff	; ????
    5d48:	ff ff       	.word	0xffff	; ????
    5d4a:	ff ff       	.word	0xffff	; ????
    5d4c:	ff ff       	.word	0xffff	; ????
    5d4e:	ff ff       	.word	0xffff	; ????
    5d50:	ff ff       	.word	0xffff	; ????
    5d52:	ff ff       	.word	0xffff	; ????
    5d54:	ff ff       	.word	0xffff	; ????
    5d56:	ff ff       	.word	0xffff	; ????
    5d58:	ff ff       	.word	0xffff	; ????
    5d5a:	ff ff       	.word	0xffff	; ????
    5d5c:	ff ff       	.word	0xffff	; ????
    5d5e:	ff ff       	.word	0xffff	; ????
    5d60:	ff ff       	.word	0xffff	; ????
    5d62:	ff ff       	.word	0xffff	; ????
    5d64:	ff ff       	.word	0xffff	; ????
    5d66:	ff ff       	.word	0xffff	; ????
    5d68:	ff ff       	.word	0xffff	; ????
    5d6a:	ff ff       	.word	0xffff	; ????
    5d6c:	ff ff       	.word	0xffff	; ????
    5d6e:	ff ff       	.word	0xffff	; ????
    5d70:	ff ff       	.word	0xffff	; ????
    5d72:	ff ff       	.word	0xffff	; ????
    5d74:	ff ff       	.word	0xffff	; ????
    5d76:	ff ff       	.word	0xffff	; ????
    5d78:	ff ff       	.word	0xffff	; ????
    5d7a:	ff ff       	.word	0xffff	; ????
    5d7c:	ff ff       	.word	0xffff	; ????
    5d7e:	ff ff       	.word	0xffff	; ????
    5d80:	ff ff       	.word	0xffff	; ????
    5d82:	ff ff       	.word	0xffff	; ????
    5d84:	ff ff       	.word	0xffff	; ????
    5d86:	ff ff       	.word	0xffff	; ????
    5d88:	ff ff       	.word	0xffff	; ????
    5d8a:	ff ff       	.word	0xffff	; ????
    5d8c:	ff ff       	.word	0xffff	; ????
    5d8e:	ff ff       	.word	0xffff	; ????
    5d90:	ff ff       	.word	0xffff	; ????
    5d92:	ff ff       	.word	0xffff	; ????
    5d94:	ff ff       	.word	0xffff	; ????
    5d96:	ff ff       	.word	0xffff	; ????
    5d98:	ff ff       	.word	0xffff	; ????
    5d9a:	ff ff       	.word	0xffff	; ????
    5d9c:	ff ff       	.word	0xffff	; ????
    5d9e:	ff ff       	.word	0xffff	; ????
    5da0:	ff ff       	.word	0xffff	; ????
    5da2:	ff ff       	.word	0xffff	; ????
    5da4:	ff ff       	.word	0xffff	; ????
    5da6:	ff ff       	.word	0xffff	; ????
    5da8:	ff ff       	.word	0xffff	; ????
    5daa:	ff ff       	.word	0xffff	; ????
    5dac:	ff ff       	.word	0xffff	; ????
    5dae:	ff ff       	.word	0xffff	; ????
    5db0:	ff ff       	.word	0xffff	; ????
    5db2:	ff ff       	.word	0xffff	; ????
    5db4:	ff ff       	.word	0xffff	; ????
    5db6:	ff ff       	.word	0xffff	; ????
    5db8:	ff ff       	.word	0xffff	; ????
    5dba:	ff ff       	.word	0xffff	; ????
    5dbc:	ff ff       	.word	0xffff	; ????
    5dbe:	ff ff       	.word	0xffff	; ????
    5dc0:	ff ff       	.word	0xffff	; ????
    5dc2:	ff ff       	.word	0xffff	; ????
    5dc4:	ff ff       	.word	0xffff	; ????
    5dc6:	ff ff       	.word	0xffff	; ????
    5dc8:	ff ff       	.word	0xffff	; ????
    5dca:	ff ff       	.word	0xffff	; ????
    5dcc:	ff ff       	.word	0xffff	; ????
    5dce:	ff ff       	.word	0xffff	; ????
    5dd0:	ff ff       	.word	0xffff	; ????
    5dd2:	ff ff       	.word	0xffff	; ????
    5dd4:	ff ff       	.word	0xffff	; ????
    5dd6:	ff ff       	.word	0xffff	; ????
    5dd8:	ff ff       	.word	0xffff	; ????
    5dda:	ff ff       	.word	0xffff	; ????
    5ddc:	ff ff       	.word	0xffff	; ????
    5dde:	ff ff       	.word	0xffff	; ????
    5de0:	ff ff       	.word	0xffff	; ????
    5de2:	ff ff       	.word	0xffff	; ????
    5de4:	ff ff       	.word	0xffff	; ????
    5de6:	ff ff       	.word	0xffff	; ????
    5de8:	ff ff       	.word	0xffff	; ????
    5dea:	ff ff       	.word	0xffff	; ????
    5dec:	ff ff       	.word	0xffff	; ????
    5dee:	ff ff       	.word	0xffff	; ????
    5df0:	ff ff       	.word	0xffff	; ????
    5df2:	ff ff       	.word	0xffff	; ????
    5df4:	ff ff       	.word	0xffff	; ????
    5df6:	ff ff       	.word	0xffff	; ????
    5df8:	ff ff       	.word	0xffff	; ????
    5dfa:	ff ff       	.word	0xffff	; ????
    5dfc:	ff ff       	.word	0xffff	; ????
    5dfe:	ff ff       	.word	0xffff	; ????
    5e00:	ff ff       	.word	0xffff	; ????
    5e02:	ff ff       	.word	0xffff	; ????
    5e04:	ff ff       	.word	0xffff	; ????
    5e06:	ff ff       	.word	0xffff	; ????
    5e08:	ff ff       	.word	0xffff	; ????
    5e0a:	ff ff       	.word	0xffff	; ????
    5e0c:	ff ff       	.word	0xffff	; ????
    5e0e:	ff ff       	.word	0xffff	; ????
    5e10:	ff ff       	.word	0xffff	; ????
    5e12:	ff ff       	.word	0xffff	; ????
    5e14:	ff ff       	.word	0xffff	; ????
    5e16:	ff ff       	.word	0xffff	; ????
    5e18:	ff ff       	.word	0xffff	; ????
    5e1a:	ff ff       	.word	0xffff	; ????
    5e1c:	ff ff       	.word	0xffff	; ????
    5e1e:	ff ff       	.word	0xffff	; ????
    5e20:	ff ff       	.word	0xffff	; ????
    5e22:	ff ff       	.word	0xffff	; ????
    5e24:	ff ff       	.word	0xffff	; ????
    5e26:	ff ff       	.word	0xffff	; ????
    5e28:	ff ff       	.word	0xffff	; ????
    5e2a:	ff ff       	.word	0xffff	; ????
    5e2c:	ff ff       	.word	0xffff	; ????
    5e2e:	ff ff       	.word	0xffff	; ????
    5e30:	ff ff       	.word	0xffff	; ????
    5e32:	ff ff       	.word	0xffff	; ????
    5e34:	ff ff       	.word	0xffff	; ????
    5e36:	ff ff       	.word	0xffff	; ????
    5e38:	ff ff       	.word	0xffff	; ????
    5e3a:	ff ff       	.word	0xffff	; ????
    5e3c:	ff ff       	.word	0xffff	; ????
    5e3e:	ff ff       	.word	0xffff	; ????
    5e40:	ff ff       	.word	0xffff	; ????
    5e42:	ff ff       	.word	0xffff	; ????
    5e44:	ff ff       	.word	0xffff	; ????
    5e46:	ff ff       	.word	0xffff	; ????
    5e48:	ff ff       	.word	0xffff	; ????
    5e4a:	ff ff       	.word	0xffff	; ????
    5e4c:	ff ff       	.word	0xffff	; ????
    5e4e:	ff ff       	.word	0xffff	; ????
    5e50:	ff ff       	.word	0xffff	; ????
    5e52:	ff ff       	.word	0xffff	; ????
    5e54:	ff ff       	.word	0xffff	; ????
    5e56:	ff ff       	.word	0xffff	; ????
    5e58:	ff ff       	.word	0xffff	; ????
    5e5a:	ff ff       	.word	0xffff	; ????
    5e5c:	ff ff       	.word	0xffff	; ????
    5e5e:	ff ff       	.word	0xffff	; ????
    5e60:	ff ff       	.word	0xffff	; ????
    5e62:	ff ff       	.word	0xffff	; ????
    5e64:	ff ff       	.word	0xffff	; ????
    5e66:	ff ff       	.word	0xffff	; ????
    5e68:	ff ff       	.word	0xffff	; ????
    5e6a:	ff ff       	.word	0xffff	; ????
    5e6c:	ff ff       	.word	0xffff	; ????
    5e6e:	ff ff       	.word	0xffff	; ????
    5e70:	ff ff       	.word	0xffff	; ????
    5e72:	ff ff       	.word	0xffff	; ????
    5e74:	ff ff       	.word	0xffff	; ????
    5e76:	ff ff       	.word	0xffff	; ????
    5e78:	ff ff       	.word	0xffff	; ????
    5e7a:	ff ff       	.word	0xffff	; ????
    5e7c:	ff ff       	.word	0xffff	; ????
    5e7e:	ff ff       	.word	0xffff	; ????
    5e80:	ff ff       	.word	0xffff	; ????
    5e82:	ff ff       	.word	0xffff	; ????
    5e84:	ff ff       	.word	0xffff	; ????
    5e86:	ff ff       	.word	0xffff	; ????
    5e88:	ff ff       	.word	0xffff	; ????
    5e8a:	ff ff       	.word	0xffff	; ????
    5e8c:	ff ff       	.word	0xffff	; ????
    5e8e:	ff ff       	.word	0xffff	; ????
    5e90:	ff ff       	.word	0xffff	; ????
    5e92:	ff ff       	.word	0xffff	; ????
    5e94:	ff ff       	.word	0xffff	; ????
    5e96:	ff ff       	.word	0xffff	; ????
    5e98:	ff ff       	.word	0xffff	; ????
    5e9a:	ff ff       	.word	0xffff	; ????
    5e9c:	ff ff       	.word	0xffff	; ????
    5e9e:	ff ff       	.word	0xffff	; ????
    5ea0:	ff ff       	.word	0xffff	; ????
    5ea2:	ff ff       	.word	0xffff	; ????
    5ea4:	ff ff       	.word	0xffff	; ????
    5ea6:	ff ff       	.word	0xffff	; ????
    5ea8:	ff ff       	.word	0xffff	; ????
    5eaa:	ff ff       	.word	0xffff	; ????
    5eac:	ff ff       	.word	0xffff	; ????
    5eae:	ff ff       	.word	0xffff	; ????
    5eb0:	ff ff       	.word	0xffff	; ????
    5eb2:	ff ff       	.word	0xffff	; ????
    5eb4:	ff ff       	.word	0xffff	; ????
    5eb6:	ff ff       	.word	0xffff	; ????
    5eb8:	ff ff       	.word	0xffff	; ????
    5eba:	ff ff       	.word	0xffff	; ????
    5ebc:	ff ff       	.word	0xffff	; ????
    5ebe:	ff ff       	.word	0xffff	; ????
    5ec0:	ff ff       	.word	0xffff	; ????
    5ec2:	ff ff       	.word	0xffff	; ????
    5ec4:	ff ff       	.word	0xffff	; ????
    5ec6:	ff ff       	.word	0xffff	; ????
    5ec8:	ff ff       	.word	0xffff	; ????
    5eca:	ff ff       	.word	0xffff	; ????
    5ecc:	ff ff       	.word	0xffff	; ????
    5ece:	ff ff       	.word	0xffff	; ????
    5ed0:	ff ff       	.word	0xffff	; ????
    5ed2:	ff ff       	.word	0xffff	; ????
    5ed4:	ff ff       	.word	0xffff	; ????
    5ed6:	ff ff       	.word	0xffff	; ????
    5ed8:	ff ff       	.word	0xffff	; ????
    5eda:	ff ff       	.word	0xffff	; ????
    5edc:	ff ff       	.word	0xffff	; ????
    5ede:	ff ff       	.word	0xffff	; ????
    5ee0:	ff ff       	.word	0xffff	; ????
    5ee2:	ff ff       	.word	0xffff	; ????
    5ee4:	ff ff       	.word	0xffff	; ????
    5ee6:	ff ff       	.word	0xffff	; ????
    5ee8:	ff ff       	.word	0xffff	; ????
    5eea:	ff ff       	.word	0xffff	; ????
    5eec:	ff ff       	.word	0xffff	; ????
    5eee:	ff ff       	.word	0xffff	; ????
    5ef0:	ff ff       	.word	0xffff	; ????
    5ef2:	ff ff       	.word	0xffff	; ????
    5ef4:	ff ff       	.word	0xffff	; ????
    5ef6:	ff ff       	.word	0xffff	; ????
    5ef8:	ff ff       	.word	0xffff	; ????
    5efa:	ff ff       	.word	0xffff	; ????
    5efc:	ff ff       	.word	0xffff	; ????
    5efe:	ff ff       	.word	0xffff	; ????
    5f00:	ff ff       	.word	0xffff	; ????
    5f02:	ff ff       	.word	0xffff	; ????
    5f04:	ff ff       	.word	0xffff	; ????
    5f06:	ff ff       	.word	0xffff	; ????
    5f08:	ff ff       	.word	0xffff	; ????
    5f0a:	ff ff       	.word	0xffff	; ????
    5f0c:	ff ff       	.word	0xffff	; ????
    5f0e:	ff ff       	.word	0xffff	; ????
    5f10:	ff ff       	.word	0xffff	; ????
    5f12:	ff ff       	.word	0xffff	; ????
    5f14:	ff ff       	.word	0xffff	; ????
    5f16:	ff ff       	.word	0xffff	; ????
    5f18:	ff ff       	.word	0xffff	; ????
    5f1a:	ff ff       	.word	0xffff	; ????
    5f1c:	ff ff       	.word	0xffff	; ????
    5f1e:	ff ff       	.word	0xffff	; ????
    5f20:	ff ff       	.word	0xffff	; ????
    5f22:	ff ff       	.word	0xffff	; ????
    5f24:	ff ff       	.word	0xffff	; ????
    5f26:	ff ff       	.word	0xffff	; ????
    5f28:	ff ff       	.word	0xffff	; ????
    5f2a:	ff ff       	.word	0xffff	; ????
    5f2c:	ff ff       	.word	0xffff	; ????
    5f2e:	ff ff       	.word	0xffff	; ????
    5f30:	ff ff       	.word	0xffff	; ????
    5f32:	ff ff       	.word	0xffff	; ????
    5f34:	ff ff       	.word	0xffff	; ????
    5f36:	ff ff       	.word	0xffff	; ????
    5f38:	ff ff       	.word	0xffff	; ????
    5f3a:	ff ff       	.word	0xffff	; ????
    5f3c:	ff ff       	.word	0xffff	; ????
    5f3e:	ff ff       	.word	0xffff	; ????
    5f40:	ff ff       	.word	0xffff	; ????
    5f42:	ff ff       	.word	0xffff	; ????
    5f44:	ff ff       	.word	0xffff	; ????
    5f46:	ff ff       	.word	0xffff	; ????
    5f48:	ff ff       	.word	0xffff	; ????
    5f4a:	ff ff       	.word	0xffff	; ????
    5f4c:	ff ff       	.word	0xffff	; ????
    5f4e:	ff ff       	.word	0xffff	; ????
    5f50:	ff ff       	.word	0xffff	; ????
    5f52:	ff ff       	.word	0xffff	; ????
    5f54:	ff ff       	.word	0xffff	; ????
    5f56:	ff ff       	.word	0xffff	; ????
    5f58:	ff ff       	.word	0xffff	; ????
    5f5a:	ff ff       	.word	0xffff	; ????
    5f5c:	ff ff       	.word	0xffff	; ????
    5f5e:	ff ff       	.word	0xffff	; ????
    5f60:	ff ff       	.word	0xffff	; ????
    5f62:	ff ff       	.word	0xffff	; ????
    5f64:	ff ff       	.word	0xffff	; ????
    5f66:	ff ff       	.word	0xffff	; ????
    5f68:	ff ff       	.word	0xffff	; ????
    5f6a:	ff ff       	.word	0xffff	; ????
    5f6c:	ff ff       	.word	0xffff	; ????
    5f6e:	ff ff       	.word	0xffff	; ????
    5f70:	ff ff       	.word	0xffff	; ????
    5f72:	ff ff       	.word	0xffff	; ????
    5f74:	ff ff       	.word	0xffff	; ????
    5f76:	ff ff       	.word	0xffff	; ????
    5f78:	ff ff       	.word	0xffff	; ????
    5f7a:	ff ff       	.word	0xffff	; ????
    5f7c:	ff ff       	.word	0xffff	; ????
    5f7e:	ff ff       	.word	0xffff	; ????
    5f80:	ff ff       	.word	0xffff	; ????
    5f82:	ff ff       	.word	0xffff	; ????
    5f84:	ff ff       	.word	0xffff	; ????
    5f86:	ff ff       	.word	0xffff	; ????
    5f88:	ff ff       	.word	0xffff	; ????
    5f8a:	ff ff       	.word	0xffff	; ????
    5f8c:	ff ff       	.word	0xffff	; ????
    5f8e:	ff ff       	.word	0xffff	; ????
    5f90:	ff ff       	.word	0xffff	; ????
    5f92:	ff ff       	.word	0xffff	; ????
    5f94:	ff ff       	.word	0xffff	; ????
    5f96:	ff ff       	.word	0xffff	; ????
    5f98:	ff ff       	.word	0xffff	; ????
    5f9a:	ff ff       	.word	0xffff	; ????
    5f9c:	ff ff       	.word	0xffff	; ????
    5f9e:	ff ff       	.word	0xffff	; ????
    5fa0:	ff ff       	.word	0xffff	; ????
    5fa2:	ff ff       	.word	0xffff	; ????
    5fa4:	ff ff       	.word	0xffff	; ????
    5fa6:	ff ff       	.word	0xffff	; ????
    5fa8:	ff ff       	.word	0xffff	; ????
    5faa:	ff ff       	.word	0xffff	; ????
    5fac:	ff ff       	.word	0xffff	; ????
    5fae:	ff ff       	.word	0xffff	; ????
    5fb0:	ff ff       	.word	0xffff	; ????
    5fb2:	ff ff       	.word	0xffff	; ????
    5fb4:	ff ff       	.word	0xffff	; ????
    5fb6:	ff ff       	.word	0xffff	; ????
    5fb8:	ff ff       	.word	0xffff	; ????
    5fba:	ff ff       	.word	0xffff	; ????
    5fbc:	ff ff       	.word	0xffff	; ????
    5fbe:	ff ff       	.word	0xffff	; ????
    5fc0:	ff ff       	.word	0xffff	; ????
    5fc2:	ff ff       	.word	0xffff	; ????
    5fc4:	ff ff       	.word	0xffff	; ????
    5fc6:	ff ff       	.word	0xffff	; ????
    5fc8:	ff ff       	.word	0xffff	; ????
    5fca:	ff ff       	.word	0xffff	; ????
    5fcc:	ff ff       	.word	0xffff	; ????
    5fce:	ff ff       	.word	0xffff	; ????
    5fd0:	ff ff       	.word	0xffff	; ????
    5fd2:	ff ff       	.word	0xffff	; ????
    5fd4:	ff ff       	.word	0xffff	; ????
    5fd6:	ff ff       	.word	0xffff	; ????
    5fd8:	ff ff       	.word	0xffff	; ????
    5fda:	ff ff       	.word	0xffff	; ????
    5fdc:	ff ff       	.word	0xffff	; ????
    5fde:	ff ff       	.word	0xffff	; ????
    5fe0:	ff ff       	.word	0xffff	; ????
    5fe2:	ff ff       	.word	0xffff	; ????
    5fe4:	ff ff       	.word	0xffff	; ????
    5fe6:	ff ff       	.word	0xffff	; ????
    5fe8:	ff ff       	.word	0xffff	; ????
    5fea:	ff ff       	.word	0xffff	; ????
    5fec:	ff ff       	.word	0xffff	; ????
    5fee:	ff ff       	.word	0xffff	; ????
    5ff0:	ff ff       	.word	0xffff	; ????
    5ff2:	ff ff       	.word	0xffff	; ????
    5ff4:	ff ff       	.word	0xffff	; ????
    5ff6:	ff ff       	.word	0xffff	; ????
    5ff8:	ff ff       	.word	0xffff	; ????
    5ffa:	ff ff       	.word	0xffff	; ????
    5ffc:	ff ff       	.word	0xffff	; ????
    5ffe:	ff ff       	.word	0xffff	; ????
    6000:	ff ff       	.word	0xffff	; ????
    6002:	ff ff       	.word	0xffff	; ????
    6004:	ff ff       	.word	0xffff	; ????
    6006:	ff ff       	.word	0xffff	; ????
    6008:	ff ff       	.word	0xffff	; ????
    600a:	ff ff       	.word	0xffff	; ????
    600c:	ff ff       	.word	0xffff	; ????
    600e:	ff ff       	.word	0xffff	; ????
    6010:	ff ff       	.word	0xffff	; ????
    6012:	ff ff       	.word	0xffff	; ????
    6014:	ff ff       	.word	0xffff	; ????
    6016:	ff ff       	.word	0xffff	; ????
    6018:	ff ff       	.word	0xffff	; ????
    601a:	ff ff       	.word	0xffff	; ????
    601c:	ff ff       	.word	0xffff	; ????
    601e:	ff ff       	.word	0xffff	; ????
    6020:	ff ff       	.word	0xffff	; ????
    6022:	ff ff       	.word	0xffff	; ????
    6024:	ff ff       	.word	0xffff	; ????
    6026:	ff ff       	.word	0xffff	; ????
    6028:	ff ff       	.word	0xffff	; ????
    602a:	ff ff       	.word	0xffff	; ????
    602c:	ff ff       	.word	0xffff	; ????
    602e:	ff ff       	.word	0xffff	; ????
    6030:	ff ff       	.word	0xffff	; ????
    6032:	ff ff       	.word	0xffff	; ????
    6034:	ff ff       	.word	0xffff	; ????
    6036:	ff ff       	.word	0xffff	; ????
    6038:	ff ff       	.word	0xffff	; ????
    603a:	ff ff       	.word	0xffff	; ????
    603c:	ff ff       	.word	0xffff	; ????
    603e:	ff ff       	.word	0xffff	; ????
    6040:	ff ff       	.word	0xffff	; ????
    6042:	ff ff       	.word	0xffff	; ????
    6044:	ff ff       	.word	0xffff	; ????
    6046:	ff ff       	.word	0xffff	; ????
    6048:	ff ff       	.word	0xffff	; ????
    604a:	ff ff       	.word	0xffff	; ????
    604c:	ff ff       	.word	0xffff	; ????
    604e:	ff ff       	.word	0xffff	; ????
    6050:	ff ff       	.word	0xffff	; ????
    6052:	ff ff       	.word	0xffff	; ????
    6054:	ff ff       	.word	0xffff	; ????
    6056:	ff ff       	.word	0xffff	; ????
    6058:	ff ff       	.word	0xffff	; ????
    605a:	ff ff       	.word	0xffff	; ????
    605c:	ff ff       	.word	0xffff	; ????
    605e:	ff ff       	.word	0xffff	; ????
    6060:	ff ff       	.word	0xffff	; ????
    6062:	ff ff       	.word	0xffff	; ????
    6064:	ff ff       	.word	0xffff	; ????
    6066:	ff ff       	.word	0xffff	; ????
    6068:	ff ff       	.word	0xffff	; ????
    606a:	ff ff       	.word	0xffff	; ????
    606c:	ff ff       	.word	0xffff	; ????
    606e:	ff ff       	.word	0xffff	; ????
    6070:	ff ff       	.word	0xffff	; ????
    6072:	ff ff       	.word	0xffff	; ????
    6074:	ff ff       	.word	0xffff	; ????
    6076:	ff ff       	.word	0xffff	; ????
    6078:	ff ff       	.word	0xffff	; ????
    607a:	ff ff       	.word	0xffff	; ????
    607c:	ff ff       	.word	0xffff	; ????
    607e:	ff ff       	.word	0xffff	; ????
    6080:	ff ff       	.word	0xffff	; ????
    6082:	ff ff       	.word	0xffff	; ????
    6084:	ff ff       	.word	0xffff	; ????
    6086:	ff ff       	.word	0xffff	; ????
    6088:	ff ff       	.word	0xffff	; ????
    608a:	ff ff       	.word	0xffff	; ????
    608c:	ff ff       	.word	0xffff	; ????
    608e:	ff ff       	.word	0xffff	; ????
    6090:	ff ff       	.word	0xffff	; ????
    6092:	ff ff       	.word	0xffff	; ????
    6094:	ff ff       	.word	0xffff	; ????
    6096:	ff ff       	.word	0xffff	; ????
    6098:	ff ff       	.word	0xffff	; ????
    609a:	ff ff       	.word	0xffff	; ????
    609c:	ff ff       	.word	0xffff	; ????
    609e:	ff ff       	.word	0xffff	; ????
    60a0:	ff ff       	.word	0xffff	; ????
    60a2:	ff ff       	.word	0xffff	; ????
    60a4:	ff ff       	.word	0xffff	; ????
    60a6:	ff ff       	.word	0xffff	; ????
    60a8:	ff ff       	.word	0xffff	; ????
    60aa:	ff ff       	.word	0xffff	; ????
    60ac:	ff ff       	.word	0xffff	; ????
    60ae:	ff ff       	.word	0xffff	; ????
    60b0:	ff ff       	.word	0xffff	; ????
    60b2:	ff ff       	.word	0xffff	; ????
    60b4:	ff ff       	.word	0xffff	; ????
    60b6:	ff ff       	.word	0xffff	; ????
    60b8:	ff ff       	.word	0xffff	; ????
    60ba:	ff ff       	.word	0xffff	; ????
    60bc:	ff ff       	.word	0xffff	; ????
    60be:	ff ff       	.word	0xffff	; ????
    60c0:	ff ff       	.word	0xffff	; ????
    60c2:	ff ff       	.word	0xffff	; ????
    60c4:	ff ff       	.word	0xffff	; ????
    60c6:	ff ff       	.word	0xffff	; ????
    60c8:	ff ff       	.word	0xffff	; ????
    60ca:	ff ff       	.word	0xffff	; ????
    60cc:	ff ff       	.word	0xffff	; ????
    60ce:	ff ff       	.word	0xffff	; ????
    60d0:	ff ff       	.word	0xffff	; ????
    60d2:	ff ff       	.word	0xffff	; ????
    60d4:	ff ff       	.word	0xffff	; ????
    60d6:	ff ff       	.word	0xffff	; ????
    60d8:	ff ff       	.word	0xffff	; ????
    60da:	ff ff       	.word	0xffff	; ????
    60dc:	ff ff       	.word	0xffff	; ????
    60de:	ff ff       	.word	0xffff	; ????
    60e0:	ff ff       	.word	0xffff	; ????
    60e2:	ff ff       	.word	0xffff	; ????
    60e4:	ff ff       	.word	0xffff	; ????
    60e6:	ff ff       	.word	0xffff	; ????
    60e8:	ff ff       	.word	0xffff	; ????
    60ea:	ff ff       	.word	0xffff	; ????
    60ec:	ff ff       	.word	0xffff	; ????
    60ee:	ff ff       	.word	0xffff	; ????
    60f0:	ff ff       	.word	0xffff	; ????
    60f2:	ff ff       	.word	0xffff	; ????
    60f4:	ff ff       	.word	0xffff	; ????
    60f6:	ff ff       	.word	0xffff	; ????
    60f8:	ff ff       	.word	0xffff	; ????
    60fa:	ff ff       	.word	0xffff	; ????
    60fc:	ff ff       	.word	0xffff	; ????
    60fe:	ff ff       	.word	0xffff	; ????
    6100:	ff ff       	.word	0xffff	; ????
    6102:	ff ff       	.word	0xffff	; ????
    6104:	ff ff       	.word	0xffff	; ????
    6106:	ff ff       	.word	0xffff	; ????
    6108:	ff ff       	.word	0xffff	; ????
    610a:	ff ff       	.word	0xffff	; ????
    610c:	ff ff       	.word	0xffff	; ????
    610e:	ff ff       	.word	0xffff	; ????
    6110:	ff ff       	.word	0xffff	; ????
    6112:	ff ff       	.word	0xffff	; ????
    6114:	ff ff       	.word	0xffff	; ????
    6116:	ff ff       	.word	0xffff	; ????
    6118:	ff ff       	.word	0xffff	; ????
    611a:	ff ff       	.word	0xffff	; ????
    611c:	ff ff       	.word	0xffff	; ????
    611e:	ff ff       	.word	0xffff	; ????
    6120:	ff ff       	.word	0xffff	; ????
    6122:	ff ff       	.word	0xffff	; ????
    6124:	ff ff       	.word	0xffff	; ????
    6126:	ff ff       	.word	0xffff	; ????
    6128:	ff ff       	.word	0xffff	; ????
    612a:	ff ff       	.word	0xffff	; ????
    612c:	ff ff       	.word	0xffff	; ????
    612e:	ff ff       	.word	0xffff	; ????
    6130:	ff ff       	.word	0xffff	; ????
    6132:	ff ff       	.word	0xffff	; ????
    6134:	ff ff       	.word	0xffff	; ????
    6136:	ff ff       	.word	0xffff	; ????
    6138:	ff ff       	.word	0xffff	; ????
    613a:	ff ff       	.word	0xffff	; ????
    613c:	ff ff       	.word	0xffff	; ????
    613e:	ff ff       	.word	0xffff	; ????
    6140:	ff ff       	.word	0xffff	; ????
    6142:	ff ff       	.word	0xffff	; ????
    6144:	ff ff       	.word	0xffff	; ????
    6146:	ff ff       	.word	0xffff	; ????
    6148:	ff ff       	.word	0xffff	; ????
    614a:	ff ff       	.word	0xffff	; ????
    614c:	ff ff       	.word	0xffff	; ????
    614e:	ff ff       	.word	0xffff	; ????
    6150:	ff ff       	.word	0xffff	; ????
    6152:	ff ff       	.word	0xffff	; ????
    6154:	ff ff       	.word	0xffff	; ????
    6156:	ff ff       	.word	0xffff	; ????
    6158:	ff ff       	.word	0xffff	; ????
    615a:	ff ff       	.word	0xffff	; ????
    615c:	ff ff       	.word	0xffff	; ????
    615e:	ff ff       	.word	0xffff	; ????
    6160:	ff ff       	.word	0xffff	; ????
    6162:	ff ff       	.word	0xffff	; ????
    6164:	ff ff       	.word	0xffff	; ????
    6166:	ff ff       	.word	0xffff	; ????
    6168:	ff ff       	.word	0xffff	; ????
    616a:	ff ff       	.word	0xffff	; ????
    616c:	ff ff       	.word	0xffff	; ????
    616e:	ff ff       	.word	0xffff	; ????
    6170:	ff ff       	.word	0xffff	; ????
    6172:	ff ff       	.word	0xffff	; ????
    6174:	ff ff       	.word	0xffff	; ????
    6176:	ff ff       	.word	0xffff	; ????
    6178:	ff ff       	.word	0xffff	; ????
    617a:	ff ff       	.word	0xffff	; ????
    617c:	ff ff       	.word	0xffff	; ????
    617e:	ff ff       	.word	0xffff	; ????
    6180:	ff ff       	.word	0xffff	; ????
    6182:	ff ff       	.word	0xffff	; ????
    6184:	ff ff       	.word	0xffff	; ????
    6186:	ff ff       	.word	0xffff	; ????
    6188:	ff ff       	.word	0xffff	; ????
    618a:	ff ff       	.word	0xffff	; ????
    618c:	ff ff       	.word	0xffff	; ????
    618e:	ff ff       	.word	0xffff	; ????
    6190:	ff ff       	.word	0xffff	; ????
    6192:	ff ff       	.word	0xffff	; ????
    6194:	ff ff       	.word	0xffff	; ????
    6196:	ff ff       	.word	0xffff	; ????
    6198:	ff ff       	.word	0xffff	; ????
    619a:	ff ff       	.word	0xffff	; ????
    619c:	ff ff       	.word	0xffff	; ????
    619e:	ff ff       	.word	0xffff	; ????
    61a0:	ff ff       	.word	0xffff	; ????
    61a2:	ff ff       	.word	0xffff	; ????
    61a4:	ff ff       	.word	0xffff	; ????
    61a6:	ff ff       	.word	0xffff	; ????
    61a8:	ff ff       	.word	0xffff	; ????
    61aa:	ff ff       	.word	0xffff	; ????
    61ac:	ff ff       	.word	0xffff	; ????
    61ae:	ff ff       	.word	0xffff	; ????
    61b0:	ff ff       	.word	0xffff	; ????
    61b2:	ff ff       	.word	0xffff	; ????
    61b4:	ff ff       	.word	0xffff	; ????
    61b6:	ff ff       	.word	0xffff	; ????
    61b8:	ff ff       	.word	0xffff	; ????
    61ba:	ff ff       	.word	0xffff	; ????
    61bc:	ff ff       	.word	0xffff	; ????
    61be:	ff ff       	.word	0xffff	; ????
    61c0:	ff ff       	.word	0xffff	; ????
    61c2:	ff ff       	.word	0xffff	; ????
    61c4:	ff ff       	.word	0xffff	; ????
    61c6:	ff ff       	.word	0xffff	; ????
    61c8:	ff ff       	.word	0xffff	; ????
    61ca:	ff ff       	.word	0xffff	; ????
    61cc:	ff ff       	.word	0xffff	; ????
    61ce:	ff ff       	.word	0xffff	; ????
    61d0:	ff ff       	.word	0xffff	; ????
    61d2:	ff ff       	.word	0xffff	; ????
    61d4:	ff ff       	.word	0xffff	; ????
    61d6:	ff ff       	.word	0xffff	; ????
    61d8:	ff ff       	.word	0xffff	; ????
    61da:	ff ff       	.word	0xffff	; ????
    61dc:	ff ff       	.word	0xffff	; ????
    61de:	ff ff       	.word	0xffff	; ????
    61e0:	ff ff       	.word	0xffff	; ????
    61e2:	ff ff       	.word	0xffff	; ????
    61e4:	ff ff       	.word	0xffff	; ????
    61e6:	ff ff       	.word	0xffff	; ????
    61e8:	ff ff       	.word	0xffff	; ????
    61ea:	ff ff       	.word	0xffff	; ????
    61ec:	ff ff       	.word	0xffff	; ????
    61ee:	ff ff       	.word	0xffff	; ????
    61f0:	ff ff       	.word	0xffff	; ????
    61f2:	ff ff       	.word	0xffff	; ????
    61f4:	ff ff       	.word	0xffff	; ????
    61f6:	ff ff       	.word	0xffff	; ????
    61f8:	ff ff       	.word	0xffff	; ????
    61fa:	ff ff       	.word	0xffff	; ????
    61fc:	ff ff       	.word	0xffff	; ????
    61fe:	ff ff       	.word	0xffff	; ????
    6200:	ff ff       	.word	0xffff	; ????
    6202:	ff ff       	.word	0xffff	; ????
    6204:	ff ff       	.word	0xffff	; ????
    6206:	ff ff       	.word	0xffff	; ????
    6208:	ff ff       	.word	0xffff	; ????
    620a:	ff ff       	.word	0xffff	; ????
    620c:	ff ff       	.word	0xffff	; ????
    620e:	ff ff       	.word	0xffff	; ????
    6210:	ff ff       	.word	0xffff	; ????
    6212:	ff ff       	.word	0xffff	; ????
    6214:	ff ff       	.word	0xffff	; ????
    6216:	ff ff       	.word	0xffff	; ????
    6218:	ff ff       	.word	0xffff	; ????
    621a:	ff ff       	.word	0xffff	; ????
    621c:	ff ff       	.word	0xffff	; ????
    621e:	ff ff       	.word	0xffff	; ????
    6220:	ff ff       	.word	0xffff	; ????
    6222:	ff ff       	.word	0xffff	; ????
    6224:	ff ff       	.word	0xffff	; ????
    6226:	ff ff       	.word	0xffff	; ????
    6228:	ff ff       	.word	0xffff	; ????
    622a:	ff ff       	.word	0xffff	; ????
    622c:	ff ff       	.word	0xffff	; ????
    622e:	ff ff       	.word	0xffff	; ????
    6230:	ff ff       	.word	0xffff	; ????
    6232:	ff ff       	.word	0xffff	; ????
    6234:	ff ff       	.word	0xffff	; ????
    6236:	ff ff       	.word	0xffff	; ????
    6238:	ff ff       	.word	0xffff	; ????
    623a:	ff ff       	.word	0xffff	; ????
    623c:	ff ff       	.word	0xffff	; ????
    623e:	ff ff       	.word	0xffff	; ????
    6240:	ff ff       	.word	0xffff	; ????
    6242:	ff ff       	.word	0xffff	; ????
    6244:	ff ff       	.word	0xffff	; ????
    6246:	ff ff       	.word	0xffff	; ????
    6248:	ff ff       	.word	0xffff	; ????
    624a:	ff ff       	.word	0xffff	; ????
    624c:	ff ff       	.word	0xffff	; ????
    624e:	ff ff       	.word	0xffff	; ????
    6250:	ff ff       	.word	0xffff	; ????
    6252:	ff ff       	.word	0xffff	; ????
    6254:	ff ff       	.word	0xffff	; ????
    6256:	ff ff       	.word	0xffff	; ????
    6258:	ff ff       	.word	0xffff	; ????
    625a:	ff ff       	.word	0xffff	; ????
    625c:	ff ff       	.word	0xffff	; ????
    625e:	ff ff       	.word	0xffff	; ????
    6260:	ff ff       	.word	0xffff	; ????
    6262:	ff ff       	.word	0xffff	; ????
    6264:	ff ff       	.word	0xffff	; ????
    6266:	ff ff       	.word	0xffff	; ????
    6268:	ff ff       	.word	0xffff	; ????
    626a:	ff ff       	.word	0xffff	; ????
    626c:	ff ff       	.word	0xffff	; ????
    626e:	ff ff       	.word	0xffff	; ????
    6270:	ff ff       	.word	0xffff	; ????
    6272:	ff ff       	.word	0xffff	; ????
    6274:	ff ff       	.word	0xffff	; ????
    6276:	ff ff       	.word	0xffff	; ????
    6278:	ff ff       	.word	0xffff	; ????
    627a:	ff ff       	.word	0xffff	; ????
    627c:	ff ff       	.word	0xffff	; ????
    627e:	ff ff       	.word	0xffff	; ????
    6280:	ff ff       	.word	0xffff	; ????
    6282:	ff ff       	.word	0xffff	; ????
    6284:	ff ff       	.word	0xffff	; ????
    6286:	ff ff       	.word	0xffff	; ????
    6288:	ff ff       	.word	0xffff	; ????
    628a:	ff ff       	.word	0xffff	; ????
    628c:	ff ff       	.word	0xffff	; ????
    628e:	ff ff       	.word	0xffff	; ????
    6290:	ff ff       	.word	0xffff	; ????
    6292:	ff ff       	.word	0xffff	; ????
    6294:	ff ff       	.word	0xffff	; ????
    6296:	ff ff       	.word	0xffff	; ????
    6298:	ff ff       	.word	0xffff	; ????
    629a:	ff ff       	.word	0xffff	; ????
    629c:	ff ff       	.word	0xffff	; ????
    629e:	ff ff       	.word	0xffff	; ????
    62a0:	ff ff       	.word	0xffff	; ????
    62a2:	ff ff       	.word	0xffff	; ????
    62a4:	ff ff       	.word	0xffff	; ????
    62a6:	ff ff       	.word	0xffff	; ????
    62a8:	ff ff       	.word	0xffff	; ????
    62aa:	ff ff       	.word	0xffff	; ????
    62ac:	ff ff       	.word	0xffff	; ????
    62ae:	ff ff       	.word	0xffff	; ????
    62b0:	ff ff       	.word	0xffff	; ????
    62b2:	ff ff       	.word	0xffff	; ????
    62b4:	ff ff       	.word	0xffff	; ????
    62b6:	ff ff       	.word	0xffff	; ????
    62b8:	ff ff       	.word	0xffff	; ????
    62ba:	ff ff       	.word	0xffff	; ????
    62bc:	ff ff       	.word	0xffff	; ????
    62be:	ff ff       	.word	0xffff	; ????
    62c0:	ff ff       	.word	0xffff	; ????
    62c2:	ff ff       	.word	0xffff	; ????
    62c4:	ff ff       	.word	0xffff	; ????
    62c6:	ff ff       	.word	0xffff	; ????
    62c8:	ff ff       	.word	0xffff	; ????
    62ca:	ff ff       	.word	0xffff	; ????
    62cc:	ff ff       	.word	0xffff	; ????
    62ce:	ff ff       	.word	0xffff	; ????
    62d0:	ff ff       	.word	0xffff	; ????
    62d2:	ff ff       	.word	0xffff	; ????
    62d4:	ff ff       	.word	0xffff	; ????
    62d6:	ff ff       	.word	0xffff	; ????
    62d8:	ff ff       	.word	0xffff	; ????
    62da:	ff ff       	.word	0xffff	; ????
    62dc:	ff ff       	.word	0xffff	; ????
    62de:	ff ff       	.word	0xffff	; ????
    62e0:	ff ff       	.word	0xffff	; ????
    62e2:	ff ff       	.word	0xffff	; ????
    62e4:	ff ff       	.word	0xffff	; ????
    62e6:	ff ff       	.word	0xffff	; ????
    62e8:	ff ff       	.word	0xffff	; ????
    62ea:	ff ff       	.word	0xffff	; ????
    62ec:	ff ff       	.word	0xffff	; ????
    62ee:	ff ff       	.word	0xffff	; ????
    62f0:	ff ff       	.word	0xffff	; ????
    62f2:	ff ff       	.word	0xffff	; ????
    62f4:	ff ff       	.word	0xffff	; ????
    62f6:	ff ff       	.word	0xffff	; ????
    62f8:	ff ff       	.word	0xffff	; ????
    62fa:	ff ff       	.word	0xffff	; ????
    62fc:	ff ff       	.word	0xffff	; ????
    62fe:	ff ff       	.word	0xffff	; ????
    6300:	ff ff       	.word	0xffff	; ????
    6302:	ff ff       	.word	0xffff	; ????
    6304:	ff ff       	.word	0xffff	; ????
    6306:	ff ff       	.word	0xffff	; ????
    6308:	ff ff       	.word	0xffff	; ????
    630a:	ff ff       	.word	0xffff	; ????
    630c:	ff ff       	.word	0xffff	; ????
    630e:	ff ff       	.word	0xffff	; ????
    6310:	ff ff       	.word	0xffff	; ????
    6312:	ff ff       	.word	0xffff	; ????
    6314:	ff ff       	.word	0xffff	; ????
    6316:	ff ff       	.word	0xffff	; ????
    6318:	ff ff       	.word	0xffff	; ????
    631a:	ff ff       	.word	0xffff	; ????
    631c:	ff ff       	.word	0xffff	; ????
    631e:	ff ff       	.word	0xffff	; ????
    6320:	ff ff       	.word	0xffff	; ????
    6322:	ff ff       	.word	0xffff	; ????
    6324:	ff ff       	.word	0xffff	; ????
    6326:	ff ff       	.word	0xffff	; ????
    6328:	ff ff       	.word	0xffff	; ????
    632a:	ff ff       	.word	0xffff	; ????
    632c:	ff ff       	.word	0xffff	; ????
    632e:	ff ff       	.word	0xffff	; ????
    6330:	ff ff       	.word	0xffff	; ????
    6332:	ff ff       	.word	0xffff	; ????
    6334:	ff ff       	.word	0xffff	; ????
    6336:	ff ff       	.word	0xffff	; ????
    6338:	ff ff       	.word	0xffff	; ????
    633a:	ff ff       	.word	0xffff	; ????
    633c:	ff ff       	.word	0xffff	; ????
    633e:	ff ff       	.word	0xffff	; ????
    6340:	ff ff       	.word	0xffff	; ????
    6342:	ff ff       	.word	0xffff	; ????
    6344:	ff ff       	.word	0xffff	; ????
    6346:	ff ff       	.word	0xffff	; ????
    6348:	ff ff       	.word	0xffff	; ????
    634a:	ff ff       	.word	0xffff	; ????
    634c:	ff ff       	.word	0xffff	; ????
    634e:	ff ff       	.word	0xffff	; ????
    6350:	ff ff       	.word	0xffff	; ????
    6352:	ff ff       	.word	0xffff	; ????
    6354:	ff ff       	.word	0xffff	; ????
    6356:	ff ff       	.word	0xffff	; ????
    6358:	ff ff       	.word	0xffff	; ????
    635a:	ff ff       	.word	0xffff	; ????
    635c:	ff ff       	.word	0xffff	; ????
    635e:	ff ff       	.word	0xffff	; ????
    6360:	ff ff       	.word	0xffff	; ????
    6362:	ff ff       	.word	0xffff	; ????
    6364:	ff ff       	.word	0xffff	; ????
    6366:	ff ff       	.word	0xffff	; ????
    6368:	ff ff       	.word	0xffff	; ????
    636a:	ff ff       	.word	0xffff	; ????
    636c:	ff ff       	.word	0xffff	; ????
    636e:	ff ff       	.word	0xffff	; ????
    6370:	ff ff       	.word	0xffff	; ????
    6372:	ff ff       	.word	0xffff	; ????
    6374:	ff ff       	.word	0xffff	; ????
    6376:	ff ff       	.word	0xffff	; ????
    6378:	ff ff       	.word	0xffff	; ????
    637a:	ff ff       	.word	0xffff	; ????
    637c:	ff ff       	.word	0xffff	; ????
    637e:	ff ff       	.word	0xffff	; ????
    6380:	ff ff       	.word	0xffff	; ????
    6382:	ff ff       	.word	0xffff	; ????
    6384:	ff ff       	.word	0xffff	; ????
    6386:	ff ff       	.word	0xffff	; ????
    6388:	ff ff       	.word	0xffff	; ????
    638a:	ff ff       	.word	0xffff	; ????
    638c:	ff ff       	.word	0xffff	; ????
    638e:	ff ff       	.word	0xffff	; ????
    6390:	ff ff       	.word	0xffff	; ????
    6392:	ff ff       	.word	0xffff	; ????
    6394:	ff ff       	.word	0xffff	; ????
    6396:	ff ff       	.word	0xffff	; ????
    6398:	ff ff       	.word	0xffff	; ????
    639a:	ff ff       	.word	0xffff	; ????
    639c:	ff ff       	.word	0xffff	; ????
    639e:	ff ff       	.word	0xffff	; ????
    63a0:	ff ff       	.word	0xffff	; ????
    63a2:	ff ff       	.word	0xffff	; ????
    63a4:	ff ff       	.word	0xffff	; ????
    63a6:	ff ff       	.word	0xffff	; ????
    63a8:	ff ff       	.word	0xffff	; ????
    63aa:	ff ff       	.word	0xffff	; ????
    63ac:	ff ff       	.word	0xffff	; ????
    63ae:	ff ff       	.word	0xffff	; ????
    63b0:	ff ff       	.word	0xffff	; ????
    63b2:	ff ff       	.word	0xffff	; ????
    63b4:	ff ff       	.word	0xffff	; ????
    63b6:	ff ff       	.word	0xffff	; ????
    63b8:	ff ff       	.word	0xffff	; ????
    63ba:	ff ff       	.word	0xffff	; ????
    63bc:	ff ff       	.word	0xffff	; ????
    63be:	ff ff       	.word	0xffff	; ????
    63c0:	ff ff       	.word	0xffff	; ????
    63c2:	ff ff       	.word	0xffff	; ????
    63c4:	ff ff       	.word	0xffff	; ????
    63c6:	ff ff       	.word	0xffff	; ????
    63c8:	ff ff       	.word	0xffff	; ????
    63ca:	ff ff       	.word	0xffff	; ????
    63cc:	ff ff       	.word	0xffff	; ????
    63ce:	ff ff       	.word	0xffff	; ????
    63d0:	ff ff       	.word	0xffff	; ????
    63d2:	ff ff       	.word	0xffff	; ????
    63d4:	ff ff       	.word	0xffff	; ????
    63d6:	ff ff       	.word	0xffff	; ????
    63d8:	ff ff       	.word	0xffff	; ????
    63da:	ff ff       	.word	0xffff	; ????
    63dc:	ff ff       	.word	0xffff	; ????
    63de:	ff ff       	.word	0xffff	; ????
    63e0:	ff ff       	.word	0xffff	; ????
    63e2:	ff ff       	.word	0xffff	; ????
    63e4:	ff ff       	.word	0xffff	; ????
    63e6:	ff ff       	.word	0xffff	; ????
    63e8:	ff ff       	.word	0xffff	; ????
    63ea:	ff ff       	.word	0xffff	; ????
    63ec:	ff ff       	.word	0xffff	; ????
    63ee:	ff ff       	.word	0xffff	; ????
    63f0:	ff ff       	.word	0xffff	; ????
    63f2:	ff ff       	.word	0xffff	; ????
    63f4:	ff ff       	.word	0xffff	; ????
    63f6:	ff ff       	.word	0xffff	; ????
    63f8:	ff ff       	.word	0xffff	; ????
    63fa:	ff ff       	.word	0xffff	; ????
    63fc:	ff ff       	.word	0xffff	; ????
    63fe:	ff ff       	.word	0xffff	; ????
    6400:	ff ff       	.word	0xffff	; ????
    6402:	ff ff       	.word	0xffff	; ????
    6404:	ff ff       	.word	0xffff	; ????
    6406:	ff ff       	.word	0xffff	; ????
    6408:	ff ff       	.word	0xffff	; ????
    640a:	ff ff       	.word	0xffff	; ????
    640c:	ff ff       	.word	0xffff	; ????
    640e:	ff ff       	.word	0xffff	; ????
    6410:	ff ff       	.word	0xffff	; ????
    6412:	ff ff       	.word	0xffff	; ????
    6414:	ff ff       	.word	0xffff	; ????
    6416:	ff ff       	.word	0xffff	; ????
    6418:	ff ff       	.word	0xffff	; ????
    641a:	ff ff       	.word	0xffff	; ????
    641c:	ff ff       	.word	0xffff	; ????
    641e:	ff ff       	.word	0xffff	; ????
    6420:	ff ff       	.word	0xffff	; ????
    6422:	ff ff       	.word	0xffff	; ????
    6424:	ff ff       	.word	0xffff	; ????
    6426:	ff ff       	.word	0xffff	; ????
    6428:	ff ff       	.word	0xffff	; ????
    642a:	ff ff       	.word	0xffff	; ????
    642c:	ff ff       	.word	0xffff	; ????
    642e:	ff ff       	.word	0xffff	; ????
    6430:	ff ff       	.word	0xffff	; ????
    6432:	ff ff       	.word	0xffff	; ????
    6434:	ff ff       	.word	0xffff	; ????
    6436:	ff ff       	.word	0xffff	; ????
    6438:	ff ff       	.word	0xffff	; ????
    643a:	ff ff       	.word	0xffff	; ????
    643c:	ff ff       	.word	0xffff	; ????
    643e:	ff ff       	.word	0xffff	; ????
    6440:	ff ff       	.word	0xffff	; ????
    6442:	ff ff       	.word	0xffff	; ????
    6444:	ff ff       	.word	0xffff	; ????
    6446:	ff ff       	.word	0xffff	; ????
    6448:	ff ff       	.word	0xffff	; ????
    644a:	ff ff       	.word	0xffff	; ????
    644c:	ff ff       	.word	0xffff	; ????
    644e:	ff ff       	.word	0xffff	; ????
    6450:	ff ff       	.word	0xffff	; ????
    6452:	ff ff       	.word	0xffff	; ????
    6454:	ff ff       	.word	0xffff	; ????
    6456:	ff ff       	.word	0xffff	; ????
    6458:	ff ff       	.word	0xffff	; ????
    645a:	ff ff       	.word	0xffff	; ????
    645c:	ff ff       	.word	0xffff	; ????
    645e:	ff ff       	.word	0xffff	; ????
    6460:	ff ff       	.word	0xffff	; ????
    6462:	ff ff       	.word	0xffff	; ????
    6464:	ff ff       	.word	0xffff	; ????
    6466:	ff ff       	.word	0xffff	; ????
    6468:	ff ff       	.word	0xffff	; ????
    646a:	ff ff       	.word	0xffff	; ????
    646c:	ff ff       	.word	0xffff	; ????
    646e:	ff ff       	.word	0xffff	; ????
    6470:	ff ff       	.word	0xffff	; ????
    6472:	ff ff       	.word	0xffff	; ????
    6474:	ff ff       	.word	0xffff	; ????
    6476:	ff ff       	.word	0xffff	; ????
    6478:	ff ff       	.word	0xffff	; ????
    647a:	ff ff       	.word	0xffff	; ????
    647c:	ff ff       	.word	0xffff	; ????
    647e:	ff ff       	.word	0xffff	; ????
    6480:	ff ff       	.word	0xffff	; ????
    6482:	ff ff       	.word	0xffff	; ????
    6484:	ff ff       	.word	0xffff	; ????
    6486:	ff ff       	.word	0xffff	; ????
    6488:	ff ff       	.word	0xffff	; ????
    648a:	ff ff       	.word	0xffff	; ????
    648c:	ff ff       	.word	0xffff	; ????
    648e:	ff ff       	.word	0xffff	; ????
    6490:	ff ff       	.word	0xffff	; ????
    6492:	ff ff       	.word	0xffff	; ????
    6494:	ff ff       	.word	0xffff	; ????
    6496:	ff ff       	.word	0xffff	; ????
    6498:	ff ff       	.word	0xffff	; ????
    649a:	ff ff       	.word	0xffff	; ????
    649c:	ff ff       	.word	0xffff	; ????
    649e:	ff ff       	.word	0xffff	; ????
    64a0:	ff ff       	.word	0xffff	; ????
    64a2:	ff ff       	.word	0xffff	; ????
    64a4:	ff ff       	.word	0xffff	; ????
    64a6:	ff ff       	.word	0xffff	; ????
    64a8:	ff ff       	.word	0xffff	; ????
    64aa:	ff ff       	.word	0xffff	; ????
    64ac:	ff ff       	.word	0xffff	; ????
    64ae:	ff ff       	.word	0xffff	; ????
    64b0:	ff ff       	.word	0xffff	; ????
    64b2:	ff ff       	.word	0xffff	; ????
    64b4:	ff ff       	.word	0xffff	; ????
    64b6:	ff ff       	.word	0xffff	; ????
    64b8:	ff ff       	.word	0xffff	; ????
    64ba:	ff ff       	.word	0xffff	; ????
    64bc:	ff ff       	.word	0xffff	; ????
    64be:	ff ff       	.word	0xffff	; ????
    64c0:	ff ff       	.word	0xffff	; ????
    64c2:	ff ff       	.word	0xffff	; ????
    64c4:	ff ff       	.word	0xffff	; ????
    64c6:	ff ff       	.word	0xffff	; ????
    64c8:	ff ff       	.word	0xffff	; ????
    64ca:	ff ff       	.word	0xffff	; ????
    64cc:	ff ff       	.word	0xffff	; ????
    64ce:	ff ff       	.word	0xffff	; ????
    64d0:	ff ff       	.word	0xffff	; ????
    64d2:	ff ff       	.word	0xffff	; ????
    64d4:	ff ff       	.word	0xffff	; ????
    64d6:	ff ff       	.word	0xffff	; ????
    64d8:	ff ff       	.word	0xffff	; ????
    64da:	ff ff       	.word	0xffff	; ????
    64dc:	ff ff       	.word	0xffff	; ????
    64de:	ff ff       	.word	0xffff	; ????
    64e0:	ff ff       	.word	0xffff	; ????
    64e2:	ff ff       	.word	0xffff	; ????
    64e4:	ff ff       	.word	0xffff	; ????
    64e6:	ff ff       	.word	0xffff	; ????
    64e8:	ff ff       	.word	0xffff	; ????
    64ea:	ff ff       	.word	0xffff	; ????
    64ec:	ff ff       	.word	0xffff	; ????
    64ee:	ff ff       	.word	0xffff	; ????
    64f0:	ff ff       	.word	0xffff	; ????
    64f2:	ff ff       	.word	0xffff	; ????
    64f4:	ff ff       	.word	0xffff	; ????
    64f6:	ff ff       	.word	0xffff	; ????
    64f8:	ff ff       	.word	0xffff	; ????
    64fa:	ff ff       	.word	0xffff	; ????
    64fc:	ff ff       	.word	0xffff	; ????
    64fe:	ff ff       	.word	0xffff	; ????
    6500:	ff ff       	.word	0xffff	; ????
    6502:	ff ff       	.word	0xffff	; ????
    6504:	ff ff       	.word	0xffff	; ????
    6506:	ff ff       	.word	0xffff	; ????
    6508:	ff ff       	.word	0xffff	; ????
    650a:	ff ff       	.word	0xffff	; ????
    650c:	ff ff       	.word	0xffff	; ????
    650e:	ff ff       	.word	0xffff	; ????
    6510:	ff ff       	.word	0xffff	; ????
    6512:	ff ff       	.word	0xffff	; ????
    6514:	ff ff       	.word	0xffff	; ????
    6516:	ff ff       	.word	0xffff	; ????
    6518:	ff ff       	.word	0xffff	; ????
    651a:	ff ff       	.word	0xffff	; ????
    651c:	ff ff       	.word	0xffff	; ????
    651e:	ff ff       	.word	0xffff	; ????
    6520:	ff ff       	.word	0xffff	; ????
    6522:	ff ff       	.word	0xffff	; ????
    6524:	ff ff       	.word	0xffff	; ????
    6526:	ff ff       	.word	0xffff	; ????
    6528:	ff ff       	.word	0xffff	; ????
    652a:	ff ff       	.word	0xffff	; ????
    652c:	ff ff       	.word	0xffff	; ????
    652e:	ff ff       	.word	0xffff	; ????
    6530:	ff ff       	.word	0xffff	; ????
    6532:	ff ff       	.word	0xffff	; ????
    6534:	ff ff       	.word	0xffff	; ????
    6536:	ff ff       	.word	0xffff	; ????
    6538:	ff ff       	.word	0xffff	; ????
    653a:	ff ff       	.word	0xffff	; ????
    653c:	ff ff       	.word	0xffff	; ????
    653e:	ff ff       	.word	0xffff	; ????
    6540:	ff ff       	.word	0xffff	; ????
    6542:	ff ff       	.word	0xffff	; ????
    6544:	ff ff       	.word	0xffff	; ????
    6546:	ff ff       	.word	0xffff	; ????
    6548:	ff ff       	.word	0xffff	; ????
    654a:	ff ff       	.word	0xffff	; ????
    654c:	ff ff       	.word	0xffff	; ????
    654e:	ff ff       	.word	0xffff	; ????
    6550:	ff ff       	.word	0xffff	; ????
    6552:	ff ff       	.word	0xffff	; ????
    6554:	ff ff       	.word	0xffff	; ????
    6556:	ff ff       	.word	0xffff	; ????
    6558:	ff ff       	.word	0xffff	; ????
    655a:	ff ff       	.word	0xffff	; ????
    655c:	ff ff       	.word	0xffff	; ????
    655e:	ff ff       	.word	0xffff	; ????
    6560:	ff ff       	.word	0xffff	; ????
    6562:	ff ff       	.word	0xffff	; ????
    6564:	ff ff       	.word	0xffff	; ????
    6566:	ff ff       	.word	0xffff	; ????
    6568:	ff ff       	.word	0xffff	; ????
    656a:	ff ff       	.word	0xffff	; ????
    656c:	ff ff       	.word	0xffff	; ????
    656e:	ff ff       	.word	0xffff	; ????
    6570:	ff ff       	.word	0xffff	; ????
    6572:	ff ff       	.word	0xffff	; ????
    6574:	ff ff       	.word	0xffff	; ????
    6576:	ff ff       	.word	0xffff	; ????
    6578:	ff ff       	.word	0xffff	; ????
    657a:	ff ff       	.word	0xffff	; ????
    657c:	ff ff       	.word	0xffff	; ????
    657e:	ff ff       	.word	0xffff	; ????
    6580:	ff ff       	.word	0xffff	; ????
    6582:	ff ff       	.word	0xffff	; ????
    6584:	ff ff       	.word	0xffff	; ????
    6586:	ff ff       	.word	0xffff	; ????
    6588:	ff ff       	.word	0xffff	; ????
    658a:	ff ff       	.word	0xffff	; ????
    658c:	ff ff       	.word	0xffff	; ????
    658e:	ff ff       	.word	0xffff	; ????
    6590:	ff ff       	.word	0xffff	; ????
    6592:	ff ff       	.word	0xffff	; ????
    6594:	ff ff       	.word	0xffff	; ????
    6596:	ff ff       	.word	0xffff	; ????
    6598:	ff ff       	.word	0xffff	; ????
    659a:	ff ff       	.word	0xffff	; ????
    659c:	ff ff       	.word	0xffff	; ????
    659e:	ff ff       	.word	0xffff	; ????
    65a0:	ff ff       	.word	0xffff	; ????
    65a2:	ff ff       	.word	0xffff	; ????
    65a4:	ff ff       	.word	0xffff	; ????
    65a6:	ff ff       	.word	0xffff	; ????
    65a8:	ff ff       	.word	0xffff	; ????
    65aa:	ff ff       	.word	0xffff	; ????
    65ac:	ff ff       	.word	0xffff	; ????
    65ae:	ff ff       	.word	0xffff	; ????
    65b0:	ff ff       	.word	0xffff	; ????
    65b2:	ff ff       	.word	0xffff	; ????
    65b4:	ff ff       	.word	0xffff	; ????
    65b6:	ff ff       	.word	0xffff	; ????
    65b8:	ff ff       	.word	0xffff	; ????
    65ba:	ff ff       	.word	0xffff	; ????
    65bc:	ff ff       	.word	0xffff	; ????
    65be:	ff ff       	.word	0xffff	; ????
    65c0:	ff ff       	.word	0xffff	; ????
    65c2:	ff ff       	.word	0xffff	; ????
    65c4:	ff ff       	.word	0xffff	; ????
    65c6:	ff ff       	.word	0xffff	; ????
    65c8:	ff ff       	.word	0xffff	; ????
    65ca:	ff ff       	.word	0xffff	; ????
    65cc:	ff ff       	.word	0xffff	; ????
    65ce:	ff ff       	.word	0xffff	; ????
    65d0:	ff ff       	.word	0xffff	; ????
    65d2:	ff ff       	.word	0xffff	; ????
    65d4:	ff ff       	.word	0xffff	; ????
    65d6:	ff ff       	.word	0xffff	; ????
    65d8:	ff ff       	.word	0xffff	; ????
    65da:	ff ff       	.word	0xffff	; ????
    65dc:	ff ff       	.word	0xffff	; ????
    65de:	ff ff       	.word	0xffff	; ????
    65e0:	ff ff       	.word	0xffff	; ????
    65e2:	ff ff       	.word	0xffff	; ????
    65e4:	ff ff       	.word	0xffff	; ????
    65e6:	ff ff       	.word	0xffff	; ????
    65e8:	ff ff       	.word	0xffff	; ????
    65ea:	ff ff       	.word	0xffff	; ????
    65ec:	ff ff       	.word	0xffff	; ????
    65ee:	ff ff       	.word	0xffff	; ????
    65f0:	ff ff       	.word	0xffff	; ????
    65f2:	ff ff       	.word	0xffff	; ????
    65f4:	ff ff       	.word	0xffff	; ????
    65f6:	ff ff       	.word	0xffff	; ????
    65f8:	ff ff       	.word	0xffff	; ????
    65fa:	ff ff       	.word	0xffff	; ????
    65fc:	ff ff       	.word	0xffff	; ????
    65fe:	ff ff       	.word	0xffff	; ????
    6600:	ff ff       	.word	0xffff	; ????
    6602:	ff ff       	.word	0xffff	; ????
    6604:	ff ff       	.word	0xffff	; ????
    6606:	ff ff       	.word	0xffff	; ????
    6608:	ff ff       	.word	0xffff	; ????
    660a:	ff ff       	.word	0xffff	; ????
    660c:	ff ff       	.word	0xffff	; ????
    660e:	ff ff       	.word	0xffff	; ????
    6610:	ff ff       	.word	0xffff	; ????
    6612:	ff ff       	.word	0xffff	; ????
    6614:	ff ff       	.word	0xffff	; ????
    6616:	ff ff       	.word	0xffff	; ????
    6618:	ff ff       	.word	0xffff	; ????
    661a:	ff ff       	.word	0xffff	; ????
    661c:	ff ff       	.word	0xffff	; ????
    661e:	ff ff       	.word	0xffff	; ????
    6620:	ff ff       	.word	0xffff	; ????
    6622:	ff ff       	.word	0xffff	; ????
    6624:	ff ff       	.word	0xffff	; ????
    6626:	ff ff       	.word	0xffff	; ????
    6628:	ff ff       	.word	0xffff	; ????
    662a:	ff ff       	.word	0xffff	; ????
    662c:	ff ff       	.word	0xffff	; ????
    662e:	ff ff       	.word	0xffff	; ????
    6630:	ff ff       	.word	0xffff	; ????
    6632:	ff ff       	.word	0xffff	; ????
    6634:	ff ff       	.word	0xffff	; ????
    6636:	ff ff       	.word	0xffff	; ????
    6638:	ff ff       	.word	0xffff	; ????
    663a:	ff ff       	.word	0xffff	; ????
    663c:	ff ff       	.word	0xffff	; ????
    663e:	ff ff       	.word	0xffff	; ????
    6640:	ff ff       	.word	0xffff	; ????
    6642:	ff ff       	.word	0xffff	; ????
    6644:	ff ff       	.word	0xffff	; ????
    6646:	ff ff       	.word	0xffff	; ????
    6648:	ff ff       	.word	0xffff	; ????
    664a:	ff ff       	.word	0xffff	; ????
    664c:	ff ff       	.word	0xffff	; ????
    664e:	ff ff       	.word	0xffff	; ????
    6650:	ff ff       	.word	0xffff	; ????
    6652:	ff ff       	.word	0xffff	; ????
    6654:	ff ff       	.word	0xffff	; ????
    6656:	ff ff       	.word	0xffff	; ????
    6658:	ff ff       	.word	0xffff	; ????
    665a:	ff ff       	.word	0xffff	; ????
    665c:	ff ff       	.word	0xffff	; ????
    665e:	ff ff       	.word	0xffff	; ????
    6660:	ff ff       	.word	0xffff	; ????
    6662:	ff ff       	.word	0xffff	; ????
    6664:	ff ff       	.word	0xffff	; ????
    6666:	ff ff       	.word	0xffff	; ????
    6668:	ff ff       	.word	0xffff	; ????
    666a:	ff ff       	.word	0xffff	; ????
    666c:	ff ff       	.word	0xffff	; ????
    666e:	ff ff       	.word	0xffff	; ????
    6670:	ff ff       	.word	0xffff	; ????
    6672:	ff ff       	.word	0xffff	; ????
    6674:	ff ff       	.word	0xffff	; ????
    6676:	ff ff       	.word	0xffff	; ????
    6678:	ff ff       	.word	0xffff	; ????
    667a:	ff ff       	.word	0xffff	; ????
    667c:	ff ff       	.word	0xffff	; ????
    667e:	ff ff       	.word	0xffff	; ????
    6680:	ff ff       	.word	0xffff	; ????
    6682:	ff ff       	.word	0xffff	; ????
    6684:	ff ff       	.word	0xffff	; ????
    6686:	ff ff       	.word	0xffff	; ????
    6688:	ff ff       	.word	0xffff	; ????
    668a:	ff ff       	.word	0xffff	; ????
    668c:	ff ff       	.word	0xffff	; ????
    668e:	ff ff       	.word	0xffff	; ????
    6690:	ff ff       	.word	0xffff	; ????
    6692:	ff ff       	.word	0xffff	; ????
    6694:	ff ff       	.word	0xffff	; ????
    6696:	ff ff       	.word	0xffff	; ????
    6698:	ff ff       	.word	0xffff	; ????
    669a:	ff ff       	.word	0xffff	; ????
    669c:	ff ff       	.word	0xffff	; ????
    669e:	ff ff       	.word	0xffff	; ????
    66a0:	ff ff       	.word	0xffff	; ????
    66a2:	ff ff       	.word	0xffff	; ????
    66a4:	ff ff       	.word	0xffff	; ????
    66a6:	ff ff       	.word	0xffff	; ????
    66a8:	ff ff       	.word	0xffff	; ????
    66aa:	ff ff       	.word	0xffff	; ????
    66ac:	ff ff       	.word	0xffff	; ????
    66ae:	ff ff       	.word	0xffff	; ????
    66b0:	ff ff       	.word	0xffff	; ????
    66b2:	ff ff       	.word	0xffff	; ????
    66b4:	ff ff       	.word	0xffff	; ????
    66b6:	ff ff       	.word	0xffff	; ????
    66b8:	ff ff       	.word	0xffff	; ????
    66ba:	ff ff       	.word	0xffff	; ????
    66bc:	ff ff       	.word	0xffff	; ????
    66be:	ff ff       	.word	0xffff	; ????
    66c0:	ff ff       	.word	0xffff	; ????
    66c2:	ff ff       	.word	0xffff	; ????
    66c4:	ff ff       	.word	0xffff	; ????
    66c6:	ff ff       	.word	0xffff	; ????
    66c8:	ff ff       	.word	0xffff	; ????
    66ca:	ff ff       	.word	0xffff	; ????
    66cc:	ff ff       	.word	0xffff	; ????
    66ce:	ff ff       	.word	0xffff	; ????
    66d0:	ff ff       	.word	0xffff	; ????
    66d2:	ff ff       	.word	0xffff	; ????
    66d4:	ff ff       	.word	0xffff	; ????
    66d6:	ff ff       	.word	0xffff	; ????
    66d8:	ff ff       	.word	0xffff	; ????
    66da:	ff ff       	.word	0xffff	; ????
    66dc:	ff ff       	.word	0xffff	; ????
    66de:	ff ff       	.word	0xffff	; ????
    66e0:	ff ff       	.word	0xffff	; ????
    66e2:	ff ff       	.word	0xffff	; ????
    66e4:	ff ff       	.word	0xffff	; ????
    66e6:	ff ff       	.word	0xffff	; ????
    66e8:	ff ff       	.word	0xffff	; ????
    66ea:	ff ff       	.word	0xffff	; ????
    66ec:	ff ff       	.word	0xffff	; ????
    66ee:	ff ff       	.word	0xffff	; ????
    66f0:	ff ff       	.word	0xffff	; ????
    66f2:	ff ff       	.word	0xffff	; ????
    66f4:	ff ff       	.word	0xffff	; ????
    66f6:	ff ff       	.word	0xffff	; ????
    66f8:	ff ff       	.word	0xffff	; ????
    66fa:	ff ff       	.word	0xffff	; ????
    66fc:	ff ff       	.word	0xffff	; ????
    66fe:	ff ff       	.word	0xffff	; ????
    6700:	ff ff       	.word	0xffff	; ????
    6702:	ff ff       	.word	0xffff	; ????
    6704:	ff ff       	.word	0xffff	; ????
    6706:	ff ff       	.word	0xffff	; ????
    6708:	ff ff       	.word	0xffff	; ????
    670a:	ff ff       	.word	0xffff	; ????
    670c:	ff ff       	.word	0xffff	; ????
    670e:	ff ff       	.word	0xffff	; ????
    6710:	ff ff       	.word	0xffff	; ????
    6712:	ff ff       	.word	0xffff	; ????
    6714:	ff ff       	.word	0xffff	; ????
    6716:	ff ff       	.word	0xffff	; ????
    6718:	ff ff       	.word	0xffff	; ????
    671a:	ff ff       	.word	0xffff	; ????
    671c:	ff ff       	.word	0xffff	; ????
    671e:	ff ff       	.word	0xffff	; ????
    6720:	ff ff       	.word	0xffff	; ????
    6722:	ff ff       	.word	0xffff	; ????
    6724:	ff ff       	.word	0xffff	; ????
    6726:	ff ff       	.word	0xffff	; ????
    6728:	ff ff       	.word	0xffff	; ????
    672a:	ff ff       	.word	0xffff	; ????
    672c:	ff ff       	.word	0xffff	; ????
    672e:	ff ff       	.word	0xffff	; ????
    6730:	ff ff       	.word	0xffff	; ????
    6732:	ff ff       	.word	0xffff	; ????
    6734:	ff ff       	.word	0xffff	; ????
    6736:	ff ff       	.word	0xffff	; ????
    6738:	ff ff       	.word	0xffff	; ????
    673a:	ff ff       	.word	0xffff	; ????
    673c:	ff ff       	.word	0xffff	; ????
    673e:	ff ff       	.word	0xffff	; ????
    6740:	ff ff       	.word	0xffff	; ????
    6742:	ff ff       	.word	0xffff	; ????
    6744:	ff ff       	.word	0xffff	; ????
    6746:	ff ff       	.word	0xffff	; ????
    6748:	ff ff       	.word	0xffff	; ????
    674a:	ff ff       	.word	0xffff	; ????
    674c:	ff ff       	.word	0xffff	; ????
    674e:	ff ff       	.word	0xffff	; ????
    6750:	ff ff       	.word	0xffff	; ????
    6752:	ff ff       	.word	0xffff	; ????
    6754:	ff ff       	.word	0xffff	; ????
    6756:	ff ff       	.word	0xffff	; ????
    6758:	ff ff       	.word	0xffff	; ????
    675a:	ff ff       	.word	0xffff	; ????
    675c:	ff ff       	.word	0xffff	; ????
    675e:	ff ff       	.word	0xffff	; ????
    6760:	ff ff       	.word	0xffff	; ????
    6762:	ff ff       	.word	0xffff	; ????
    6764:	ff ff       	.word	0xffff	; ????
    6766:	ff ff       	.word	0xffff	; ????
    6768:	ff ff       	.word	0xffff	; ????
    676a:	ff ff       	.word	0xffff	; ????
    676c:	ff ff       	.word	0xffff	; ????
    676e:	ff ff       	.word	0xffff	; ????
    6770:	ff ff       	.word	0xffff	; ????
    6772:	ff ff       	.word	0xffff	; ????
    6774:	ff ff       	.word	0xffff	; ????
    6776:	ff ff       	.word	0xffff	; ????
    6778:	ff ff       	.word	0xffff	; ????
    677a:	ff ff       	.word	0xffff	; ????
    677c:	ff ff       	.word	0xffff	; ????
    677e:	ff ff       	.word	0xffff	; ????
    6780:	ff ff       	.word	0xffff	; ????
    6782:	ff ff       	.word	0xffff	; ????
    6784:	ff ff       	.word	0xffff	; ????
    6786:	ff ff       	.word	0xffff	; ????
    6788:	ff ff       	.word	0xffff	; ????
    678a:	ff ff       	.word	0xffff	; ????
    678c:	ff ff       	.word	0xffff	; ????
    678e:	ff ff       	.word	0xffff	; ????
    6790:	ff ff       	.word	0xffff	; ????
    6792:	ff ff       	.word	0xffff	; ????
    6794:	ff ff       	.word	0xffff	; ????
    6796:	ff ff       	.word	0xffff	; ????
    6798:	ff ff       	.word	0xffff	; ????
    679a:	ff ff       	.word	0xffff	; ????
    679c:	ff ff       	.word	0xffff	; ????
    679e:	ff ff       	.word	0xffff	; ????
    67a0:	ff ff       	.word	0xffff	; ????
    67a2:	ff ff       	.word	0xffff	; ????
    67a4:	ff ff       	.word	0xffff	; ????
    67a6:	ff ff       	.word	0xffff	; ????
    67a8:	ff ff       	.word	0xffff	; ????
    67aa:	ff ff       	.word	0xffff	; ????
    67ac:	ff ff       	.word	0xffff	; ????
    67ae:	ff ff       	.word	0xffff	; ????
    67b0:	ff ff       	.word	0xffff	; ????
    67b2:	ff ff       	.word	0xffff	; ????
    67b4:	ff ff       	.word	0xffff	; ????
    67b6:	ff ff       	.word	0xffff	; ????
    67b8:	ff ff       	.word	0xffff	; ????
    67ba:	ff ff       	.word	0xffff	; ????
    67bc:	ff ff       	.word	0xffff	; ????
    67be:	ff ff       	.word	0xffff	; ????
    67c0:	ff ff       	.word	0xffff	; ????
    67c2:	ff ff       	.word	0xffff	; ????
    67c4:	ff ff       	.word	0xffff	; ????
    67c6:	ff ff       	.word	0xffff	; ????
    67c8:	ff ff       	.word	0xffff	; ????
    67ca:	ff ff       	.word	0xffff	; ????
    67cc:	ff ff       	.word	0xffff	; ????
    67ce:	ff ff       	.word	0xffff	; ????
    67d0:	ff ff       	.word	0xffff	; ????
    67d2:	ff ff       	.word	0xffff	; ????
    67d4:	ff ff       	.word	0xffff	; ????
    67d6:	ff ff       	.word	0xffff	; ????
    67d8:	ff ff       	.word	0xffff	; ????
    67da:	ff ff       	.word	0xffff	; ????
    67dc:	ff ff       	.word	0xffff	; ????
    67de:	ff ff       	.word	0xffff	; ????
    67e0:	ff ff       	.word	0xffff	; ????
    67e2:	ff ff       	.word	0xffff	; ????
    67e4:	ff ff       	.word	0xffff	; ????
    67e6:	ff ff       	.word	0xffff	; ????
    67e8:	ff ff       	.word	0xffff	; ????
    67ea:	ff ff       	.word	0xffff	; ????
    67ec:	ff ff       	.word	0xffff	; ????
    67ee:	ff ff       	.word	0xffff	; ????
    67f0:	ff ff       	.word	0xffff	; ????
    67f2:	ff ff       	.word	0xffff	; ????
    67f4:	ff ff       	.word	0xffff	; ????
    67f6:	ff ff       	.word	0xffff	; ????
    67f8:	ff ff       	.word	0xffff	; ????
    67fa:	ff ff       	.word	0xffff	; ????
    67fc:	ff ff       	.word	0xffff	; ????
    67fe:	ff ff       	.word	0xffff	; ????
    6800:	ff ff       	.word	0xffff	; ????
    6802:	ff ff       	.word	0xffff	; ????
    6804:	ff ff       	.word	0xffff	; ????
    6806:	ff ff       	.word	0xffff	; ????
    6808:	ff ff       	.word	0xffff	; ????
    680a:	ff ff       	.word	0xffff	; ????
    680c:	ff ff       	.word	0xffff	; ????
    680e:	ff ff       	.word	0xffff	; ????
    6810:	ff ff       	.word	0xffff	; ????
    6812:	ff ff       	.word	0xffff	; ????
    6814:	ff ff       	.word	0xffff	; ????
    6816:	ff ff       	.word	0xffff	; ????
    6818:	ff ff       	.word	0xffff	; ????
    681a:	ff ff       	.word	0xffff	; ????
    681c:	ff ff       	.word	0xffff	; ????
    681e:	ff ff       	.word	0xffff	; ????
    6820:	ff ff       	.word	0xffff	; ????
    6822:	ff ff       	.word	0xffff	; ????
    6824:	ff ff       	.word	0xffff	; ????
    6826:	ff ff       	.word	0xffff	; ????
    6828:	ff ff       	.word	0xffff	; ????
    682a:	ff ff       	.word	0xffff	; ????
    682c:	ff ff       	.word	0xffff	; ????
    682e:	ff ff       	.word	0xffff	; ????
    6830:	ff ff       	.word	0xffff	; ????
    6832:	ff ff       	.word	0xffff	; ????
    6834:	ff ff       	.word	0xffff	; ????
    6836:	ff ff       	.word	0xffff	; ????
    6838:	ff ff       	.word	0xffff	; ????
    683a:	ff ff       	.word	0xffff	; ????
    683c:	ff ff       	.word	0xffff	; ????
    683e:	ff ff       	.word	0xffff	; ????
    6840:	ff ff       	.word	0xffff	; ????
    6842:	ff ff       	.word	0xffff	; ????
    6844:	ff ff       	.word	0xffff	; ????
    6846:	ff ff       	.word	0xffff	; ????
    6848:	ff ff       	.word	0xffff	; ????
    684a:	ff ff       	.word	0xffff	; ????
    684c:	ff ff       	.word	0xffff	; ????
    684e:	ff ff       	.word	0xffff	; ????
    6850:	ff ff       	.word	0xffff	; ????
    6852:	ff ff       	.word	0xffff	; ????
    6854:	ff ff       	.word	0xffff	; ????
    6856:	ff ff       	.word	0xffff	; ????
    6858:	ff ff       	.word	0xffff	; ????
    685a:	ff ff       	.word	0xffff	; ????
    685c:	ff ff       	.word	0xffff	; ????
    685e:	ff ff       	.word	0xffff	; ????
    6860:	ff ff       	.word	0xffff	; ????
    6862:	ff ff       	.word	0xffff	; ????
    6864:	ff ff       	.word	0xffff	; ????
    6866:	ff ff       	.word	0xffff	; ????
    6868:	ff ff       	.word	0xffff	; ????
    686a:	ff ff       	.word	0xffff	; ????
    686c:	ff ff       	.word	0xffff	; ????
    686e:	ff ff       	.word	0xffff	; ????
    6870:	ff ff       	.word	0xffff	; ????
    6872:	ff ff       	.word	0xffff	; ????
    6874:	ff ff       	.word	0xffff	; ????
    6876:	ff ff       	.word	0xffff	; ????
    6878:	ff ff       	.word	0xffff	; ????
    687a:	ff ff       	.word	0xffff	; ????
    687c:	ff ff       	.word	0xffff	; ????
    687e:	ff ff       	.word	0xffff	; ????
    6880:	ff ff       	.word	0xffff	; ????
    6882:	ff ff       	.word	0xffff	; ????
    6884:	ff ff       	.word	0xffff	; ????
    6886:	ff ff       	.word	0xffff	; ????
    6888:	ff ff       	.word	0xffff	; ????
    688a:	ff ff       	.word	0xffff	; ????
    688c:	ff ff       	.word	0xffff	; ????
    688e:	ff ff       	.word	0xffff	; ????
    6890:	ff ff       	.word	0xffff	; ????
    6892:	ff ff       	.word	0xffff	; ????
    6894:	ff ff       	.word	0xffff	; ????
    6896:	ff ff       	.word	0xffff	; ????
    6898:	ff ff       	.word	0xffff	; ????
    689a:	ff ff       	.word	0xffff	; ????
    689c:	ff ff       	.word	0xffff	; ????
    689e:	ff ff       	.word	0xffff	; ????
    68a0:	ff ff       	.word	0xffff	; ????
    68a2:	ff ff       	.word	0xffff	; ????
    68a4:	ff ff       	.word	0xffff	; ????
    68a6:	ff ff       	.word	0xffff	; ????
    68a8:	ff ff       	.word	0xffff	; ????
    68aa:	ff ff       	.word	0xffff	; ????
    68ac:	ff ff       	.word	0xffff	; ????
    68ae:	ff ff       	.word	0xffff	; ????
    68b0:	ff ff       	.word	0xffff	; ????
    68b2:	ff ff       	.word	0xffff	; ????
    68b4:	ff ff       	.word	0xffff	; ????
    68b6:	ff ff       	.word	0xffff	; ????
    68b8:	ff ff       	.word	0xffff	; ????
    68ba:	ff ff       	.word	0xffff	; ????
    68bc:	ff ff       	.word	0xffff	; ????
    68be:	ff ff       	.word	0xffff	; ????
    68c0:	ff ff       	.word	0xffff	; ????
    68c2:	ff ff       	.word	0xffff	; ????
    68c4:	ff ff       	.word	0xffff	; ????
    68c6:	ff ff       	.word	0xffff	; ????
    68c8:	ff ff       	.word	0xffff	; ????
    68ca:	ff ff       	.word	0xffff	; ????
    68cc:	ff ff       	.word	0xffff	; ????
    68ce:	ff ff       	.word	0xffff	; ????
    68d0:	ff ff       	.word	0xffff	; ????
    68d2:	ff ff       	.word	0xffff	; ????
    68d4:	ff ff       	.word	0xffff	; ????
    68d6:	ff ff       	.word	0xffff	; ????
    68d8:	ff ff       	.word	0xffff	; ????
    68da:	ff ff       	.word	0xffff	; ????
    68dc:	ff ff       	.word	0xffff	; ????
    68de:	ff ff       	.word	0xffff	; ????
    68e0:	ff ff       	.word	0xffff	; ????
    68e2:	ff ff       	.word	0xffff	; ????
    68e4:	ff ff       	.word	0xffff	; ????
    68e6:	ff ff       	.word	0xffff	; ????
    68e8:	ff ff       	.word	0xffff	; ????
    68ea:	ff ff       	.word	0xffff	; ????
    68ec:	ff ff       	.word	0xffff	; ????
    68ee:	ff ff       	.word	0xffff	; ????
    68f0:	ff ff       	.word	0xffff	; ????
    68f2:	ff ff       	.word	0xffff	; ????
    68f4:	ff ff       	.word	0xffff	; ????
    68f6:	ff ff       	.word	0xffff	; ????
    68f8:	ff ff       	.word	0xffff	; ????
    68fa:	ff ff       	.word	0xffff	; ????
    68fc:	ff ff       	.word	0xffff	; ????
    68fe:	ff ff       	.word	0xffff	; ????
    6900:	ff ff       	.word	0xffff	; ????
    6902:	ff ff       	.word	0xffff	; ????
    6904:	ff ff       	.word	0xffff	; ????
    6906:	ff ff       	.word	0xffff	; ????
    6908:	ff ff       	.word	0xffff	; ????
    690a:	ff ff       	.word	0xffff	; ????
    690c:	ff ff       	.word	0xffff	; ????
    690e:	ff ff       	.word	0xffff	; ????
    6910:	ff ff       	.word	0xffff	; ????
    6912:	ff ff       	.word	0xffff	; ????
    6914:	ff ff       	.word	0xffff	; ????
    6916:	ff ff       	.word	0xffff	; ????
    6918:	ff ff       	.word	0xffff	; ????
    691a:	ff ff       	.word	0xffff	; ????
    691c:	ff ff       	.word	0xffff	; ????
    691e:	ff ff       	.word	0xffff	; ????
    6920:	ff ff       	.word	0xffff	; ????
    6922:	ff ff       	.word	0xffff	; ????
    6924:	ff ff       	.word	0xffff	; ????
    6926:	ff ff       	.word	0xffff	; ????
    6928:	ff ff       	.word	0xffff	; ????
    692a:	ff ff       	.word	0xffff	; ????
    692c:	ff ff       	.word	0xffff	; ????
    692e:	ff ff       	.word	0xffff	; ????
    6930:	ff ff       	.word	0xffff	; ????
    6932:	ff ff       	.word	0xffff	; ????
    6934:	ff ff       	.word	0xffff	; ????
    6936:	ff ff       	.word	0xffff	; ????
    6938:	ff ff       	.word	0xffff	; ????
    693a:	ff ff       	.word	0xffff	; ????
    693c:	ff ff       	.word	0xffff	; ????
    693e:	ff ff       	.word	0xffff	; ????
    6940:	ff ff       	.word	0xffff	; ????
    6942:	ff ff       	.word	0xffff	; ????
    6944:	ff ff       	.word	0xffff	; ????
    6946:	ff ff       	.word	0xffff	; ????
    6948:	ff ff       	.word	0xffff	; ????
    694a:	ff ff       	.word	0xffff	; ????
    694c:	ff ff       	.word	0xffff	; ????
    694e:	ff ff       	.word	0xffff	; ????
    6950:	ff ff       	.word	0xffff	; ????
    6952:	ff ff       	.word	0xffff	; ????
    6954:	ff ff       	.word	0xffff	; ????
    6956:	ff ff       	.word	0xffff	; ????
    6958:	ff ff       	.word	0xffff	; ????
    695a:	ff ff       	.word	0xffff	; ????
    695c:	ff ff       	.word	0xffff	; ????
    695e:	ff ff       	.word	0xffff	; ????
    6960:	ff ff       	.word	0xffff	; ????
    6962:	ff ff       	.word	0xffff	; ????
    6964:	ff ff       	.word	0xffff	; ????
    6966:	ff ff       	.word	0xffff	; ????
    6968:	ff ff       	.word	0xffff	; ????
    696a:	ff ff       	.word	0xffff	; ????
    696c:	ff ff       	.word	0xffff	; ????
    696e:	ff ff       	.word	0xffff	; ????
    6970:	ff ff       	.word	0xffff	; ????
    6972:	ff ff       	.word	0xffff	; ????
    6974:	ff ff       	.word	0xffff	; ????
    6976:	ff ff       	.word	0xffff	; ????
    6978:	ff ff       	.word	0xffff	; ????
    697a:	ff ff       	.word	0xffff	; ????
    697c:	ff ff       	.word	0xffff	; ????
    697e:	ff ff       	.word	0xffff	; ????
    6980:	ff ff       	.word	0xffff	; ????
    6982:	ff ff       	.word	0xffff	; ????
    6984:	ff ff       	.word	0xffff	; ????
    6986:	ff ff       	.word	0xffff	; ????
    6988:	ff ff       	.word	0xffff	; ????
    698a:	ff ff       	.word	0xffff	; ????
    698c:	ff ff       	.word	0xffff	; ????
    698e:	ff ff       	.word	0xffff	; ????
    6990:	ff ff       	.word	0xffff	; ????
    6992:	ff ff       	.word	0xffff	; ????
    6994:	ff ff       	.word	0xffff	; ????
    6996:	ff ff       	.word	0xffff	; ????
    6998:	ff ff       	.word	0xffff	; ????
    699a:	ff ff       	.word	0xffff	; ????
    699c:	ff ff       	.word	0xffff	; ????
    699e:	ff ff       	.word	0xffff	; ????
    69a0:	ff ff       	.word	0xffff	; ????
    69a2:	ff ff       	.word	0xffff	; ????
    69a4:	ff ff       	.word	0xffff	; ????
    69a6:	ff ff       	.word	0xffff	; ????
    69a8:	ff ff       	.word	0xffff	; ????
    69aa:	ff ff       	.word	0xffff	; ????
    69ac:	ff ff       	.word	0xffff	; ????
    69ae:	ff ff       	.word	0xffff	; ????
    69b0:	ff ff       	.word	0xffff	; ????
    69b2:	ff ff       	.word	0xffff	; ????
    69b4:	ff ff       	.word	0xffff	; ????
    69b6:	ff ff       	.word	0xffff	; ????
    69b8:	ff ff       	.word	0xffff	; ????
    69ba:	ff ff       	.word	0xffff	; ????
    69bc:	ff ff       	.word	0xffff	; ????
    69be:	ff ff       	.word	0xffff	; ????
    69c0:	ff ff       	.word	0xffff	; ????
    69c2:	ff ff       	.word	0xffff	; ????
    69c4:	ff ff       	.word	0xffff	; ????
    69c6:	ff ff       	.word	0xffff	; ????
    69c8:	ff ff       	.word	0xffff	; ????
    69ca:	ff ff       	.word	0xffff	; ????
    69cc:	ff ff       	.word	0xffff	; ????
    69ce:	ff ff       	.word	0xffff	; ????
    69d0:	ff ff       	.word	0xffff	; ????
    69d2:	ff ff       	.word	0xffff	; ????
    69d4:	ff ff       	.word	0xffff	; ????
    69d6:	ff ff       	.word	0xffff	; ????
    69d8:	ff ff       	.word	0xffff	; ????
    69da:	ff ff       	.word	0xffff	; ????
    69dc:	ff ff       	.word	0xffff	; ????
    69de:	ff ff       	.word	0xffff	; ????
    69e0:	ff ff       	.word	0xffff	; ????
    69e2:	ff ff       	.word	0xffff	; ????
    69e4:	ff ff       	.word	0xffff	; ????
    69e6:	ff ff       	.word	0xffff	; ????
    69e8:	ff ff       	.word	0xffff	; ????
    69ea:	ff ff       	.word	0xffff	; ????
    69ec:	ff ff       	.word	0xffff	; ????
    69ee:	ff ff       	.word	0xffff	; ????
    69f0:	ff ff       	.word	0xffff	; ????
    69f2:	ff ff       	.word	0xffff	; ????
    69f4:	ff ff       	.word	0xffff	; ????
    69f6:	ff ff       	.word	0xffff	; ????
    69f8:	ff ff       	.word	0xffff	; ????
    69fa:	ff ff       	.word	0xffff	; ????
    69fc:	ff ff       	.word	0xffff	; ????
    69fe:	ff ff       	.word	0xffff	; ????
    6a00:	ff ff       	.word	0xffff	; ????
    6a02:	ff ff       	.word	0xffff	; ????
    6a04:	ff ff       	.word	0xffff	; ????
    6a06:	ff ff       	.word	0xffff	; ????
    6a08:	ff ff       	.word	0xffff	; ????
    6a0a:	ff ff       	.word	0xffff	; ????
    6a0c:	ff ff       	.word	0xffff	; ????
    6a0e:	ff ff       	.word	0xffff	; ????
    6a10:	ff ff       	.word	0xffff	; ????
    6a12:	ff ff       	.word	0xffff	; ????
    6a14:	ff ff       	.word	0xffff	; ????
    6a16:	ff ff       	.word	0xffff	; ????
    6a18:	ff ff       	.word	0xffff	; ????
    6a1a:	ff ff       	.word	0xffff	; ????
    6a1c:	ff ff       	.word	0xffff	; ????
    6a1e:	ff ff       	.word	0xffff	; ????
    6a20:	ff ff       	.word	0xffff	; ????
    6a22:	ff ff       	.word	0xffff	; ????
    6a24:	ff ff       	.word	0xffff	; ????
    6a26:	ff ff       	.word	0xffff	; ????
    6a28:	ff ff       	.word	0xffff	; ????
    6a2a:	ff ff       	.word	0xffff	; ????
    6a2c:	ff ff       	.word	0xffff	; ????
    6a2e:	ff ff       	.word	0xffff	; ????
    6a30:	ff ff       	.word	0xffff	; ????
    6a32:	ff ff       	.word	0xffff	; ????
    6a34:	ff ff       	.word	0xffff	; ????
    6a36:	ff ff       	.word	0xffff	; ????
    6a38:	ff ff       	.word	0xffff	; ????
    6a3a:	ff ff       	.word	0xffff	; ????
    6a3c:	ff ff       	.word	0xffff	; ????
    6a3e:	ff ff       	.word	0xffff	; ????
    6a40:	ff ff       	.word	0xffff	; ????
    6a42:	ff ff       	.word	0xffff	; ????
    6a44:	ff ff       	.word	0xffff	; ????
    6a46:	ff ff       	.word	0xffff	; ????
    6a48:	ff ff       	.word	0xffff	; ????
    6a4a:	ff ff       	.word	0xffff	; ????
    6a4c:	ff ff       	.word	0xffff	; ????
    6a4e:	ff ff       	.word	0xffff	; ????
    6a50:	ff ff       	.word	0xffff	; ????
    6a52:	ff ff       	.word	0xffff	; ????
    6a54:	ff ff       	.word	0xffff	; ????
    6a56:	ff ff       	.word	0xffff	; ????
    6a58:	ff ff       	.word	0xffff	; ????
    6a5a:	ff ff       	.word	0xffff	; ????
    6a5c:	ff ff       	.word	0xffff	; ????
    6a5e:	ff ff       	.word	0xffff	; ????
    6a60:	ff ff       	.word	0xffff	; ????
    6a62:	ff ff       	.word	0xffff	; ????
    6a64:	ff ff       	.word	0xffff	; ????
    6a66:	ff ff       	.word	0xffff	; ????
    6a68:	ff ff       	.word	0xffff	; ????
    6a6a:	ff ff       	.word	0xffff	; ????
    6a6c:	ff ff       	.word	0xffff	; ????
    6a6e:	ff ff       	.word	0xffff	; ????
    6a70:	ff ff       	.word	0xffff	; ????
    6a72:	ff ff       	.word	0xffff	; ????
    6a74:	ff ff       	.word	0xffff	; ????
    6a76:	ff ff       	.word	0xffff	; ????
    6a78:	ff ff       	.word	0xffff	; ????
    6a7a:	ff ff       	.word	0xffff	; ????
    6a7c:	ff ff       	.word	0xffff	; ????
    6a7e:	ff ff       	.word	0xffff	; ????
    6a80:	ff ff       	.word	0xffff	; ????
    6a82:	ff ff       	.word	0xffff	; ????
    6a84:	ff ff       	.word	0xffff	; ????
    6a86:	ff ff       	.word	0xffff	; ????
    6a88:	ff ff       	.word	0xffff	; ????
    6a8a:	ff ff       	.word	0xffff	; ????
    6a8c:	ff ff       	.word	0xffff	; ????
    6a8e:	ff ff       	.word	0xffff	; ????
    6a90:	ff ff       	.word	0xffff	; ????
    6a92:	ff ff       	.word	0xffff	; ????
    6a94:	ff ff       	.word	0xffff	; ????
    6a96:	ff ff       	.word	0xffff	; ????
    6a98:	ff ff       	.word	0xffff	; ????
    6a9a:	ff ff       	.word	0xffff	; ????
    6a9c:	ff ff       	.word	0xffff	; ????
    6a9e:	ff ff       	.word	0xffff	; ????
    6aa0:	ff ff       	.word	0xffff	; ????
    6aa2:	ff ff       	.word	0xffff	; ????
    6aa4:	ff ff       	.word	0xffff	; ????
    6aa6:	ff ff       	.word	0xffff	; ????
    6aa8:	ff ff       	.word	0xffff	; ????
    6aaa:	ff ff       	.word	0xffff	; ????
    6aac:	ff ff       	.word	0xffff	; ????
    6aae:	ff ff       	.word	0xffff	; ????
    6ab0:	ff ff       	.word	0xffff	; ????
    6ab2:	ff ff       	.word	0xffff	; ????
    6ab4:	ff ff       	.word	0xffff	; ????
    6ab6:	ff ff       	.word	0xffff	; ????
    6ab8:	ff ff       	.word	0xffff	; ????
    6aba:	ff ff       	.word	0xffff	; ????
    6abc:	ff ff       	.word	0xffff	; ????
    6abe:	ff ff       	.word	0xffff	; ????
    6ac0:	ff ff       	.word	0xffff	; ????
    6ac2:	ff ff       	.word	0xffff	; ????
    6ac4:	ff ff       	.word	0xffff	; ????
    6ac6:	ff ff       	.word	0xffff	; ????
    6ac8:	ff ff       	.word	0xffff	; ????
    6aca:	ff ff       	.word	0xffff	; ????
    6acc:	ff ff       	.word	0xffff	; ????
    6ace:	ff ff       	.word	0xffff	; ????
    6ad0:	ff ff       	.word	0xffff	; ????
    6ad2:	ff ff       	.word	0xffff	; ????
    6ad4:	ff ff       	.word	0xffff	; ????
    6ad6:	ff ff       	.word	0xffff	; ????
    6ad8:	ff ff       	.word	0xffff	; ????
    6ada:	ff ff       	.word	0xffff	; ????
    6adc:	ff ff       	.word	0xffff	; ????
    6ade:	ff ff       	.word	0xffff	; ????
    6ae0:	ff ff       	.word	0xffff	; ????
    6ae2:	ff ff       	.word	0xffff	; ????
    6ae4:	ff ff       	.word	0xffff	; ????
    6ae6:	ff ff       	.word	0xffff	; ????
    6ae8:	ff ff       	.word	0xffff	; ????
    6aea:	ff ff       	.word	0xffff	; ????
    6aec:	ff ff       	.word	0xffff	; ????
    6aee:	ff ff       	.word	0xffff	; ????
    6af0:	ff ff       	.word	0xffff	; ????
    6af2:	ff ff       	.word	0xffff	; ????
    6af4:	ff ff       	.word	0xffff	; ????
    6af6:	ff ff       	.word	0xffff	; ????
    6af8:	ff ff       	.word	0xffff	; ????
    6afa:	ff ff       	.word	0xffff	; ????
    6afc:	ff ff       	.word	0xffff	; ????
    6afe:	ff ff       	.word	0xffff	; ????
    6b00:	ff ff       	.word	0xffff	; ????
    6b02:	ff ff       	.word	0xffff	; ????
    6b04:	ff ff       	.word	0xffff	; ????
    6b06:	ff ff       	.word	0xffff	; ????
    6b08:	ff ff       	.word	0xffff	; ????
    6b0a:	ff ff       	.word	0xffff	; ????
    6b0c:	ff ff       	.word	0xffff	; ????
    6b0e:	ff ff       	.word	0xffff	; ????
    6b10:	ff ff       	.word	0xffff	; ????
    6b12:	ff ff       	.word	0xffff	; ????
    6b14:	ff ff       	.word	0xffff	; ????
    6b16:	ff ff       	.word	0xffff	; ????
    6b18:	ff ff       	.word	0xffff	; ????
    6b1a:	ff ff       	.word	0xffff	; ????
    6b1c:	ff ff       	.word	0xffff	; ????
    6b1e:	ff ff       	.word	0xffff	; ????
    6b20:	ff ff       	.word	0xffff	; ????
    6b22:	ff ff       	.word	0xffff	; ????
    6b24:	ff ff       	.word	0xffff	; ????
    6b26:	ff ff       	.word	0xffff	; ????
    6b28:	ff ff       	.word	0xffff	; ????
    6b2a:	ff ff       	.word	0xffff	; ????
    6b2c:	ff ff       	.word	0xffff	; ????
    6b2e:	ff ff       	.word	0xffff	; ????
    6b30:	ff ff       	.word	0xffff	; ????
    6b32:	ff ff       	.word	0xffff	; ????
    6b34:	ff ff       	.word	0xffff	; ????
    6b36:	ff ff       	.word	0xffff	; ????
    6b38:	ff ff       	.word	0xffff	; ????
    6b3a:	ff ff       	.word	0xffff	; ????
    6b3c:	ff ff       	.word	0xffff	; ????
    6b3e:	ff ff       	.word	0xffff	; ????
    6b40:	ff ff       	.word	0xffff	; ????
    6b42:	ff ff       	.word	0xffff	; ????
    6b44:	ff ff       	.word	0xffff	; ????
    6b46:	ff ff       	.word	0xffff	; ????
    6b48:	ff ff       	.word	0xffff	; ????
    6b4a:	ff ff       	.word	0xffff	; ????
    6b4c:	ff ff       	.word	0xffff	; ????
    6b4e:	ff ff       	.word	0xffff	; ????
    6b50:	ff ff       	.word	0xffff	; ????
    6b52:	ff ff       	.word	0xffff	; ????
    6b54:	ff ff       	.word	0xffff	; ????
    6b56:	ff ff       	.word	0xffff	; ????
    6b58:	ff ff       	.word	0xffff	; ????
    6b5a:	ff ff       	.word	0xffff	; ????
    6b5c:	ff ff       	.word	0xffff	; ????
    6b5e:	ff ff       	.word	0xffff	; ????
    6b60:	ff ff       	.word	0xffff	; ????
    6b62:	ff ff       	.word	0xffff	; ????
    6b64:	ff ff       	.word	0xffff	; ????
    6b66:	ff ff       	.word	0xffff	; ????
    6b68:	ff ff       	.word	0xffff	; ????
    6b6a:	ff ff       	.word	0xffff	; ????
    6b6c:	ff ff       	.word	0xffff	; ????
    6b6e:	ff ff       	.word	0xffff	; ????
    6b70:	ff ff       	.word	0xffff	; ????
    6b72:	ff ff       	.word	0xffff	; ????
    6b74:	ff ff       	.word	0xffff	; ????
    6b76:	ff ff       	.word	0xffff	; ????
    6b78:	ff ff       	.word	0xffff	; ????
    6b7a:	ff ff       	.word	0xffff	; ????
    6b7c:	ff ff       	.word	0xffff	; ????
    6b7e:	ff ff       	.word	0xffff	; ????
    6b80:	ff ff       	.word	0xffff	; ????
    6b82:	ff ff       	.word	0xffff	; ????
    6b84:	ff ff       	.word	0xffff	; ????
    6b86:	ff ff       	.word	0xffff	; ????
    6b88:	ff ff       	.word	0xffff	; ????
    6b8a:	ff ff       	.word	0xffff	; ????
    6b8c:	ff ff       	.word	0xffff	; ????
    6b8e:	ff ff       	.word	0xffff	; ????
    6b90:	ff ff       	.word	0xffff	; ????
    6b92:	ff ff       	.word	0xffff	; ????
    6b94:	ff ff       	.word	0xffff	; ????
    6b96:	ff ff       	.word	0xffff	; ????
    6b98:	ff ff       	.word	0xffff	; ????
    6b9a:	ff ff       	.word	0xffff	; ????
    6b9c:	ff ff       	.word	0xffff	; ????
    6b9e:	ff ff       	.word	0xffff	; ????
    6ba0:	ff ff       	.word	0xffff	; ????
    6ba2:	ff ff       	.word	0xffff	; ????
    6ba4:	ff ff       	.word	0xffff	; ????
    6ba6:	ff ff       	.word	0xffff	; ????
    6ba8:	ff ff       	.word	0xffff	; ????
    6baa:	ff ff       	.word	0xffff	; ????
    6bac:	ff ff       	.word	0xffff	; ????
    6bae:	ff ff       	.word	0xffff	; ????
    6bb0:	ff ff       	.word	0xffff	; ????
    6bb2:	ff ff       	.word	0xffff	; ????
    6bb4:	ff ff       	.word	0xffff	; ????
    6bb6:	ff ff       	.word	0xffff	; ????
    6bb8:	ff ff       	.word	0xffff	; ????
    6bba:	ff ff       	.word	0xffff	; ????
    6bbc:	ff ff       	.word	0xffff	; ????
    6bbe:	ff ff       	.word	0xffff	; ????
    6bc0:	ff ff       	.word	0xffff	; ????
    6bc2:	ff ff       	.word	0xffff	; ????
    6bc4:	ff ff       	.word	0xffff	; ????
    6bc6:	ff ff       	.word	0xffff	; ????
    6bc8:	ff ff       	.word	0xffff	; ????
    6bca:	ff ff       	.word	0xffff	; ????
    6bcc:	ff ff       	.word	0xffff	; ????
    6bce:	ff ff       	.word	0xffff	; ????
    6bd0:	ff ff       	.word	0xffff	; ????
    6bd2:	ff ff       	.word	0xffff	; ????
    6bd4:	ff ff       	.word	0xffff	; ????
    6bd6:	ff ff       	.word	0xffff	; ????
    6bd8:	ff ff       	.word	0xffff	; ????
    6bda:	ff ff       	.word	0xffff	; ????
    6bdc:	ff ff       	.word	0xffff	; ????
    6bde:	ff ff       	.word	0xffff	; ????
    6be0:	ff ff       	.word	0xffff	; ????
    6be2:	ff ff       	.word	0xffff	; ????
    6be4:	ff ff       	.word	0xffff	; ????
    6be6:	ff ff       	.word	0xffff	; ????
    6be8:	ff ff       	.word	0xffff	; ????
    6bea:	ff ff       	.word	0xffff	; ????
    6bec:	ff ff       	.word	0xffff	; ????
    6bee:	ff ff       	.word	0xffff	; ????
    6bf0:	ff ff       	.word	0xffff	; ????
    6bf2:	ff ff       	.word	0xffff	; ????
    6bf4:	ff ff       	.word	0xffff	; ????
    6bf6:	ff ff       	.word	0xffff	; ????
    6bf8:	ff ff       	.word	0xffff	; ????
    6bfa:	ff ff       	.word	0xffff	; ????
    6bfc:	ff ff       	.word	0xffff	; ????
    6bfe:	ff ff       	.word	0xffff	; ????
    6c00:	ff ff       	.word	0xffff	; ????
    6c02:	ff ff       	.word	0xffff	; ????
    6c04:	ff ff       	.word	0xffff	; ????
    6c06:	ff ff       	.word	0xffff	; ????
    6c08:	ff ff       	.word	0xffff	; ????
    6c0a:	ff ff       	.word	0xffff	; ????
    6c0c:	ff ff       	.word	0xffff	; ????
    6c0e:	ff ff       	.word	0xffff	; ????
    6c10:	ff ff       	.word	0xffff	; ????
    6c12:	ff ff       	.word	0xffff	; ????
    6c14:	ff ff       	.word	0xffff	; ????
    6c16:	ff ff       	.word	0xffff	; ????
    6c18:	ff ff       	.word	0xffff	; ????
    6c1a:	ff ff       	.word	0xffff	; ????
    6c1c:	ff ff       	.word	0xffff	; ????
    6c1e:	ff ff       	.word	0xffff	; ????
    6c20:	ff ff       	.word	0xffff	; ????
    6c22:	ff ff       	.word	0xffff	; ????
    6c24:	ff ff       	.word	0xffff	; ????
    6c26:	ff ff       	.word	0xffff	; ????
    6c28:	ff ff       	.word	0xffff	; ????
    6c2a:	ff ff       	.word	0xffff	; ????
    6c2c:	ff ff       	.word	0xffff	; ????
    6c2e:	ff ff       	.word	0xffff	; ????
    6c30:	ff ff       	.word	0xffff	; ????
    6c32:	ff ff       	.word	0xffff	; ????
    6c34:	ff ff       	.word	0xffff	; ????
    6c36:	ff ff       	.word	0xffff	; ????
    6c38:	ff ff       	.word	0xffff	; ????
    6c3a:	ff ff       	.word	0xffff	; ????
    6c3c:	ff ff       	.word	0xffff	; ????
    6c3e:	ff ff       	.word	0xffff	; ????
    6c40:	ff ff       	.word	0xffff	; ????
    6c42:	ff ff       	.word	0xffff	; ????
    6c44:	ff ff       	.word	0xffff	; ????
    6c46:	ff ff       	.word	0xffff	; ????
    6c48:	ff ff       	.word	0xffff	; ????
    6c4a:	ff ff       	.word	0xffff	; ????
    6c4c:	ff ff       	.word	0xffff	; ????
    6c4e:	ff ff       	.word	0xffff	; ????
    6c50:	ff ff       	.word	0xffff	; ????
    6c52:	ff ff       	.word	0xffff	; ????
    6c54:	ff ff       	.word	0xffff	; ????
    6c56:	ff ff       	.word	0xffff	; ????
    6c58:	ff ff       	.word	0xffff	; ????
    6c5a:	ff ff       	.word	0xffff	; ????
    6c5c:	ff ff       	.word	0xffff	; ????
    6c5e:	ff ff       	.word	0xffff	; ????
    6c60:	ff ff       	.word	0xffff	; ????
    6c62:	ff ff       	.word	0xffff	; ????
    6c64:	ff ff       	.word	0xffff	; ????
    6c66:	ff ff       	.word	0xffff	; ????
    6c68:	ff ff       	.word	0xffff	; ????
    6c6a:	ff ff       	.word	0xffff	; ????
    6c6c:	ff ff       	.word	0xffff	; ????
    6c6e:	ff ff       	.word	0xffff	; ????
    6c70:	ff ff       	.word	0xffff	; ????
    6c72:	ff ff       	.word	0xffff	; ????
    6c74:	ff ff       	.word	0xffff	; ????
    6c76:	ff ff       	.word	0xffff	; ????
    6c78:	ff ff       	.word	0xffff	; ????
    6c7a:	ff ff       	.word	0xffff	; ????
    6c7c:	ff ff       	.word	0xffff	; ????
    6c7e:	ff ff       	.word	0xffff	; ????
    6c80:	ff ff       	.word	0xffff	; ????
    6c82:	ff ff       	.word	0xffff	; ????
    6c84:	ff ff       	.word	0xffff	; ????
    6c86:	ff ff       	.word	0xffff	; ????
    6c88:	ff ff       	.word	0xffff	; ????
    6c8a:	ff ff       	.word	0xffff	; ????
    6c8c:	ff ff       	.word	0xffff	; ????
    6c8e:	ff ff       	.word	0xffff	; ????
    6c90:	ff ff       	.word	0xffff	; ????
    6c92:	ff ff       	.word	0xffff	; ????
    6c94:	ff ff       	.word	0xffff	; ????
    6c96:	ff ff       	.word	0xffff	; ????
    6c98:	ff ff       	.word	0xffff	; ????
    6c9a:	ff ff       	.word	0xffff	; ????
    6c9c:	ff ff       	.word	0xffff	; ????
    6c9e:	ff ff       	.word	0xffff	; ????
    6ca0:	ff ff       	.word	0xffff	; ????
    6ca2:	ff ff       	.word	0xffff	; ????
    6ca4:	ff ff       	.word	0xffff	; ????
    6ca6:	ff ff       	.word	0xffff	; ????
    6ca8:	ff ff       	.word	0xffff	; ????
    6caa:	ff ff       	.word	0xffff	; ????
    6cac:	ff ff       	.word	0xffff	; ????
    6cae:	ff ff       	.word	0xffff	; ????
    6cb0:	ff ff       	.word	0xffff	; ????
    6cb2:	ff ff       	.word	0xffff	; ????
    6cb4:	ff ff       	.word	0xffff	; ????
    6cb6:	ff ff       	.word	0xffff	; ????
    6cb8:	ff ff       	.word	0xffff	; ????
    6cba:	ff ff       	.word	0xffff	; ????
    6cbc:	ff ff       	.word	0xffff	; ????
    6cbe:	ff ff       	.word	0xffff	; ????
    6cc0:	ff ff       	.word	0xffff	; ????
    6cc2:	ff ff       	.word	0xffff	; ????
    6cc4:	ff ff       	.word	0xffff	; ????
    6cc6:	ff ff       	.word	0xffff	; ????
    6cc8:	ff ff       	.word	0xffff	; ????
    6cca:	ff ff       	.word	0xffff	; ????
    6ccc:	ff ff       	.word	0xffff	; ????
    6cce:	ff ff       	.word	0xffff	; ????
    6cd0:	ff ff       	.word	0xffff	; ????
    6cd2:	ff ff       	.word	0xffff	; ????
    6cd4:	ff ff       	.word	0xffff	; ????
    6cd6:	ff ff       	.word	0xffff	; ????
    6cd8:	ff ff       	.word	0xffff	; ????
    6cda:	ff ff       	.word	0xffff	; ????
    6cdc:	ff ff       	.word	0xffff	; ????
    6cde:	ff ff       	.word	0xffff	; ????
    6ce0:	ff ff       	.word	0xffff	; ????
    6ce2:	ff ff       	.word	0xffff	; ????
    6ce4:	ff ff       	.word	0xffff	; ????
    6ce6:	ff ff       	.word	0xffff	; ????
    6ce8:	ff ff       	.word	0xffff	; ????
    6cea:	ff ff       	.word	0xffff	; ????
    6cec:	ff ff       	.word	0xffff	; ????
    6cee:	ff ff       	.word	0xffff	; ????
    6cf0:	ff ff       	.word	0xffff	; ????
    6cf2:	ff ff       	.word	0xffff	; ????
    6cf4:	ff ff       	.word	0xffff	; ????
    6cf6:	ff ff       	.word	0xffff	; ????
    6cf8:	ff ff       	.word	0xffff	; ????
    6cfa:	ff ff       	.word	0xffff	; ????
    6cfc:	ff ff       	.word	0xffff	; ????
    6cfe:	ff ff       	.word	0xffff	; ????
    6d00:	ff ff       	.word	0xffff	; ????
    6d02:	ff ff       	.word	0xffff	; ????
    6d04:	ff ff       	.word	0xffff	; ????
    6d06:	ff ff       	.word	0xffff	; ????
    6d08:	ff ff       	.word	0xffff	; ????
    6d0a:	ff ff       	.word	0xffff	; ????
    6d0c:	ff ff       	.word	0xffff	; ????
    6d0e:	ff ff       	.word	0xffff	; ????
    6d10:	ff ff       	.word	0xffff	; ????
    6d12:	ff ff       	.word	0xffff	; ????
    6d14:	ff ff       	.word	0xffff	; ????
    6d16:	ff ff       	.word	0xffff	; ????
    6d18:	ff ff       	.word	0xffff	; ????
    6d1a:	ff ff       	.word	0xffff	; ????
    6d1c:	ff ff       	.word	0xffff	; ????
    6d1e:	ff ff       	.word	0xffff	; ????
    6d20:	ff ff       	.word	0xffff	; ????
    6d22:	ff ff       	.word	0xffff	; ????
    6d24:	ff ff       	.word	0xffff	; ????
    6d26:	ff ff       	.word	0xffff	; ????
    6d28:	ff ff       	.word	0xffff	; ????
    6d2a:	ff ff       	.word	0xffff	; ????
    6d2c:	ff ff       	.word	0xffff	; ????
    6d2e:	ff ff       	.word	0xffff	; ????
    6d30:	ff ff       	.word	0xffff	; ????
    6d32:	ff ff       	.word	0xffff	; ????
    6d34:	ff ff       	.word	0xffff	; ????
    6d36:	ff ff       	.word	0xffff	; ????
    6d38:	ff ff       	.word	0xffff	; ????
    6d3a:	ff ff       	.word	0xffff	; ????
    6d3c:	ff ff       	.word	0xffff	; ????
    6d3e:	ff ff       	.word	0xffff	; ????
    6d40:	ff ff       	.word	0xffff	; ????
    6d42:	ff ff       	.word	0xffff	; ????
    6d44:	ff ff       	.word	0xffff	; ????
    6d46:	ff ff       	.word	0xffff	; ????
    6d48:	ff ff       	.word	0xffff	; ????
    6d4a:	ff ff       	.word	0xffff	; ????
    6d4c:	ff ff       	.word	0xffff	; ????
    6d4e:	ff ff       	.word	0xffff	; ????
    6d50:	ff ff       	.word	0xffff	; ????
    6d52:	ff ff       	.word	0xffff	; ????
    6d54:	ff ff       	.word	0xffff	; ????
    6d56:	ff ff       	.word	0xffff	; ????
    6d58:	ff ff       	.word	0xffff	; ????
    6d5a:	ff ff       	.word	0xffff	; ????
    6d5c:	ff ff       	.word	0xffff	; ????
    6d5e:	ff ff       	.word	0xffff	; ????
    6d60:	ff ff       	.word	0xffff	; ????
    6d62:	ff ff       	.word	0xffff	; ????
    6d64:	ff ff       	.word	0xffff	; ????
    6d66:	ff ff       	.word	0xffff	; ????
    6d68:	ff ff       	.word	0xffff	; ????
    6d6a:	ff ff       	.word	0xffff	; ????
    6d6c:	ff ff       	.word	0xffff	; ????
    6d6e:	ff ff       	.word	0xffff	; ????
    6d70:	ff ff       	.word	0xffff	; ????
    6d72:	ff ff       	.word	0xffff	; ????
    6d74:	ff ff       	.word	0xffff	; ????
    6d76:	ff ff       	.word	0xffff	; ????
    6d78:	ff ff       	.word	0xffff	; ????
    6d7a:	ff ff       	.word	0xffff	; ????
    6d7c:	ff ff       	.word	0xffff	; ????
    6d7e:	ff ff       	.word	0xffff	; ????
    6d80:	ff ff       	.word	0xffff	; ????
    6d82:	ff ff       	.word	0xffff	; ????
    6d84:	ff ff       	.word	0xffff	; ????
    6d86:	ff ff       	.word	0xffff	; ????
    6d88:	ff ff       	.word	0xffff	; ????
    6d8a:	ff ff       	.word	0xffff	; ????
    6d8c:	ff ff       	.word	0xffff	; ????
    6d8e:	ff ff       	.word	0xffff	; ????
    6d90:	ff ff       	.word	0xffff	; ????
    6d92:	ff ff       	.word	0xffff	; ????
    6d94:	ff ff       	.word	0xffff	; ????
    6d96:	ff ff       	.word	0xffff	; ????
    6d98:	ff ff       	.word	0xffff	; ????
    6d9a:	ff ff       	.word	0xffff	; ????
    6d9c:	ff ff       	.word	0xffff	; ????
    6d9e:	ff ff       	.word	0xffff	; ????
    6da0:	ff ff       	.word	0xffff	; ????
    6da2:	ff ff       	.word	0xffff	; ????
    6da4:	ff ff       	.word	0xffff	; ????
    6da6:	ff ff       	.word	0xffff	; ????
    6da8:	ff ff       	.word	0xffff	; ????
    6daa:	ff ff       	.word	0xffff	; ????
    6dac:	ff ff       	.word	0xffff	; ????
    6dae:	ff ff       	.word	0xffff	; ????
    6db0:	ff ff       	.word	0xffff	; ????
    6db2:	ff ff       	.word	0xffff	; ????
    6db4:	ff ff       	.word	0xffff	; ????
    6db6:	ff ff       	.word	0xffff	; ????
    6db8:	ff ff       	.word	0xffff	; ????
    6dba:	ff ff       	.word	0xffff	; ????
    6dbc:	ff ff       	.word	0xffff	; ????
    6dbe:	ff ff       	.word	0xffff	; ????
    6dc0:	ff ff       	.word	0xffff	; ????
    6dc2:	ff ff       	.word	0xffff	; ????
    6dc4:	ff ff       	.word	0xffff	; ????
    6dc6:	ff ff       	.word	0xffff	; ????
    6dc8:	ff ff       	.word	0xffff	; ????
    6dca:	ff ff       	.word	0xffff	; ????
    6dcc:	ff ff       	.word	0xffff	; ????
    6dce:	ff ff       	.word	0xffff	; ????
    6dd0:	ff ff       	.word	0xffff	; ????
    6dd2:	ff ff       	.word	0xffff	; ????
    6dd4:	ff ff       	.word	0xffff	; ????
    6dd6:	ff ff       	.word	0xffff	; ????
    6dd8:	ff ff       	.word	0xffff	; ????
    6dda:	ff ff       	.word	0xffff	; ????
    6ddc:	ff ff       	.word	0xffff	; ????
    6dde:	ff ff       	.word	0xffff	; ????
    6de0:	ff ff       	.word	0xffff	; ????
    6de2:	ff ff       	.word	0xffff	; ????
    6de4:	ff ff       	.word	0xffff	; ????
    6de6:	ff ff       	.word	0xffff	; ????
    6de8:	ff ff       	.word	0xffff	; ????
    6dea:	ff ff       	.word	0xffff	; ????
    6dec:	ff ff       	.word	0xffff	; ????
    6dee:	ff ff       	.word	0xffff	; ????
    6df0:	ff ff       	.word	0xffff	; ????
    6df2:	ff ff       	.word	0xffff	; ????
    6df4:	ff ff       	.word	0xffff	; ????
    6df6:	ff ff       	.word	0xffff	; ????
    6df8:	ff ff       	.word	0xffff	; ????
    6dfa:	ff ff       	.word	0xffff	; ????
    6dfc:	ff ff       	.word	0xffff	; ????
    6dfe:	ff ff       	.word	0xffff	; ????
    6e00:	ff ff       	.word	0xffff	; ????
    6e02:	ff ff       	.word	0xffff	; ????
    6e04:	ff ff       	.word	0xffff	; ????
    6e06:	ff ff       	.word	0xffff	; ????
    6e08:	ff ff       	.word	0xffff	; ????
    6e0a:	ff ff       	.word	0xffff	; ????
    6e0c:	ff ff       	.word	0xffff	; ????
    6e0e:	ff ff       	.word	0xffff	; ????
    6e10:	ff ff       	.word	0xffff	; ????
    6e12:	ff ff       	.word	0xffff	; ????
    6e14:	ff ff       	.word	0xffff	; ????
    6e16:	ff ff       	.word	0xffff	; ????
    6e18:	ff ff       	.word	0xffff	; ????
    6e1a:	ff ff       	.word	0xffff	; ????
    6e1c:	ff ff       	.word	0xffff	; ????
    6e1e:	ff ff       	.word	0xffff	; ????
    6e20:	ff ff       	.word	0xffff	; ????
    6e22:	ff ff       	.word	0xffff	; ????
    6e24:	ff ff       	.word	0xffff	; ????
    6e26:	ff ff       	.word	0xffff	; ????
    6e28:	ff ff       	.word	0xffff	; ????
    6e2a:	ff ff       	.word	0xffff	; ????
    6e2c:	ff ff       	.word	0xffff	; ????
    6e2e:	ff ff       	.word	0xffff	; ????
    6e30:	ff ff       	.word	0xffff	; ????
    6e32:	ff ff       	.word	0xffff	; ????
    6e34:	ff ff       	.word	0xffff	; ????
    6e36:	ff ff       	.word	0xffff	; ????
    6e38:	ff ff       	.word	0xffff	; ????
    6e3a:	ff ff       	.word	0xffff	; ????
    6e3c:	ff ff       	.word	0xffff	; ????
    6e3e:	ff ff       	.word	0xffff	; ????
    6e40:	ff ff       	.word	0xffff	; ????
    6e42:	ff ff       	.word	0xffff	; ????
    6e44:	ff ff       	.word	0xffff	; ????
    6e46:	ff ff       	.word	0xffff	; ????
    6e48:	ff ff       	.word	0xffff	; ????
    6e4a:	ff ff       	.word	0xffff	; ????
    6e4c:	ff ff       	.word	0xffff	; ????
    6e4e:	ff ff       	.word	0xffff	; ????
    6e50:	ff ff       	.word	0xffff	; ????
    6e52:	ff ff       	.word	0xffff	; ????
    6e54:	ff ff       	.word	0xffff	; ????
    6e56:	ff ff       	.word	0xffff	; ????
    6e58:	ff ff       	.word	0xffff	; ????
    6e5a:	ff ff       	.word	0xffff	; ????
    6e5c:	ff ff       	.word	0xffff	; ????
    6e5e:	ff ff       	.word	0xffff	; ????
    6e60:	ff ff       	.word	0xffff	; ????
    6e62:	ff ff       	.word	0xffff	; ????
    6e64:	ff ff       	.word	0xffff	; ????
    6e66:	ff ff       	.word	0xffff	; ????
    6e68:	ff ff       	.word	0xffff	; ????
    6e6a:	ff ff       	.word	0xffff	; ????
    6e6c:	ff ff       	.word	0xffff	; ????
    6e6e:	ff ff       	.word	0xffff	; ????
    6e70:	ff ff       	.word	0xffff	; ????
    6e72:	ff ff       	.word	0xffff	; ????
    6e74:	ff ff       	.word	0xffff	; ????
    6e76:	ff ff       	.word	0xffff	; ????
    6e78:	ff ff       	.word	0xffff	; ????
    6e7a:	ff ff       	.word	0xffff	; ????
    6e7c:	ff ff       	.word	0xffff	; ????
    6e7e:	ff ff       	.word	0xffff	; ????
    6e80:	ff ff       	.word	0xffff	; ????
    6e82:	ff ff       	.word	0xffff	; ????
    6e84:	ff ff       	.word	0xffff	; ????
    6e86:	ff ff       	.word	0xffff	; ????
    6e88:	ff ff       	.word	0xffff	; ????
    6e8a:	ff ff       	.word	0xffff	; ????
    6e8c:	ff ff       	.word	0xffff	; ????
    6e8e:	ff ff       	.word	0xffff	; ????
    6e90:	ff ff       	.word	0xffff	; ????
    6e92:	ff ff       	.word	0xffff	; ????
    6e94:	ff ff       	.word	0xffff	; ????
    6e96:	ff ff       	.word	0xffff	; ????
    6e98:	ff ff       	.word	0xffff	; ????
    6e9a:	ff ff       	.word	0xffff	; ????
    6e9c:	ff ff       	.word	0xffff	; ????
    6e9e:	ff ff       	.word	0xffff	; ????
    6ea0:	ff ff       	.word	0xffff	; ????
    6ea2:	ff ff       	.word	0xffff	; ????
    6ea4:	ff ff       	.word	0xffff	; ????
    6ea6:	ff ff       	.word	0xffff	; ????
    6ea8:	ff ff       	.word	0xffff	; ????
    6eaa:	ff ff       	.word	0xffff	; ????
    6eac:	ff ff       	.word	0xffff	; ????
    6eae:	ff ff       	.word	0xffff	; ????
    6eb0:	ff ff       	.word	0xffff	; ????
    6eb2:	ff ff       	.word	0xffff	; ????
    6eb4:	ff ff       	.word	0xffff	; ????
    6eb6:	ff ff       	.word	0xffff	; ????
    6eb8:	ff ff       	.word	0xffff	; ????
    6eba:	ff ff       	.word	0xffff	; ????
    6ebc:	ff ff       	.word	0xffff	; ????
    6ebe:	ff ff       	.word	0xffff	; ????
    6ec0:	ff ff       	.word	0xffff	; ????
    6ec2:	ff ff       	.word	0xffff	; ????
    6ec4:	ff ff       	.word	0xffff	; ????
    6ec6:	ff ff       	.word	0xffff	; ????
    6ec8:	ff ff       	.word	0xffff	; ????
    6eca:	ff ff       	.word	0xffff	; ????
    6ecc:	ff ff       	.word	0xffff	; ????
    6ece:	ff ff       	.word	0xffff	; ????
    6ed0:	ff ff       	.word	0xffff	; ????
    6ed2:	ff ff       	.word	0xffff	; ????
    6ed4:	ff ff       	.word	0xffff	; ????
    6ed6:	ff ff       	.word	0xffff	; ????
    6ed8:	ff ff       	.word	0xffff	; ????
    6eda:	ff ff       	.word	0xffff	; ????
    6edc:	ff ff       	.word	0xffff	; ????
    6ede:	ff ff       	.word	0xffff	; ????
    6ee0:	ff ff       	.word	0xffff	; ????
    6ee2:	ff ff       	.word	0xffff	; ????
    6ee4:	ff ff       	.word	0xffff	; ????
    6ee6:	ff ff       	.word	0xffff	; ????
    6ee8:	ff ff       	.word	0xffff	; ????
    6eea:	ff ff       	.word	0xffff	; ????
    6eec:	ff ff       	.word	0xffff	; ????
    6eee:	ff ff       	.word	0xffff	; ????
    6ef0:	ff ff       	.word	0xffff	; ????
    6ef2:	ff ff       	.word	0xffff	; ????
    6ef4:	ff ff       	.word	0xffff	; ????
    6ef6:	ff ff       	.word	0xffff	; ????
    6ef8:	ff ff       	.word	0xffff	; ????
    6efa:	ff ff       	.word	0xffff	; ????
    6efc:	ff ff       	.word	0xffff	; ????
    6efe:	ff ff       	.word	0xffff	; ????
    6f00:	ff ff       	.word	0xffff	; ????
    6f02:	ff ff       	.word	0xffff	; ????
    6f04:	ff ff       	.word	0xffff	; ????
    6f06:	ff ff       	.word	0xffff	; ????
    6f08:	ff ff       	.word	0xffff	; ????
    6f0a:	ff ff       	.word	0xffff	; ????
    6f0c:	ff ff       	.word	0xffff	; ????
    6f0e:	ff ff       	.word	0xffff	; ????
    6f10:	ff ff       	.word	0xffff	; ????
    6f12:	ff ff       	.word	0xffff	; ????
    6f14:	ff ff       	.word	0xffff	; ????
    6f16:	ff ff       	.word	0xffff	; ????
    6f18:	ff ff       	.word	0xffff	; ????
    6f1a:	ff ff       	.word	0xffff	; ????
    6f1c:	ff ff       	.word	0xffff	; ????
    6f1e:	ff ff       	.word	0xffff	; ????
    6f20:	ff ff       	.word	0xffff	; ????
    6f22:	ff ff       	.word	0xffff	; ????
    6f24:	ff ff       	.word	0xffff	; ????
    6f26:	ff ff       	.word	0xffff	; ????
    6f28:	ff ff       	.word	0xffff	; ????
    6f2a:	ff ff       	.word	0xffff	; ????
    6f2c:	ff ff       	.word	0xffff	; ????
    6f2e:	ff ff       	.word	0xffff	; ????
    6f30:	ff ff       	.word	0xffff	; ????
    6f32:	ff ff       	.word	0xffff	; ????
    6f34:	ff ff       	.word	0xffff	; ????
    6f36:	ff ff       	.word	0xffff	; ????
    6f38:	ff ff       	.word	0xffff	; ????
    6f3a:	ff ff       	.word	0xffff	; ????
    6f3c:	ff ff       	.word	0xffff	; ????
    6f3e:	ff ff       	.word	0xffff	; ????
    6f40:	ff ff       	.word	0xffff	; ????
    6f42:	ff ff       	.word	0xffff	; ????
    6f44:	ff ff       	.word	0xffff	; ????
    6f46:	ff ff       	.word	0xffff	; ????
    6f48:	ff ff       	.word	0xffff	; ????
    6f4a:	ff ff       	.word	0xffff	; ????
    6f4c:	ff ff       	.word	0xffff	; ????
    6f4e:	ff ff       	.word	0xffff	; ????
    6f50:	ff ff       	.word	0xffff	; ????
    6f52:	ff ff       	.word	0xffff	; ????
    6f54:	ff ff       	.word	0xffff	; ????
    6f56:	ff ff       	.word	0xffff	; ????
    6f58:	ff ff       	.word	0xffff	; ????
    6f5a:	ff ff       	.word	0xffff	; ????
    6f5c:	ff ff       	.word	0xffff	; ????
    6f5e:	ff ff       	.word	0xffff	; ????
    6f60:	ff ff       	.word	0xffff	; ????
    6f62:	ff ff       	.word	0xffff	; ????
    6f64:	ff ff       	.word	0xffff	; ????
    6f66:	ff ff       	.word	0xffff	; ????
    6f68:	ff ff       	.word	0xffff	; ????
    6f6a:	ff ff       	.word	0xffff	; ????
    6f6c:	ff ff       	.word	0xffff	; ????
    6f6e:	ff ff       	.word	0xffff	; ????
    6f70:	ff ff       	.word	0xffff	; ????
    6f72:	ff ff       	.word	0xffff	; ????
    6f74:	ff ff       	.word	0xffff	; ????
    6f76:	ff ff       	.word	0xffff	; ????
    6f78:	ff ff       	.word	0xffff	; ????
    6f7a:	ff ff       	.word	0xffff	; ????
    6f7c:	ff ff       	.word	0xffff	; ????
    6f7e:	ff ff       	.word	0xffff	; ????
    6f80:	ff ff       	.word	0xffff	; ????
    6f82:	ff ff       	.word	0xffff	; ????
    6f84:	ff ff       	.word	0xffff	; ????
    6f86:	ff ff       	.word	0xffff	; ????
    6f88:	ff ff       	.word	0xffff	; ????
    6f8a:	ff ff       	.word	0xffff	; ????
    6f8c:	ff ff       	.word	0xffff	; ????
    6f8e:	ff ff       	.word	0xffff	; ????
    6f90:	ff ff       	.word	0xffff	; ????
    6f92:	ff ff       	.word	0xffff	; ????
    6f94:	ff ff       	.word	0xffff	; ????
    6f96:	ff ff       	.word	0xffff	; ????
    6f98:	ff ff       	.word	0xffff	; ????
    6f9a:	ff ff       	.word	0xffff	; ????
    6f9c:	ff ff       	.word	0xffff	; ????
    6f9e:	ff ff       	.word	0xffff	; ????
    6fa0:	ff ff       	.word	0xffff	; ????
    6fa2:	ff ff       	.word	0xffff	; ????
    6fa4:	ff ff       	.word	0xffff	; ????
    6fa6:	ff ff       	.word	0xffff	; ????
    6fa8:	ff ff       	.word	0xffff	; ????
    6faa:	ff ff       	.word	0xffff	; ????
    6fac:	ff ff       	.word	0xffff	; ????
    6fae:	ff ff       	.word	0xffff	; ????
    6fb0:	ff ff       	.word	0xffff	; ????
    6fb2:	ff ff       	.word	0xffff	; ????
    6fb4:	ff ff       	.word	0xffff	; ????
    6fb6:	ff ff       	.word	0xffff	; ????
    6fb8:	ff ff       	.word	0xffff	; ????
    6fba:	ff ff       	.word	0xffff	; ????
    6fbc:	ff ff       	.word	0xffff	; ????
    6fbe:	ff ff       	.word	0xffff	; ????
    6fc0:	ff ff       	.word	0xffff	; ????
    6fc2:	ff ff       	.word	0xffff	; ????
    6fc4:	ff ff       	.word	0xffff	; ????
    6fc6:	ff ff       	.word	0xffff	; ????
    6fc8:	ff ff       	.word	0xffff	; ????
    6fca:	ff ff       	.word	0xffff	; ????
    6fcc:	ff ff       	.word	0xffff	; ????
    6fce:	ff ff       	.word	0xffff	; ????
    6fd0:	ff ff       	.word	0xffff	; ????
    6fd2:	ff ff       	.word	0xffff	; ????
    6fd4:	ff ff       	.word	0xffff	; ????
    6fd6:	ff ff       	.word	0xffff	; ????
    6fd8:	ff ff       	.word	0xffff	; ????
    6fda:	ff ff       	.word	0xffff	; ????
    6fdc:	ff ff       	.word	0xffff	; ????
    6fde:	ff ff       	.word	0xffff	; ????
    6fe0:	ff ff       	.word	0xffff	; ????
    6fe2:	ff ff       	.word	0xffff	; ????
    6fe4:	ff ff       	.word	0xffff	; ????
    6fe6:	ff ff       	.word	0xffff	; ????
    6fe8:	ff ff       	.word	0xffff	; ????
    6fea:	ff ff       	.word	0xffff	; ????
    6fec:	ff ff       	.word	0xffff	; ????
    6fee:	ff ff       	.word	0xffff	; ????
    6ff0:	ff ff       	.word	0xffff	; ????
    6ff2:	ff ff       	.word	0xffff	; ????
    6ff4:	ff ff       	.word	0xffff	; ????
    6ff6:	ff ff       	.word	0xffff	; ????
    6ff8:	ff ff       	.word	0xffff	; ????
    6ffa:	ff ff       	.word	0xffff	; ????
    6ffc:	ff ff       	.word	0xffff	; ????
    6ffe:	ff ff       	.word	0xffff	; ????
    7000:	ff ff       	.word	0xffff	; ????
    7002:	ff ff       	.word	0xffff	; ????
    7004:	ff ff       	.word	0xffff	; ????
    7006:	ff ff       	.word	0xffff	; ????
    7008:	ff ff       	.word	0xffff	; ????
    700a:	ff ff       	.word	0xffff	; ????
    700c:	ff ff       	.word	0xffff	; ????
    700e:	ff ff       	.word	0xffff	; ????
    7010:	ff ff       	.word	0xffff	; ????
    7012:	ff ff       	.word	0xffff	; ????
    7014:	ff ff       	.word	0xffff	; ????
    7016:	ff ff       	.word	0xffff	; ????
    7018:	ff ff       	.word	0xffff	; ????
    701a:	ff ff       	.word	0xffff	; ????
    701c:	ff ff       	.word	0xffff	; ????
    701e:	ff ff       	.word	0xffff	; ????
    7020:	ff ff       	.word	0xffff	; ????
    7022:	ff ff       	.word	0xffff	; ????
    7024:	ff ff       	.word	0xffff	; ????
    7026:	ff ff       	.word	0xffff	; ????
    7028:	ff ff       	.word	0xffff	; ????
    702a:	ff ff       	.word	0xffff	; ????
    702c:	ff ff       	.word	0xffff	; ????
    702e:	ff ff       	.word	0xffff	; ????
    7030:	ff ff       	.word	0xffff	; ????
    7032:	ff ff       	.word	0xffff	; ????
    7034:	ff ff       	.word	0xffff	; ????
    7036:	ff ff       	.word	0xffff	; ????
    7038:	ff ff       	.word	0xffff	; ????
    703a:	ff ff       	.word	0xffff	; ????
    703c:	ff ff       	.word	0xffff	; ????
    703e:	ff ff       	.word	0xffff	; ????
    7040:	ff ff       	.word	0xffff	; ????
    7042:	ff ff       	.word	0xffff	; ????
    7044:	ff ff       	.word	0xffff	; ????
    7046:	ff ff       	.word	0xffff	; ????
    7048:	ff ff       	.word	0xffff	; ????
    704a:	ff ff       	.word	0xffff	; ????
    704c:	ff ff       	.word	0xffff	; ????
    704e:	ff ff       	.word	0xffff	; ????
    7050:	ff ff       	.word	0xffff	; ????
    7052:	ff ff       	.word	0xffff	; ????
    7054:	ff ff       	.word	0xffff	; ????
    7056:	ff ff       	.word	0xffff	; ????
    7058:	ff ff       	.word	0xffff	; ????
    705a:	ff ff       	.word	0xffff	; ????
    705c:	ff ff       	.word	0xffff	; ????
    705e:	ff ff       	.word	0xffff	; ????
    7060:	ff ff       	.word	0xffff	; ????
    7062:	ff ff       	.word	0xffff	; ????
    7064:	ff ff       	.word	0xffff	; ????
    7066:	ff ff       	.word	0xffff	; ????
    7068:	ff ff       	.word	0xffff	; ????
    706a:	ff ff       	.word	0xffff	; ????
    706c:	ff ff       	.word	0xffff	; ????
    706e:	ff ff       	.word	0xffff	; ????
    7070:	ff ff       	.word	0xffff	; ????
    7072:	ff ff       	.word	0xffff	; ????
    7074:	ff ff       	.word	0xffff	; ????
    7076:	ff ff       	.word	0xffff	; ????
    7078:	ff ff       	.word	0xffff	; ????
    707a:	ff ff       	.word	0xffff	; ????
    707c:	ff ff       	.word	0xffff	; ????
    707e:	ff ff       	.word	0xffff	; ????
    7080:	ff ff       	.word	0xffff	; ????
    7082:	ff ff       	.word	0xffff	; ????
    7084:	ff ff       	.word	0xffff	; ????
    7086:	ff ff       	.word	0xffff	; ????
    7088:	ff ff       	.word	0xffff	; ????
    708a:	ff ff       	.word	0xffff	; ????
    708c:	ff ff       	.word	0xffff	; ????
    708e:	ff ff       	.word	0xffff	; ????
    7090:	ff ff       	.word	0xffff	; ????
    7092:	ff ff       	.word	0xffff	; ????
    7094:	ff ff       	.word	0xffff	; ????
    7096:	ff ff       	.word	0xffff	; ????
    7098:	ff ff       	.word	0xffff	; ????
    709a:	ff ff       	.word	0xffff	; ????
    709c:	ff ff       	.word	0xffff	; ????
    709e:	ff ff       	.word	0xffff	; ????
    70a0:	ff ff       	.word	0xffff	; ????
    70a2:	ff ff       	.word	0xffff	; ????
    70a4:	ff ff       	.word	0xffff	; ????
    70a6:	ff ff       	.word	0xffff	; ????
    70a8:	ff ff       	.word	0xffff	; ????
    70aa:	ff ff       	.word	0xffff	; ????
    70ac:	ff ff       	.word	0xffff	; ????
    70ae:	ff ff       	.word	0xffff	; ????
    70b0:	ff ff       	.word	0xffff	; ????
    70b2:	ff ff       	.word	0xffff	; ????
    70b4:	ff ff       	.word	0xffff	; ????
    70b6:	ff ff       	.word	0xffff	; ????
    70b8:	ff ff       	.word	0xffff	; ????
    70ba:	ff ff       	.word	0xffff	; ????
    70bc:	ff ff       	.word	0xffff	; ????
    70be:	ff ff       	.word	0xffff	; ????
    70c0:	ff ff       	.word	0xffff	; ????
    70c2:	ff ff       	.word	0xffff	; ????
    70c4:	ff ff       	.word	0xffff	; ????
    70c6:	ff ff       	.word	0xffff	; ????
    70c8:	ff ff       	.word	0xffff	; ????
    70ca:	ff ff       	.word	0xffff	; ????
    70cc:	ff ff       	.word	0xffff	; ????
    70ce:	ff ff       	.word	0xffff	; ????
    70d0:	ff ff       	.word	0xffff	; ????
    70d2:	ff ff       	.word	0xffff	; ????
    70d4:	ff ff       	.word	0xffff	; ????
    70d6:	ff ff       	.word	0xffff	; ????
    70d8:	ff ff       	.word	0xffff	; ????
    70da:	ff ff       	.word	0xffff	; ????
    70dc:	ff ff       	.word	0xffff	; ????
    70de:	ff ff       	.word	0xffff	; ????
    70e0:	ff ff       	.word	0xffff	; ????
    70e2:	ff ff       	.word	0xffff	; ????
    70e4:	ff ff       	.word	0xffff	; ????
    70e6:	ff ff       	.word	0xffff	; ????
    70e8:	ff ff       	.word	0xffff	; ????
    70ea:	ff ff       	.word	0xffff	; ????
    70ec:	ff ff       	.word	0xffff	; ????
    70ee:	ff ff       	.word	0xffff	; ????
    70f0:	ff ff       	.word	0xffff	; ????
    70f2:	ff ff       	.word	0xffff	; ????
    70f4:	ff ff       	.word	0xffff	; ????
    70f6:	ff ff       	.word	0xffff	; ????
    70f8:	ff ff       	.word	0xffff	; ????
    70fa:	ff ff       	.word	0xffff	; ????
    70fc:	ff ff       	.word	0xffff	; ????
    70fe:	ff ff       	.word	0xffff	; ????
    7100:	ff ff       	.word	0xffff	; ????
    7102:	ff ff       	.word	0xffff	; ????
    7104:	ff ff       	.word	0xffff	; ????
    7106:	ff ff       	.word	0xffff	; ????
    7108:	ff ff       	.word	0xffff	; ????
    710a:	ff ff       	.word	0xffff	; ????
    710c:	ff ff       	.word	0xffff	; ????
    710e:	ff ff       	.word	0xffff	; ????
    7110:	ff ff       	.word	0xffff	; ????
    7112:	ff ff       	.word	0xffff	; ????
    7114:	ff ff       	.word	0xffff	; ????
    7116:	ff ff       	.word	0xffff	; ????
    7118:	ff ff       	.word	0xffff	; ????
    711a:	ff ff       	.word	0xffff	; ????
    711c:	ff ff       	.word	0xffff	; ????
    711e:	ff ff       	.word	0xffff	; ????
    7120:	ff ff       	.word	0xffff	; ????
    7122:	ff ff       	.word	0xffff	; ????
    7124:	ff ff       	.word	0xffff	; ????
    7126:	ff ff       	.word	0xffff	; ????
    7128:	ff ff       	.word	0xffff	; ????
    712a:	ff ff       	.word	0xffff	; ????
    712c:	ff ff       	.word	0xffff	; ????
    712e:	ff ff       	.word	0xffff	; ????
    7130:	ff ff       	.word	0xffff	; ????
    7132:	ff ff       	.word	0xffff	; ????
    7134:	ff ff       	.word	0xffff	; ????
    7136:	ff ff       	.word	0xffff	; ????
    7138:	ff ff       	.word	0xffff	; ????
    713a:	ff ff       	.word	0xffff	; ????
    713c:	ff ff       	.word	0xffff	; ????
    713e:	ff ff       	.word	0xffff	; ????
    7140:	ff ff       	.word	0xffff	; ????
    7142:	ff ff       	.word	0xffff	; ????
    7144:	ff ff       	.word	0xffff	; ????
    7146:	ff ff       	.word	0xffff	; ????
    7148:	ff ff       	.word	0xffff	; ????
    714a:	ff ff       	.word	0xffff	; ????
    714c:	ff ff       	.word	0xffff	; ????
    714e:	ff ff       	.word	0xffff	; ????
    7150:	ff ff       	.word	0xffff	; ????
    7152:	ff ff       	.word	0xffff	; ????
    7154:	ff ff       	.word	0xffff	; ????
    7156:	ff ff       	.word	0xffff	; ????
    7158:	ff ff       	.word	0xffff	; ????
    715a:	ff ff       	.word	0xffff	; ????
    715c:	ff ff       	.word	0xffff	; ????
    715e:	ff ff       	.word	0xffff	; ????
    7160:	ff ff       	.word	0xffff	; ????
    7162:	ff ff       	.word	0xffff	; ????
    7164:	ff ff       	.word	0xffff	; ????
    7166:	ff ff       	.word	0xffff	; ????
    7168:	ff ff       	.word	0xffff	; ????
    716a:	ff ff       	.word	0xffff	; ????
    716c:	ff ff       	.word	0xffff	; ????
    716e:	ff ff       	.word	0xffff	; ????
    7170:	ff ff       	.word	0xffff	; ????
    7172:	ff ff       	.word	0xffff	; ????
    7174:	ff ff       	.word	0xffff	; ????
    7176:	ff ff       	.word	0xffff	; ????
    7178:	ff ff       	.word	0xffff	; ????
    717a:	ff ff       	.word	0xffff	; ????
    717c:	ff ff       	.word	0xffff	; ????
    717e:	ff ff       	.word	0xffff	; ????
    7180:	ff ff       	.word	0xffff	; ????
    7182:	ff ff       	.word	0xffff	; ????
    7184:	ff ff       	.word	0xffff	; ????
    7186:	ff ff       	.word	0xffff	; ????
    7188:	ff ff       	.word	0xffff	; ????
    718a:	ff ff       	.word	0xffff	; ????
    718c:	ff ff       	.word	0xffff	; ????
    718e:	ff ff       	.word	0xffff	; ????
    7190:	ff ff       	.word	0xffff	; ????
    7192:	ff ff       	.word	0xffff	; ????
    7194:	ff ff       	.word	0xffff	; ????
    7196:	ff ff       	.word	0xffff	; ????
    7198:	ff ff       	.word	0xffff	; ????
    719a:	ff ff       	.word	0xffff	; ????
    719c:	ff ff       	.word	0xffff	; ????
    719e:	ff ff       	.word	0xffff	; ????
    71a0:	ff ff       	.word	0xffff	; ????
    71a2:	ff ff       	.word	0xffff	; ????
    71a4:	ff ff       	.word	0xffff	; ????
    71a6:	ff ff       	.word	0xffff	; ????
    71a8:	ff ff       	.word	0xffff	; ????
    71aa:	ff ff       	.word	0xffff	; ????
    71ac:	ff ff       	.word	0xffff	; ????
    71ae:	ff ff       	.word	0xffff	; ????
    71b0:	ff ff       	.word	0xffff	; ????
    71b2:	ff ff       	.word	0xffff	; ????
    71b4:	ff ff       	.word	0xffff	; ????
    71b6:	ff ff       	.word	0xffff	; ????
    71b8:	ff ff       	.word	0xffff	; ????
    71ba:	ff ff       	.word	0xffff	; ????
    71bc:	ff ff       	.word	0xffff	; ????
    71be:	ff ff       	.word	0xffff	; ????
    71c0:	ff ff       	.word	0xffff	; ????
    71c2:	ff ff       	.word	0xffff	; ????
    71c4:	ff ff       	.word	0xffff	; ????
    71c6:	ff ff       	.word	0xffff	; ????
    71c8:	ff ff       	.word	0xffff	; ????
    71ca:	ff ff       	.word	0xffff	; ????
    71cc:	ff ff       	.word	0xffff	; ????
    71ce:	ff ff       	.word	0xffff	; ????
    71d0:	ff ff       	.word	0xffff	; ????
    71d2:	ff ff       	.word	0xffff	; ????
    71d4:	ff ff       	.word	0xffff	; ????
    71d6:	ff ff       	.word	0xffff	; ????
    71d8:	ff ff       	.word	0xffff	; ????
    71da:	ff ff       	.word	0xffff	; ????
    71dc:	ff ff       	.word	0xffff	; ????
    71de:	ff ff       	.word	0xffff	; ????
    71e0:	ff ff       	.word	0xffff	; ????
    71e2:	ff ff       	.word	0xffff	; ????
    71e4:	ff ff       	.word	0xffff	; ????
    71e6:	ff ff       	.word	0xffff	; ????
    71e8:	ff ff       	.word	0xffff	; ????
    71ea:	ff ff       	.word	0xffff	; ????
    71ec:	ff ff       	.word	0xffff	; ????
    71ee:	ff ff       	.word	0xffff	; ????
    71f0:	ff ff       	.word	0xffff	; ????
    71f2:	ff ff       	.word	0xffff	; ????
    71f4:	ff ff       	.word	0xffff	; ????
    71f6:	ff ff       	.word	0xffff	; ????
    71f8:	ff ff       	.word	0xffff	; ????
    71fa:	ff ff       	.word	0xffff	; ????
    71fc:	ff ff       	.word	0xffff	; ????
    71fe:	ff ff       	.word	0xffff	; ????
    7200:	ff ff       	.word	0xffff	; ????
    7202:	ff ff       	.word	0xffff	; ????
    7204:	ff ff       	.word	0xffff	; ????
    7206:	ff ff       	.word	0xffff	; ????
    7208:	ff ff       	.word	0xffff	; ????
    720a:	ff ff       	.word	0xffff	; ????
    720c:	ff ff       	.word	0xffff	; ????
    720e:	ff ff       	.word	0xffff	; ????
    7210:	ff ff       	.word	0xffff	; ????
    7212:	ff ff       	.word	0xffff	; ????
    7214:	ff ff       	.word	0xffff	; ????
    7216:	ff ff       	.word	0xffff	; ????
    7218:	ff ff       	.word	0xffff	; ????
    721a:	ff ff       	.word	0xffff	; ????
    721c:	ff ff       	.word	0xffff	; ????
    721e:	ff ff       	.word	0xffff	; ????
    7220:	ff ff       	.word	0xffff	; ????
    7222:	ff ff       	.word	0xffff	; ????
    7224:	ff ff       	.word	0xffff	; ????
    7226:	ff ff       	.word	0xffff	; ????
    7228:	ff ff       	.word	0xffff	; ????
    722a:	ff ff       	.word	0xffff	; ????
    722c:	ff ff       	.word	0xffff	; ????
    722e:	ff ff       	.word	0xffff	; ????
    7230:	ff ff       	.word	0xffff	; ????
    7232:	ff ff       	.word	0xffff	; ????
    7234:	ff ff       	.word	0xffff	; ????
    7236:	ff ff       	.word	0xffff	; ????
    7238:	ff ff       	.word	0xffff	; ????
    723a:	ff ff       	.word	0xffff	; ????
    723c:	ff ff       	.word	0xffff	; ????
    723e:	ff ff       	.word	0xffff	; ????
    7240:	ff ff       	.word	0xffff	; ????
    7242:	ff ff       	.word	0xffff	; ????
    7244:	ff ff       	.word	0xffff	; ????
    7246:	ff ff       	.word	0xffff	; ????
    7248:	ff ff       	.word	0xffff	; ????
    724a:	ff ff       	.word	0xffff	; ????
    724c:	ff ff       	.word	0xffff	; ????
    724e:	ff ff       	.word	0xffff	; ????
    7250:	ff ff       	.word	0xffff	; ????
    7252:	ff ff       	.word	0xffff	; ????
    7254:	ff ff       	.word	0xffff	; ????
    7256:	ff ff       	.word	0xffff	; ????
    7258:	ff ff       	.word	0xffff	; ????
    725a:	ff ff       	.word	0xffff	; ????
    725c:	ff ff       	.word	0xffff	; ????
    725e:	ff ff       	.word	0xffff	; ????
    7260:	ff ff       	.word	0xffff	; ????
    7262:	ff ff       	.word	0xffff	; ????
    7264:	ff ff       	.word	0xffff	; ????
    7266:	ff ff       	.word	0xffff	; ????
    7268:	ff ff       	.word	0xffff	; ????
    726a:	ff ff       	.word	0xffff	; ????
    726c:	ff ff       	.word	0xffff	; ????
    726e:	ff ff       	.word	0xffff	; ????
    7270:	ff ff       	.word	0xffff	; ????
    7272:	ff ff       	.word	0xffff	; ????
    7274:	ff ff       	.word	0xffff	; ????
    7276:	ff ff       	.word	0xffff	; ????
    7278:	ff ff       	.word	0xffff	; ????
    727a:	ff ff       	.word	0xffff	; ????
    727c:	ff ff       	.word	0xffff	; ????
    727e:	ff ff       	.word	0xffff	; ????
    7280:	ff ff       	.word	0xffff	; ????
    7282:	ff ff       	.word	0xffff	; ????
    7284:	ff ff       	.word	0xffff	; ????
    7286:	ff ff       	.word	0xffff	; ????
    7288:	ff ff       	.word	0xffff	; ????
    728a:	ff ff       	.word	0xffff	; ????
    728c:	ff ff       	.word	0xffff	; ????
    728e:	ff ff       	.word	0xffff	; ????
    7290:	ff ff       	.word	0xffff	; ????
    7292:	ff ff       	.word	0xffff	; ????
    7294:	ff ff       	.word	0xffff	; ????
    7296:	ff ff       	.word	0xffff	; ????
    7298:	ff ff       	.word	0xffff	; ????
    729a:	ff ff       	.word	0xffff	; ????
    729c:	ff ff       	.word	0xffff	; ????
    729e:	ff ff       	.word	0xffff	; ????
    72a0:	ff ff       	.word	0xffff	; ????
    72a2:	ff ff       	.word	0xffff	; ????
    72a4:	ff ff       	.word	0xffff	; ????
    72a6:	ff ff       	.word	0xffff	; ????
    72a8:	ff ff       	.word	0xffff	; ????
    72aa:	ff ff       	.word	0xffff	; ????
    72ac:	ff ff       	.word	0xffff	; ????
    72ae:	ff ff       	.word	0xffff	; ????
    72b0:	ff ff       	.word	0xffff	; ????
    72b2:	ff ff       	.word	0xffff	; ????
    72b4:	ff ff       	.word	0xffff	; ????
    72b6:	ff ff       	.word	0xffff	; ????
    72b8:	ff ff       	.word	0xffff	; ????
    72ba:	ff ff       	.word	0xffff	; ????
    72bc:	ff ff       	.word	0xffff	; ????
    72be:	ff ff       	.word	0xffff	; ????
    72c0:	ff ff       	.word	0xffff	; ????
    72c2:	ff ff       	.word	0xffff	; ????
    72c4:	ff ff       	.word	0xffff	; ????
    72c6:	ff ff       	.word	0xffff	; ????
    72c8:	ff ff       	.word	0xffff	; ????
    72ca:	ff ff       	.word	0xffff	; ????
    72cc:	ff ff       	.word	0xffff	; ????
    72ce:	ff ff       	.word	0xffff	; ????
    72d0:	ff ff       	.word	0xffff	; ????
    72d2:	ff ff       	.word	0xffff	; ????
    72d4:	ff ff       	.word	0xffff	; ????
    72d6:	ff ff       	.word	0xffff	; ????
    72d8:	ff ff       	.word	0xffff	; ????
    72da:	ff ff       	.word	0xffff	; ????
    72dc:	ff ff       	.word	0xffff	; ????
    72de:	ff ff       	.word	0xffff	; ????
    72e0:	ff ff       	.word	0xffff	; ????
    72e2:	ff ff       	.word	0xffff	; ????
    72e4:	ff ff       	.word	0xffff	; ????
    72e6:	ff ff       	.word	0xffff	; ????
    72e8:	ff ff       	.word	0xffff	; ????
    72ea:	ff ff       	.word	0xffff	; ????
    72ec:	ff ff       	.word	0xffff	; ????
    72ee:	ff ff       	.word	0xffff	; ????
    72f0:	ff ff       	.word	0xffff	; ????
    72f2:	ff ff       	.word	0xffff	; ????
    72f4:	ff ff       	.word	0xffff	; ????
    72f6:	ff ff       	.word	0xffff	; ????
    72f8:	ff ff       	.word	0xffff	; ????
    72fa:	ff ff       	.word	0xffff	; ????
    72fc:	ff ff       	.word	0xffff	; ????
    72fe:	ff ff       	.word	0xffff	; ????
    7300:	ff ff       	.word	0xffff	; ????
    7302:	ff ff       	.word	0xffff	; ????
    7304:	ff ff       	.word	0xffff	; ????
    7306:	ff ff       	.word	0xffff	; ????
    7308:	ff ff       	.word	0xffff	; ????
    730a:	ff ff       	.word	0xffff	; ????
    730c:	ff ff       	.word	0xffff	; ????
    730e:	ff ff       	.word	0xffff	; ????
    7310:	ff ff       	.word	0xffff	; ????
    7312:	ff ff       	.word	0xffff	; ????
    7314:	ff ff       	.word	0xffff	; ????
    7316:	ff ff       	.word	0xffff	; ????
    7318:	ff ff       	.word	0xffff	; ????
    731a:	ff ff       	.word	0xffff	; ????
    731c:	ff ff       	.word	0xffff	; ????
    731e:	ff ff       	.word	0xffff	; ????
    7320:	ff ff       	.word	0xffff	; ????
    7322:	ff ff       	.word	0xffff	; ????
    7324:	ff ff       	.word	0xffff	; ????
    7326:	ff ff       	.word	0xffff	; ????
    7328:	ff ff       	.word	0xffff	; ????
    732a:	ff ff       	.word	0xffff	; ????
    732c:	ff ff       	.word	0xffff	; ????
    732e:	ff ff       	.word	0xffff	; ????
    7330:	ff ff       	.word	0xffff	; ????
    7332:	ff ff       	.word	0xffff	; ????
    7334:	ff ff       	.word	0xffff	; ????
    7336:	ff ff       	.word	0xffff	; ????
    7338:	ff ff       	.word	0xffff	; ????
    733a:	ff ff       	.word	0xffff	; ????
    733c:	ff ff       	.word	0xffff	; ????
    733e:	ff ff       	.word	0xffff	; ????
    7340:	ff ff       	.word	0xffff	; ????
    7342:	ff ff       	.word	0xffff	; ????
    7344:	ff ff       	.word	0xffff	; ????
    7346:	ff ff       	.word	0xffff	; ????
    7348:	ff ff       	.word	0xffff	; ????
    734a:	ff ff       	.word	0xffff	; ????
    734c:	ff ff       	.word	0xffff	; ????
    734e:	ff ff       	.word	0xffff	; ????
    7350:	ff ff       	.word	0xffff	; ????
    7352:	ff ff       	.word	0xffff	; ????
    7354:	ff ff       	.word	0xffff	; ????
    7356:	ff ff       	.word	0xffff	; ????
    7358:	ff ff       	.word	0xffff	; ????
    735a:	ff ff       	.word	0xffff	; ????
    735c:	ff ff       	.word	0xffff	; ????
    735e:	ff ff       	.word	0xffff	; ????
    7360:	ff ff       	.word	0xffff	; ????
    7362:	ff ff       	.word	0xffff	; ????
    7364:	ff ff       	.word	0xffff	; ????
    7366:	ff ff       	.word	0xffff	; ????
    7368:	ff ff       	.word	0xffff	; ????
    736a:	ff ff       	.word	0xffff	; ????
    736c:	ff ff       	.word	0xffff	; ????
    736e:	ff ff       	.word	0xffff	; ????
    7370:	ff ff       	.word	0xffff	; ????
    7372:	ff ff       	.word	0xffff	; ????
    7374:	ff ff       	.word	0xffff	; ????
    7376:	ff ff       	.word	0xffff	; ????
    7378:	ff ff       	.word	0xffff	; ????
    737a:	ff ff       	.word	0xffff	; ????
    737c:	ff ff       	.word	0xffff	; ????
    737e:	ff ff       	.word	0xffff	; ????
    7380:	ff ff       	.word	0xffff	; ????
    7382:	ff ff       	.word	0xffff	; ????
    7384:	ff ff       	.word	0xffff	; ????
    7386:	ff ff       	.word	0xffff	; ????
    7388:	ff ff       	.word	0xffff	; ????
    738a:	ff ff       	.word	0xffff	; ????
    738c:	ff ff       	.word	0xffff	; ????
    738e:	ff ff       	.word	0xffff	; ????
    7390:	ff ff       	.word	0xffff	; ????
    7392:	ff ff       	.word	0xffff	; ????
    7394:	ff ff       	.word	0xffff	; ????
    7396:	ff ff       	.word	0xffff	; ????
    7398:	ff ff       	.word	0xffff	; ????
    739a:	ff ff       	.word	0xffff	; ????
    739c:	ff ff       	.word	0xffff	; ????
    739e:	ff ff       	.word	0xffff	; ????
    73a0:	ff ff       	.word	0xffff	; ????
    73a2:	ff ff       	.word	0xffff	; ????
    73a4:	ff ff       	.word	0xffff	; ????
    73a6:	ff ff       	.word	0xffff	; ????
    73a8:	ff ff       	.word	0xffff	; ????
    73aa:	ff ff       	.word	0xffff	; ????
    73ac:	ff ff       	.word	0xffff	; ????
    73ae:	ff ff       	.word	0xffff	; ????
    73b0:	ff ff       	.word	0xffff	; ????
    73b2:	ff ff       	.word	0xffff	; ????
    73b4:	ff ff       	.word	0xffff	; ????
    73b6:	ff ff       	.word	0xffff	; ????
    73b8:	ff ff       	.word	0xffff	; ????
    73ba:	ff ff       	.word	0xffff	; ????
    73bc:	ff ff       	.word	0xffff	; ????
    73be:	ff ff       	.word	0xffff	; ????
    73c0:	ff ff       	.word	0xffff	; ????
    73c2:	ff ff       	.word	0xffff	; ????
    73c4:	ff ff       	.word	0xffff	; ????
    73c6:	ff ff       	.word	0xffff	; ????
    73c8:	ff ff       	.word	0xffff	; ????
    73ca:	ff ff       	.word	0xffff	; ????
    73cc:	ff ff       	.word	0xffff	; ????
    73ce:	ff ff       	.word	0xffff	; ????
    73d0:	ff ff       	.word	0xffff	; ????
    73d2:	ff ff       	.word	0xffff	; ????
    73d4:	ff ff       	.word	0xffff	; ????
    73d6:	ff ff       	.word	0xffff	; ????
    73d8:	ff ff       	.word	0xffff	; ????
    73da:	ff ff       	.word	0xffff	; ????
    73dc:	ff ff       	.word	0xffff	; ????
    73de:	ff ff       	.word	0xffff	; ????
    73e0:	ff ff       	.word	0xffff	; ????
    73e2:	ff ff       	.word	0xffff	; ????
    73e4:	ff ff       	.word	0xffff	; ????
    73e6:	ff ff       	.word	0xffff	; ????
    73e8:	ff ff       	.word	0xffff	; ????
    73ea:	ff ff       	.word	0xffff	; ????
    73ec:	ff ff       	.word	0xffff	; ????
    73ee:	ff ff       	.word	0xffff	; ????
    73f0:	ff ff       	.word	0xffff	; ????
    73f2:	ff ff       	.word	0xffff	; ????
    73f4:	ff ff       	.word	0xffff	; ????
    73f6:	ff ff       	.word	0xffff	; ????
    73f8:	ff ff       	.word	0xffff	; ????
    73fa:	ff ff       	.word	0xffff	; ????
    73fc:	ff ff       	.word	0xffff	; ????
    73fe:	ff ff       	.word	0xffff	; ????
    7400:	ff ff       	.word	0xffff	; ????
    7402:	ff ff       	.word	0xffff	; ????
    7404:	ff ff       	.word	0xffff	; ????
    7406:	ff ff       	.word	0xffff	; ????
    7408:	ff ff       	.word	0xffff	; ????
    740a:	ff ff       	.word	0xffff	; ????
    740c:	ff ff       	.word	0xffff	; ????
    740e:	ff ff       	.word	0xffff	; ????
    7410:	ff ff       	.word	0xffff	; ????
    7412:	ff ff       	.word	0xffff	; ????
    7414:	ff ff       	.word	0xffff	; ????
    7416:	ff ff       	.word	0xffff	; ????
    7418:	ff ff       	.word	0xffff	; ????
    741a:	ff ff       	.word	0xffff	; ????
    741c:	ff ff       	.word	0xffff	; ????
    741e:	ff ff       	.word	0xffff	; ????
    7420:	ff ff       	.word	0xffff	; ????
    7422:	ff ff       	.word	0xffff	; ????
    7424:	ff ff       	.word	0xffff	; ????
    7426:	ff ff       	.word	0xffff	; ????
    7428:	ff ff       	.word	0xffff	; ????
    742a:	ff ff       	.word	0xffff	; ????
    742c:	ff ff       	.word	0xffff	; ????
    742e:	ff ff       	.word	0xffff	; ????
    7430:	ff ff       	.word	0xffff	; ????
    7432:	ff ff       	.word	0xffff	; ????
    7434:	ff ff       	.word	0xffff	; ????
    7436:	ff ff       	.word	0xffff	; ????
    7438:	ff ff       	.word	0xffff	; ????
    743a:	ff ff       	.word	0xffff	; ????
    743c:	ff ff       	.word	0xffff	; ????
    743e:	ff ff       	.word	0xffff	; ????
    7440:	ff ff       	.word	0xffff	; ????
    7442:	ff ff       	.word	0xffff	; ????
    7444:	ff ff       	.word	0xffff	; ????
    7446:	ff ff       	.word	0xffff	; ????
    7448:	ff ff       	.word	0xffff	; ????
    744a:	ff ff       	.word	0xffff	; ????
    744c:	ff ff       	.word	0xffff	; ????
    744e:	ff ff       	.word	0xffff	; ????
    7450:	ff ff       	.word	0xffff	; ????
    7452:	ff ff       	.word	0xffff	; ????
    7454:	ff ff       	.word	0xffff	; ????
    7456:	ff ff       	.word	0xffff	; ????
    7458:	ff ff       	.word	0xffff	; ????
    745a:	ff ff       	.word	0xffff	; ????
    745c:	ff ff       	.word	0xffff	; ????
    745e:	ff ff       	.word	0xffff	; ????
    7460:	ff ff       	.word	0xffff	; ????
    7462:	ff ff       	.word	0xffff	; ????
    7464:	ff ff       	.word	0xffff	; ????
    7466:	ff ff       	.word	0xffff	; ????
    7468:	ff ff       	.word	0xffff	; ????
    746a:	ff ff       	.word	0xffff	; ????
    746c:	ff ff       	.word	0xffff	; ????
    746e:	ff ff       	.word	0xffff	; ????
    7470:	ff ff       	.word	0xffff	; ????
    7472:	ff ff       	.word	0xffff	; ????
    7474:	ff ff       	.word	0xffff	; ????
    7476:	ff ff       	.word	0xffff	; ????
    7478:	ff ff       	.word	0xffff	; ????
    747a:	ff ff       	.word	0xffff	; ????
    747c:	ff ff       	.word	0xffff	; ????
    747e:	ff ff       	.word	0xffff	; ????
    7480:	ff ff       	.word	0xffff	; ????
    7482:	ff ff       	.word	0xffff	; ????
    7484:	ff ff       	.word	0xffff	; ????
    7486:	ff ff       	.word	0xffff	; ????
    7488:	ff ff       	.word	0xffff	; ????
    748a:	ff ff       	.word	0xffff	; ????
    748c:	ff ff       	.word	0xffff	; ????
    748e:	ff ff       	.word	0xffff	; ????
    7490:	ff ff       	.word	0xffff	; ????
    7492:	ff ff       	.word	0xffff	; ????
    7494:	ff ff       	.word	0xffff	; ????
    7496:	ff ff       	.word	0xffff	; ????
    7498:	ff ff       	.word	0xffff	; ????
    749a:	ff ff       	.word	0xffff	; ????
    749c:	ff ff       	.word	0xffff	; ????
    749e:	ff ff       	.word	0xffff	; ????
    74a0:	ff ff       	.word	0xffff	; ????
    74a2:	ff ff       	.word	0xffff	; ????
    74a4:	ff ff       	.word	0xffff	; ????
    74a6:	ff ff       	.word	0xffff	; ????
    74a8:	ff ff       	.word	0xffff	; ????
    74aa:	ff ff       	.word	0xffff	; ????
    74ac:	ff ff       	.word	0xffff	; ????
    74ae:	ff ff       	.word	0xffff	; ????
    74b0:	ff ff       	.word	0xffff	; ????
    74b2:	ff ff       	.word	0xffff	; ????
    74b4:	ff ff       	.word	0xffff	; ????
    74b6:	ff ff       	.word	0xffff	; ????
    74b8:	ff ff       	.word	0xffff	; ????
    74ba:	ff ff       	.word	0xffff	; ????
    74bc:	ff ff       	.word	0xffff	; ????
    74be:	ff ff       	.word	0xffff	; ????
    74c0:	ff ff       	.word	0xffff	; ????
    74c2:	ff ff       	.word	0xffff	; ????
    74c4:	ff ff       	.word	0xffff	; ????
    74c6:	ff ff       	.word	0xffff	; ????
    74c8:	ff ff       	.word	0xffff	; ????
    74ca:	ff ff       	.word	0xffff	; ????
    74cc:	ff ff       	.word	0xffff	; ????
    74ce:	ff ff       	.word	0xffff	; ????
    74d0:	ff ff       	.word	0xffff	; ????
    74d2:	ff ff       	.word	0xffff	; ????
    74d4:	ff ff       	.word	0xffff	; ????
    74d6:	ff ff       	.word	0xffff	; ????
    74d8:	ff ff       	.word	0xffff	; ????
    74da:	ff ff       	.word	0xffff	; ????
    74dc:	ff ff       	.word	0xffff	; ????
    74de:	ff ff       	.word	0xffff	; ????
    74e0:	ff ff       	.word	0xffff	; ????
    74e2:	ff ff       	.word	0xffff	; ????
    74e4:	ff ff       	.word	0xffff	; ????
    74e6:	ff ff       	.word	0xffff	; ????
    74e8:	ff ff       	.word	0xffff	; ????
    74ea:	ff ff       	.word	0xffff	; ????
    74ec:	ff ff       	.word	0xffff	; ????
    74ee:	ff ff       	.word	0xffff	; ????
    74f0:	ff ff       	.word	0xffff	; ????
    74f2:	ff ff       	.word	0xffff	; ????
    74f4:	ff ff       	.word	0xffff	; ????
    74f6:	ff ff       	.word	0xffff	; ????
    74f8:	ff ff       	.word	0xffff	; ????
    74fa:	ff ff       	.word	0xffff	; ????
    74fc:	ff ff       	.word	0xffff	; ????
    74fe:	ff ff       	.word	0xffff	; ????
    7500:	ff ff       	.word	0xffff	; ????
    7502:	ff ff       	.word	0xffff	; ????
    7504:	ff ff       	.word	0xffff	; ????
    7506:	ff ff       	.word	0xffff	; ????
    7508:	ff ff       	.word	0xffff	; ????
    750a:	ff ff       	.word	0xffff	; ????
    750c:	ff ff       	.word	0xffff	; ????
    750e:	ff ff       	.word	0xffff	; ????
    7510:	ff ff       	.word	0xffff	; ????
    7512:	ff ff       	.word	0xffff	; ????
    7514:	ff ff       	.word	0xffff	; ????
    7516:	ff ff       	.word	0xffff	; ????
    7518:	ff ff       	.word	0xffff	; ????
    751a:	ff ff       	.word	0xffff	; ????
    751c:	ff ff       	.word	0xffff	; ????
    751e:	ff ff       	.word	0xffff	; ????
    7520:	ff ff       	.word	0xffff	; ????
    7522:	ff ff       	.word	0xffff	; ????
    7524:	ff ff       	.word	0xffff	; ????
    7526:	ff ff       	.word	0xffff	; ????
    7528:	ff ff       	.word	0xffff	; ????
    752a:	ff ff       	.word	0xffff	; ????
    752c:	ff ff       	.word	0xffff	; ????
    752e:	ff ff       	.word	0xffff	; ????
    7530:	ff ff       	.word	0xffff	; ????
    7532:	ff ff       	.word	0xffff	; ????
    7534:	ff ff       	.word	0xffff	; ????
    7536:	ff ff       	.word	0xffff	; ????
    7538:	ff ff       	.word	0xffff	; ????
    753a:	ff ff       	.word	0xffff	; ????
    753c:	ff ff       	.word	0xffff	; ????
    753e:	ff ff       	.word	0xffff	; ????
    7540:	ff ff       	.word	0xffff	; ????
    7542:	ff ff       	.word	0xffff	; ????
    7544:	ff ff       	.word	0xffff	; ????
    7546:	ff ff       	.word	0xffff	; ????
    7548:	ff ff       	.word	0xffff	; ????
    754a:	ff ff       	.word	0xffff	; ????
    754c:	ff ff       	.word	0xffff	; ????
    754e:	ff ff       	.word	0xffff	; ????
    7550:	ff ff       	.word	0xffff	; ????
    7552:	ff ff       	.word	0xffff	; ????
    7554:	ff ff       	.word	0xffff	; ????
    7556:	ff ff       	.word	0xffff	; ????
    7558:	ff ff       	.word	0xffff	; ????
    755a:	ff ff       	.word	0xffff	; ????
    755c:	ff ff       	.word	0xffff	; ????
    755e:	ff ff       	.word	0xffff	; ????
    7560:	ff ff       	.word	0xffff	; ????
    7562:	ff ff       	.word	0xffff	; ????
    7564:	ff ff       	.word	0xffff	; ????
    7566:	ff ff       	.word	0xffff	; ????
    7568:	ff ff       	.word	0xffff	; ????
    756a:	ff ff       	.word	0xffff	; ????
    756c:	ff ff       	.word	0xffff	; ????
    756e:	ff ff       	.word	0xffff	; ????
    7570:	ff ff       	.word	0xffff	; ????
    7572:	ff ff       	.word	0xffff	; ????
    7574:	ff ff       	.word	0xffff	; ????
    7576:	ff ff       	.word	0xffff	; ????
    7578:	ff ff       	.word	0xffff	; ????
    757a:	ff ff       	.word	0xffff	; ????
    757c:	ff ff       	.word	0xffff	; ????
    757e:	ff ff       	.word	0xffff	; ????
    7580:	ff ff       	.word	0xffff	; ????
    7582:	ff ff       	.word	0xffff	; ????
    7584:	ff ff       	.word	0xffff	; ????
    7586:	ff ff       	.word	0xffff	; ????
    7588:	ff ff       	.word	0xffff	; ????
    758a:	ff ff       	.word	0xffff	; ????
    758c:	ff ff       	.word	0xffff	; ????
    758e:	ff ff       	.word	0xffff	; ????
    7590:	ff ff       	.word	0xffff	; ????
    7592:	ff ff       	.word	0xffff	; ????
    7594:	ff ff       	.word	0xffff	; ????
    7596:	ff ff       	.word	0xffff	; ????
    7598:	ff ff       	.word	0xffff	; ????
    759a:	ff ff       	.word	0xffff	; ????
    759c:	ff ff       	.word	0xffff	; ????
    759e:	ff ff       	.word	0xffff	; ????
    75a0:	ff ff       	.word	0xffff	; ????
    75a2:	ff ff       	.word	0xffff	; ????
    75a4:	ff ff       	.word	0xffff	; ????
    75a6:	ff ff       	.word	0xffff	; ????
    75a8:	ff ff       	.word	0xffff	; ????
    75aa:	ff ff       	.word	0xffff	; ????
    75ac:	ff ff       	.word	0xffff	; ????
    75ae:	ff ff       	.word	0xffff	; ????
    75b0:	ff ff       	.word	0xffff	; ????
    75b2:	ff ff       	.word	0xffff	; ????
    75b4:	ff ff       	.word	0xffff	; ????
    75b6:	ff ff       	.word	0xffff	; ????
    75b8:	ff ff       	.word	0xffff	; ????
    75ba:	ff ff       	.word	0xffff	; ????
    75bc:	ff ff       	.word	0xffff	; ????
    75be:	ff ff       	.word	0xffff	; ????
    75c0:	ff ff       	.word	0xffff	; ????
    75c2:	ff ff       	.word	0xffff	; ????
    75c4:	ff ff       	.word	0xffff	; ????
    75c6:	ff ff       	.word	0xffff	; ????
    75c8:	ff ff       	.word	0xffff	; ????
    75ca:	ff ff       	.word	0xffff	; ????
    75cc:	ff ff       	.word	0xffff	; ????
    75ce:	ff ff       	.word	0xffff	; ????
    75d0:	ff ff       	.word	0xffff	; ????
    75d2:	ff ff       	.word	0xffff	; ????
    75d4:	ff ff       	.word	0xffff	; ????
    75d6:	ff ff       	.word	0xffff	; ????
    75d8:	ff ff       	.word	0xffff	; ????
    75da:	ff ff       	.word	0xffff	; ????
    75dc:	ff ff       	.word	0xffff	; ????
    75de:	ff ff       	.word	0xffff	; ????
    75e0:	ff ff       	.word	0xffff	; ????
    75e2:	ff ff       	.word	0xffff	; ????
    75e4:	ff ff       	.word	0xffff	; ????
    75e6:	ff ff       	.word	0xffff	; ????
    75e8:	ff ff       	.word	0xffff	; ????
    75ea:	ff ff       	.word	0xffff	; ????
    75ec:	ff ff       	.word	0xffff	; ????
    75ee:	ff ff       	.word	0xffff	; ????
    75f0:	ff ff       	.word	0xffff	; ????
    75f2:	ff ff       	.word	0xffff	; ????
    75f4:	ff ff       	.word	0xffff	; ????
    75f6:	ff ff       	.word	0xffff	; ????
    75f8:	ff ff       	.word	0xffff	; ????
    75fa:	ff ff       	.word	0xffff	; ????
    75fc:	ff ff       	.word	0xffff	; ????
    75fe:	ff ff       	.word	0xffff	; ????
    7600:	ff ff       	.word	0xffff	; ????
    7602:	ff ff       	.word	0xffff	; ????
    7604:	ff ff       	.word	0xffff	; ????
    7606:	ff ff       	.word	0xffff	; ????
    7608:	ff ff       	.word	0xffff	; ????
    760a:	ff ff       	.word	0xffff	; ????
    760c:	ff ff       	.word	0xffff	; ????
    760e:	ff ff       	.word	0xffff	; ????
    7610:	ff ff       	.word	0xffff	; ????
    7612:	ff ff       	.word	0xffff	; ????
    7614:	ff ff       	.word	0xffff	; ????
    7616:	ff ff       	.word	0xffff	; ????
    7618:	ff ff       	.word	0xffff	; ????
    761a:	ff ff       	.word	0xffff	; ????
    761c:	ff ff       	.word	0xffff	; ????
    761e:	ff ff       	.word	0xffff	; ????
    7620:	ff ff       	.word	0xffff	; ????
    7622:	ff ff       	.word	0xffff	; ????
    7624:	ff ff       	.word	0xffff	; ????
    7626:	ff ff       	.word	0xffff	; ????
    7628:	ff ff       	.word	0xffff	; ????
    762a:	ff ff       	.word	0xffff	; ????
    762c:	ff ff       	.word	0xffff	; ????
    762e:	ff ff       	.word	0xffff	; ????
    7630:	ff ff       	.word	0xffff	; ????
    7632:	ff ff       	.word	0xffff	; ????
    7634:	ff ff       	.word	0xffff	; ????
    7636:	ff ff       	.word	0xffff	; ????
    7638:	ff ff       	.word	0xffff	; ????
    763a:	ff ff       	.word	0xffff	; ????
    763c:	ff ff       	.word	0xffff	; ????
    763e:	ff ff       	.word	0xffff	; ????
    7640:	ff ff       	.word	0xffff	; ????
    7642:	ff ff       	.word	0xffff	; ????
    7644:	ff ff       	.word	0xffff	; ????
    7646:	ff ff       	.word	0xffff	; ????
    7648:	ff ff       	.word	0xffff	; ????
    764a:	ff ff       	.word	0xffff	; ????
    764c:	ff ff       	.word	0xffff	; ????
    764e:	ff ff       	.word	0xffff	; ????
    7650:	ff ff       	.word	0xffff	; ????
    7652:	ff ff       	.word	0xffff	; ????
    7654:	ff ff       	.word	0xffff	; ????
    7656:	ff ff       	.word	0xffff	; ????
    7658:	ff ff       	.word	0xffff	; ????
    765a:	ff ff       	.word	0xffff	; ????
    765c:	ff ff       	.word	0xffff	; ????
    765e:	ff ff       	.word	0xffff	; ????
    7660:	ff ff       	.word	0xffff	; ????
    7662:	ff ff       	.word	0xffff	; ????
    7664:	ff ff       	.word	0xffff	; ????
    7666:	ff ff       	.word	0xffff	; ????
    7668:	ff ff       	.word	0xffff	; ????
    766a:	ff ff       	.word	0xffff	; ????
    766c:	ff ff       	.word	0xffff	; ????
    766e:	ff ff       	.word	0xffff	; ????
    7670:	ff ff       	.word	0xffff	; ????
    7672:	ff ff       	.word	0xffff	; ????
    7674:	ff ff       	.word	0xffff	; ????
    7676:	ff ff       	.word	0xffff	; ????
    7678:	ff ff       	.word	0xffff	; ????
    767a:	ff ff       	.word	0xffff	; ????
    767c:	ff ff       	.word	0xffff	; ????
    767e:	ff ff       	.word	0xffff	; ????
    7680:	ff ff       	.word	0xffff	; ????
    7682:	ff ff       	.word	0xffff	; ????
    7684:	ff ff       	.word	0xffff	; ????
    7686:	ff ff       	.word	0xffff	; ????
    7688:	ff ff       	.word	0xffff	; ????
    768a:	ff ff       	.word	0xffff	; ????
    768c:	ff ff       	.word	0xffff	; ????
    768e:	ff ff       	.word	0xffff	; ????
    7690:	ff ff       	.word	0xffff	; ????
    7692:	ff ff       	.word	0xffff	; ????
    7694:	ff ff       	.word	0xffff	; ????
    7696:	ff ff       	.word	0xffff	; ????
    7698:	ff ff       	.word	0xffff	; ????
    769a:	ff ff       	.word	0xffff	; ????
    769c:	ff ff       	.word	0xffff	; ????
    769e:	ff ff       	.word	0xffff	; ????
    76a0:	ff ff       	.word	0xffff	; ????
    76a2:	ff ff       	.word	0xffff	; ????
    76a4:	ff ff       	.word	0xffff	; ????
    76a6:	ff ff       	.word	0xffff	; ????
    76a8:	ff ff       	.word	0xffff	; ????
    76aa:	ff ff       	.word	0xffff	; ????
    76ac:	ff ff       	.word	0xffff	; ????
    76ae:	ff ff       	.word	0xffff	; ????
    76b0:	ff ff       	.word	0xffff	; ????
    76b2:	ff ff       	.word	0xffff	; ????
    76b4:	ff ff       	.word	0xffff	; ????
    76b6:	ff ff       	.word	0xffff	; ????
    76b8:	ff ff       	.word	0xffff	; ????
    76ba:	ff ff       	.word	0xffff	; ????
    76bc:	ff ff       	.word	0xffff	; ????
    76be:	ff ff       	.word	0xffff	; ????
    76c0:	ff ff       	.word	0xffff	; ????
    76c2:	ff ff       	.word	0xffff	; ????
    76c4:	ff ff       	.word	0xffff	; ????
    76c6:	ff ff       	.word	0xffff	; ????
    76c8:	ff ff       	.word	0xffff	; ????
    76ca:	ff ff       	.word	0xffff	; ????
    76cc:	ff ff       	.word	0xffff	; ????
    76ce:	ff ff       	.word	0xffff	; ????
    76d0:	ff ff       	.word	0xffff	; ????
    76d2:	ff ff       	.word	0xffff	; ????
    76d4:	ff ff       	.word	0xffff	; ????
    76d6:	ff ff       	.word	0xffff	; ????
    76d8:	ff ff       	.word	0xffff	; ????
    76da:	ff ff       	.word	0xffff	; ????
    76dc:	ff ff       	.word	0xffff	; ????
    76de:	ff ff       	.word	0xffff	; ????
    76e0:	ff ff       	.word	0xffff	; ????
    76e2:	ff ff       	.word	0xffff	; ????
    76e4:	ff ff       	.word	0xffff	; ????
    76e6:	ff ff       	.word	0xffff	; ????
    76e8:	ff ff       	.word	0xffff	; ????
    76ea:	ff ff       	.word	0xffff	; ????
    76ec:	ff ff       	.word	0xffff	; ????
    76ee:	ff ff       	.word	0xffff	; ????
    76f0:	ff ff       	.word	0xffff	; ????
    76f2:	ff ff       	.word	0xffff	; ????
    76f4:	ff ff       	.word	0xffff	; ????
    76f6:	ff ff       	.word	0xffff	; ????
    76f8:	ff ff       	.word	0xffff	; ????
    76fa:	ff ff       	.word	0xffff	; ????
    76fc:	ff ff       	.word	0xffff	; ????
    76fe:	ff ff       	.word	0xffff	; ????
    7700:	ff ff       	.word	0xffff	; ????
    7702:	ff ff       	.word	0xffff	; ????
    7704:	ff ff       	.word	0xffff	; ????
    7706:	ff ff       	.word	0xffff	; ????
    7708:	ff ff       	.word	0xffff	; ????
    770a:	ff ff       	.word	0xffff	; ????
    770c:	ff ff       	.word	0xffff	; ????
    770e:	ff ff       	.word	0xffff	; ????
    7710:	ff ff       	.word	0xffff	; ????
    7712:	ff ff       	.word	0xffff	; ????
    7714:	ff ff       	.word	0xffff	; ????
    7716:	ff ff       	.word	0xffff	; ????
    7718:	ff ff       	.word	0xffff	; ????
    771a:	ff ff       	.word	0xffff	; ????
    771c:	ff ff       	.word	0xffff	; ????
    771e:	ff ff       	.word	0xffff	; ????
    7720:	ff ff       	.word	0xffff	; ????
    7722:	ff ff       	.word	0xffff	; ????
    7724:	ff ff       	.word	0xffff	; ????
    7726:	ff ff       	.word	0xffff	; ????
    7728:	ff ff       	.word	0xffff	; ????
    772a:	ff ff       	.word	0xffff	; ????
    772c:	ff ff       	.word	0xffff	; ????
    772e:	ff ff       	.word	0xffff	; ????
    7730:	ff ff       	.word	0xffff	; ????
    7732:	ff ff       	.word	0xffff	; ????
    7734:	ff ff       	.word	0xffff	; ????
    7736:	ff ff       	.word	0xffff	; ????
    7738:	ff ff       	.word	0xffff	; ????
    773a:	ff ff       	.word	0xffff	; ????
    773c:	ff ff       	.word	0xffff	; ????
    773e:	ff ff       	.word	0xffff	; ????
    7740:	ff ff       	.word	0xffff	; ????
    7742:	ff ff       	.word	0xffff	; ????
    7744:	ff ff       	.word	0xffff	; ????
    7746:	ff ff       	.word	0xffff	; ????
    7748:	ff ff       	.word	0xffff	; ????
    774a:	ff ff       	.word	0xffff	; ????
    774c:	ff ff       	.word	0xffff	; ????
    774e:	ff ff       	.word	0xffff	; ????
    7750:	ff ff       	.word	0xffff	; ????
    7752:	ff ff       	.word	0xffff	; ????
    7754:	ff ff       	.word	0xffff	; ????
    7756:	ff ff       	.word	0xffff	; ????
    7758:	ff ff       	.word	0xffff	; ????
    775a:	ff ff       	.word	0xffff	; ????
    775c:	ff ff       	.word	0xffff	; ????
    775e:	ff ff       	.word	0xffff	; ????
    7760:	ff ff       	.word	0xffff	; ????
    7762:	ff ff       	.word	0xffff	; ????
    7764:	ff ff       	.word	0xffff	; ????
    7766:	ff ff       	.word	0xffff	; ????
    7768:	ff ff       	.word	0xffff	; ????
    776a:	ff ff       	.word	0xffff	; ????
    776c:	ff ff       	.word	0xffff	; ????
    776e:	ff ff       	.word	0xffff	; ????
    7770:	ff ff       	.word	0xffff	; ????
    7772:	ff ff       	.word	0xffff	; ????
    7774:	ff ff       	.word	0xffff	; ????
    7776:	ff ff       	.word	0xffff	; ????
    7778:	ff ff       	.word	0xffff	; ????
    777a:	ff ff       	.word	0xffff	; ????
    777c:	ff ff       	.word	0xffff	; ????
    777e:	ff ff       	.word	0xffff	; ????
    7780:	ff ff       	.word	0xffff	; ????
    7782:	ff ff       	.word	0xffff	; ????
    7784:	ff ff       	.word	0xffff	; ????
    7786:	ff ff       	.word	0xffff	; ????
    7788:	ff ff       	.word	0xffff	; ????
    778a:	ff ff       	.word	0xffff	; ????
    778c:	ff ff       	.word	0xffff	; ????
    778e:	ff ff       	.word	0xffff	; ????
    7790:	ff ff       	.word	0xffff	; ????
    7792:	ff ff       	.word	0xffff	; ????
    7794:	ff ff       	.word	0xffff	; ????
    7796:	ff ff       	.word	0xffff	; ????
    7798:	ff ff       	.word	0xffff	; ????
    779a:	ff ff       	.word	0xffff	; ????
    779c:	ff ff       	.word	0xffff	; ????
    779e:	ff ff       	.word	0xffff	; ????
    77a0:	ff ff       	.word	0xffff	; ????
    77a2:	ff ff       	.word	0xffff	; ????
    77a4:	ff ff       	.word	0xffff	; ????
    77a6:	ff ff       	.word	0xffff	; ????
    77a8:	ff ff       	.word	0xffff	; ????
    77aa:	ff ff       	.word	0xffff	; ????
    77ac:	ff ff       	.word	0xffff	; ????
    77ae:	ff ff       	.word	0xffff	; ????
    77b0:	ff ff       	.word	0xffff	; ????
    77b2:	ff ff       	.word	0xffff	; ????
    77b4:	ff ff       	.word	0xffff	; ????
    77b6:	ff ff       	.word	0xffff	; ????
    77b8:	ff ff       	.word	0xffff	; ????
    77ba:	ff ff       	.word	0xffff	; ????
    77bc:	ff ff       	.word	0xffff	; ????
    77be:	ff ff       	.word	0xffff	; ????
    77c0:	ff ff       	.word	0xffff	; ????
    77c2:	ff ff       	.word	0xffff	; ????
    77c4:	ff ff       	.word	0xffff	; ????
    77c6:	ff ff       	.word	0xffff	; ????
    77c8:	ff ff       	.word	0xffff	; ????
    77ca:	ff ff       	.word	0xffff	; ????
    77cc:	ff ff       	.word	0xffff	; ????
    77ce:	ff ff       	.word	0xffff	; ????
    77d0:	ff ff       	.word	0xffff	; ????
    77d2:	ff ff       	.word	0xffff	; ????
    77d4:	ff ff       	.word	0xffff	; ????
    77d6:	ff ff       	.word	0xffff	; ????
    77d8:	ff ff       	.word	0xffff	; ????
    77da:	ff ff       	.word	0xffff	; ????
    77dc:	ff ff       	.word	0xffff	; ????
    77de:	ff ff       	.word	0xffff	; ????
    77e0:	ff ff       	.word	0xffff	; ????
    77e2:	ff ff       	.word	0xffff	; ????
    77e4:	ff ff       	.word	0xffff	; ????
    77e6:	ff ff       	.word	0xffff	; ????
    77e8:	ff ff       	.word	0xffff	; ????
    77ea:	ff ff       	.word	0xffff	; ????
    77ec:	ff ff       	.word	0xffff	; ????
    77ee:	ff ff       	.word	0xffff	; ????
    77f0:	ff ff       	.word	0xffff	; ????
    77f2:	ff ff       	.word	0xffff	; ????
    77f4:	ff ff       	.word	0xffff	; ????
    77f6:	ff ff       	.word	0xffff	; ????
    77f8:	ff ff       	.word	0xffff	; ????
    77fa:	ff ff       	.word	0xffff	; ????
    77fc:	ff ff       	.word	0xffff	; ????
    77fe:	ff ff       	.word	0xffff	; ????
    7800:	ff ff       	.word	0xffff	; ????
    7802:	ff ff       	.word	0xffff	; ????
    7804:	ff ff       	.word	0xffff	; ????
    7806:	ff ff       	.word	0xffff	; ????
    7808:	ff ff       	.word	0xffff	; ????
    780a:	ff ff       	.word	0xffff	; ????
    780c:	ff ff       	.word	0xffff	; ????
    780e:	ff ff       	.word	0xffff	; ????
    7810:	ff ff       	.word	0xffff	; ????
    7812:	ff ff       	.word	0xffff	; ????
    7814:	ff ff       	.word	0xffff	; ????
    7816:	ff ff       	.word	0xffff	; ????
    7818:	ff ff       	.word	0xffff	; ????
    781a:	ff ff       	.word	0xffff	; ????
    781c:	ff ff       	.word	0xffff	; ????
    781e:	ff ff       	.word	0xffff	; ????
    7820:	ff ff       	.word	0xffff	; ????
    7822:	ff ff       	.word	0xffff	; ????
    7824:	ff ff       	.word	0xffff	; ????
    7826:	ff ff       	.word	0xffff	; ????
    7828:	ff ff       	.word	0xffff	; ????
    782a:	ff ff       	.word	0xffff	; ????
    782c:	ff ff       	.word	0xffff	; ????
    782e:	ff ff       	.word	0xffff	; ????
    7830:	ff ff       	.word	0xffff	; ????
    7832:	ff ff       	.word	0xffff	; ????
    7834:	ff ff       	.word	0xffff	; ????
    7836:	ff ff       	.word	0xffff	; ????
    7838:	ff ff       	.word	0xffff	; ????
    783a:	ff ff       	.word	0xffff	; ????
    783c:	ff ff       	.word	0xffff	; ????
    783e:	ff ff       	.word	0xffff	; ????
    7840:	ff ff       	.word	0xffff	; ????
    7842:	ff ff       	.word	0xffff	; ????
    7844:	ff ff       	.word	0xffff	; ????
    7846:	ff ff       	.word	0xffff	; ????
    7848:	ff ff       	.word	0xffff	; ????
    784a:	ff ff       	.word	0xffff	; ????
    784c:	ff ff       	.word	0xffff	; ????
    784e:	ff ff       	.word	0xffff	; ????
    7850:	ff ff       	.word	0xffff	; ????
    7852:	ff ff       	.word	0xffff	; ????
    7854:	ff ff       	.word	0xffff	; ????
    7856:	ff ff       	.word	0xffff	; ????
    7858:	ff ff       	.word	0xffff	; ????
    785a:	ff ff       	.word	0xffff	; ????
    785c:	ff ff       	.word	0xffff	; ????
    785e:	ff ff       	.word	0xffff	; ????
    7860:	ff ff       	.word	0xffff	; ????
    7862:	ff ff       	.word	0xffff	; ????
    7864:	ff ff       	.word	0xffff	; ????
    7866:	ff ff       	.word	0xffff	; ????
    7868:	ff ff       	.word	0xffff	; ????
    786a:	ff ff       	.word	0xffff	; ????
    786c:	ff ff       	.word	0xffff	; ????
    786e:	ff ff       	.word	0xffff	; ????
    7870:	ff ff       	.word	0xffff	; ????
    7872:	ff ff       	.word	0xffff	; ????
    7874:	ff ff       	.word	0xffff	; ????
    7876:	ff ff       	.word	0xffff	; ????
    7878:	ff ff       	.word	0xffff	; ????
    787a:	ff ff       	.word	0xffff	; ????
    787c:	ff ff       	.word	0xffff	; ????
    787e:	ff ff       	.word	0xffff	; ????
    7880:	ff ff       	.word	0xffff	; ????
    7882:	ff ff       	.word	0xffff	; ????
    7884:	ff ff       	.word	0xffff	; ????
    7886:	ff ff       	.word	0xffff	; ????
    7888:	ff ff       	.word	0xffff	; ????
    788a:	ff ff       	.word	0xffff	; ????
    788c:	ff ff       	.word	0xffff	; ????
    788e:	ff ff       	.word	0xffff	; ????
    7890:	ff ff       	.word	0xffff	; ????
    7892:	ff ff       	.word	0xffff	; ????
    7894:	ff ff       	.word	0xffff	; ????
    7896:	ff ff       	.word	0xffff	; ????
    7898:	ff ff       	.word	0xffff	; ????
    789a:	ff ff       	.word	0xffff	; ????
    789c:	ff ff       	.word	0xffff	; ????
    789e:	ff ff       	.word	0xffff	; ????
    78a0:	ff ff       	.word	0xffff	; ????
    78a2:	ff ff       	.word	0xffff	; ????
    78a4:	ff ff       	.word	0xffff	; ????
    78a6:	ff ff       	.word	0xffff	; ????
    78a8:	ff ff       	.word	0xffff	; ????
    78aa:	ff ff       	.word	0xffff	; ????
    78ac:	ff ff       	.word	0xffff	; ????
    78ae:	ff ff       	.word	0xffff	; ????
    78b0:	ff ff       	.word	0xffff	; ????
    78b2:	ff ff       	.word	0xffff	; ????
    78b4:	ff ff       	.word	0xffff	; ????
    78b6:	ff ff       	.word	0xffff	; ????
    78b8:	ff ff       	.word	0xffff	; ????
    78ba:	ff ff       	.word	0xffff	; ????
    78bc:	ff ff       	.word	0xffff	; ????
    78be:	ff ff       	.word	0xffff	; ????
    78c0:	ff ff       	.word	0xffff	; ????
    78c2:	ff ff       	.word	0xffff	; ????
    78c4:	ff ff       	.word	0xffff	; ????
    78c6:	ff ff       	.word	0xffff	; ????
    78c8:	ff ff       	.word	0xffff	; ????
    78ca:	ff ff       	.word	0xffff	; ????
    78cc:	ff ff       	.word	0xffff	; ????
    78ce:	ff ff       	.word	0xffff	; ????
    78d0:	ff ff       	.word	0xffff	; ????
    78d2:	ff ff       	.word	0xffff	; ????
    78d4:	ff ff       	.word	0xffff	; ????
    78d6:	ff ff       	.word	0xffff	; ????
    78d8:	ff ff       	.word	0xffff	; ????
    78da:	ff ff       	.word	0xffff	; ????
    78dc:	ff ff       	.word	0xffff	; ????
    78de:	ff ff       	.word	0xffff	; ????
    78e0:	ff ff       	.word	0xffff	; ????
    78e2:	ff ff       	.word	0xffff	; ????
    78e4:	ff ff       	.word	0xffff	; ????
    78e6:	ff ff       	.word	0xffff	; ????
    78e8:	ff ff       	.word	0xffff	; ????
    78ea:	ff ff       	.word	0xffff	; ????
    78ec:	ff ff       	.word	0xffff	; ????
    78ee:	ff ff       	.word	0xffff	; ????
    78f0:	ff ff       	.word	0xffff	; ????
    78f2:	ff ff       	.word	0xffff	; ????
    78f4:	ff ff       	.word	0xffff	; ????
    78f6:	ff ff       	.word	0xffff	; ????
    78f8:	ff ff       	.word	0xffff	; ????
    78fa:	ff ff       	.word	0xffff	; ????
    78fc:	ff ff       	.word	0xffff	; ????
    78fe:	ff ff       	.word	0xffff	; ????
    7900:	ff ff       	.word	0xffff	; ????
    7902:	ff ff       	.word	0xffff	; ????
    7904:	ff ff       	.word	0xffff	; ????
    7906:	ff ff       	.word	0xffff	; ????
    7908:	ff ff       	.word	0xffff	; ????
    790a:	ff ff       	.word	0xffff	; ????
    790c:	ff ff       	.word	0xffff	; ????
    790e:	ff ff       	.word	0xffff	; ????
    7910:	ff ff       	.word	0xffff	; ????
    7912:	ff ff       	.word	0xffff	; ????
    7914:	ff ff       	.word	0xffff	; ????
    7916:	ff ff       	.word	0xffff	; ????
    7918:	ff ff       	.word	0xffff	; ????
    791a:	ff ff       	.word	0xffff	; ????
    791c:	ff ff       	.word	0xffff	; ????
    791e:	ff ff       	.word	0xffff	; ????
    7920:	ff ff       	.word	0xffff	; ????
    7922:	ff ff       	.word	0xffff	; ????
    7924:	ff ff       	.word	0xffff	; ????
    7926:	ff ff       	.word	0xffff	; ????
    7928:	ff ff       	.word	0xffff	; ????
    792a:	ff ff       	.word	0xffff	; ????
    792c:	ff ff       	.word	0xffff	; ????
    792e:	ff ff       	.word	0xffff	; ????
    7930:	ff ff       	.word	0xffff	; ????
    7932:	ff ff       	.word	0xffff	; ????
    7934:	ff ff       	.word	0xffff	; ????
    7936:	ff ff       	.word	0xffff	; ????
    7938:	ff ff       	.word	0xffff	; ????
    793a:	ff ff       	.word	0xffff	; ????
    793c:	ff ff       	.word	0xffff	; ????
    793e:	ff ff       	.word	0xffff	; ????
    7940:	ff ff       	.word	0xffff	; ????
    7942:	ff ff       	.word	0xffff	; ????
    7944:	ff ff       	.word	0xffff	; ????
    7946:	ff ff       	.word	0xffff	; ????
    7948:	ff ff       	.word	0xffff	; ????
    794a:	ff ff       	.word	0xffff	; ????
    794c:	ff ff       	.word	0xffff	; ????
    794e:	ff ff       	.word	0xffff	; ????
    7950:	ff ff       	.word	0xffff	; ????
    7952:	ff ff       	.word	0xffff	; ????
    7954:	ff ff       	.word	0xffff	; ????
    7956:	ff ff       	.word	0xffff	; ????
    7958:	ff ff       	.word	0xffff	; ????
    795a:	ff ff       	.word	0xffff	; ????
    795c:	ff ff       	.word	0xffff	; ????
    795e:	ff ff       	.word	0xffff	; ????
    7960:	ff ff       	.word	0xffff	; ????
    7962:	ff ff       	.word	0xffff	; ????
    7964:	ff ff       	.word	0xffff	; ????
    7966:	ff ff       	.word	0xffff	; ????
    7968:	ff ff       	.word	0xffff	; ????
    796a:	ff ff       	.word	0xffff	; ????
    796c:	ff ff       	.word	0xffff	; ????
    796e:	ff ff       	.word	0xffff	; ????
    7970:	ff ff       	.word	0xffff	; ????
    7972:	ff ff       	.word	0xffff	; ????
    7974:	ff ff       	.word	0xffff	; ????
    7976:	ff ff       	.word	0xffff	; ????
    7978:	ff ff       	.word	0xffff	; ????
    797a:	ff ff       	.word	0xffff	; ????
    797c:	ff ff       	.word	0xffff	; ????
    797e:	ff ff       	.word	0xffff	; ????
    7980:	ff ff       	.word	0xffff	; ????
    7982:	ff ff       	.word	0xffff	; ????
    7984:	ff ff       	.word	0xffff	; ????
    7986:	ff ff       	.word	0xffff	; ????
    7988:	ff ff       	.word	0xffff	; ????
    798a:	ff ff       	.word	0xffff	; ????
    798c:	ff ff       	.word	0xffff	; ????
    798e:	ff ff       	.word	0xffff	; ????
    7990:	ff ff       	.word	0xffff	; ????
    7992:	ff ff       	.word	0xffff	; ????
    7994:	ff ff       	.word	0xffff	; ????
    7996:	ff ff       	.word	0xffff	; ????
    7998:	ff ff       	.word	0xffff	; ????
    799a:	ff ff       	.word	0xffff	; ????
    799c:	ff ff       	.word	0xffff	; ????
    799e:	ff ff       	.word	0xffff	; ????
    79a0:	ff ff       	.word	0xffff	; ????
    79a2:	ff ff       	.word	0xffff	; ????
    79a4:	ff ff       	.word	0xffff	; ????
    79a6:	ff ff       	.word	0xffff	; ????
    79a8:	ff ff       	.word	0xffff	; ????
    79aa:	ff ff       	.word	0xffff	; ????
    79ac:	ff ff       	.word	0xffff	; ????
    79ae:	ff ff       	.word	0xffff	; ????
    79b0:	ff ff       	.word	0xffff	; ????
    79b2:	ff ff       	.word	0xffff	; ????
    79b4:	ff ff       	.word	0xffff	; ????
    79b6:	ff ff       	.word	0xffff	; ????
    79b8:	ff ff       	.word	0xffff	; ????
    79ba:	ff ff       	.word	0xffff	; ????
    79bc:	ff ff       	.word	0xffff	; ????
    79be:	ff ff       	.word	0xffff	; ????
    79c0:	ff ff       	.word	0xffff	; ????
    79c2:	ff ff       	.word	0xffff	; ????
    79c4:	ff ff       	.word	0xffff	; ????
    79c6:	ff ff       	.word	0xffff	; ????
    79c8:	ff ff       	.word	0xffff	; ????
    79ca:	ff ff       	.word	0xffff	; ????
    79cc:	ff ff       	.word	0xffff	; ????
    79ce:	ff ff       	.word	0xffff	; ????
    79d0:	ff ff       	.word	0xffff	; ????
    79d2:	ff ff       	.word	0xffff	; ????
    79d4:	ff ff       	.word	0xffff	; ????
    79d6:	ff ff       	.word	0xffff	; ????
    79d8:	ff ff       	.word	0xffff	; ????
    79da:	ff ff       	.word	0xffff	; ????
    79dc:	ff ff       	.word	0xffff	; ????
    79de:	ff ff       	.word	0xffff	; ????
    79e0:	ff ff       	.word	0xffff	; ????
    79e2:	ff ff       	.word	0xffff	; ????
    79e4:	ff ff       	.word	0xffff	; ????
    79e6:	ff ff       	.word	0xffff	; ????
    79e8:	ff ff       	.word	0xffff	; ????
    79ea:	ff ff       	.word	0xffff	; ????
    79ec:	ff ff       	.word	0xffff	; ????
    79ee:	ff ff       	.word	0xffff	; ????
    79f0:	ff ff       	.word	0xffff	; ????
    79f2:	ff ff       	.word	0xffff	; ????
    79f4:	ff ff       	.word	0xffff	; ????
    79f6:	ff ff       	.word	0xffff	; ????
    79f8:	ff ff       	.word	0xffff	; ????
    79fa:	ff ff       	.word	0xffff	; ????
    79fc:	ff ff       	.word	0xffff	; ????
    79fe:	ff ff       	.word	0xffff	; ????
    7a00:	ff ff       	.word	0xffff	; ????
    7a02:	ff ff       	.word	0xffff	; ????
    7a04:	ff ff       	.word	0xffff	; ????
    7a06:	ff ff       	.word	0xffff	; ????
    7a08:	ff ff       	.word	0xffff	; ????
    7a0a:	ff ff       	.word	0xffff	; ????
    7a0c:	ff ff       	.word	0xffff	; ????
    7a0e:	ff ff       	.word	0xffff	; ????
    7a10:	ff ff       	.word	0xffff	; ????
    7a12:	ff ff       	.word	0xffff	; ????
    7a14:	ff ff       	.word	0xffff	; ????
    7a16:	ff ff       	.word	0xffff	; ????
    7a18:	ff ff       	.word	0xffff	; ????
    7a1a:	ff ff       	.word	0xffff	; ????
    7a1c:	ff ff       	.word	0xffff	; ????
    7a1e:	ff ff       	.word	0xffff	; ????
    7a20:	ff ff       	.word	0xffff	; ????
    7a22:	ff ff       	.word	0xffff	; ????
    7a24:	ff ff       	.word	0xffff	; ????
    7a26:	ff ff       	.word	0xffff	; ????
    7a28:	ff ff       	.word	0xffff	; ????
    7a2a:	ff ff       	.word	0xffff	; ????
    7a2c:	ff ff       	.word	0xffff	; ????
    7a2e:	ff ff       	.word	0xffff	; ????
    7a30:	ff ff       	.word	0xffff	; ????
    7a32:	ff ff       	.word	0xffff	; ????
    7a34:	ff ff       	.word	0xffff	; ????
    7a36:	ff ff       	.word	0xffff	; ????
    7a38:	ff ff       	.word	0xffff	; ????
    7a3a:	ff ff       	.word	0xffff	; ????
    7a3c:	ff ff       	.word	0xffff	; ????
    7a3e:	ff ff       	.word	0xffff	; ????
    7a40:	ff ff       	.word	0xffff	; ????
    7a42:	ff ff       	.word	0xffff	; ????
    7a44:	ff ff       	.word	0xffff	; ????
    7a46:	ff ff       	.word	0xffff	; ????
    7a48:	ff ff       	.word	0xffff	; ????
    7a4a:	ff ff       	.word	0xffff	; ????
    7a4c:	ff ff       	.word	0xffff	; ????
    7a4e:	ff ff       	.word	0xffff	; ????
    7a50:	ff ff       	.word	0xffff	; ????
    7a52:	ff ff       	.word	0xffff	; ????
    7a54:	ff ff       	.word	0xffff	; ????
    7a56:	ff ff       	.word	0xffff	; ????
    7a58:	ff ff       	.word	0xffff	; ????
    7a5a:	ff ff       	.word	0xffff	; ????
    7a5c:	ff ff       	.word	0xffff	; ????
    7a5e:	ff ff       	.word	0xffff	; ????
    7a60:	ff ff       	.word	0xffff	; ????
    7a62:	ff ff       	.word	0xffff	; ????
    7a64:	ff ff       	.word	0xffff	; ????
    7a66:	ff ff       	.word	0xffff	; ????
    7a68:	ff ff       	.word	0xffff	; ????
    7a6a:	ff ff       	.word	0xffff	; ????
    7a6c:	ff ff       	.word	0xffff	; ????
    7a6e:	ff ff       	.word	0xffff	; ????
    7a70:	ff ff       	.word	0xffff	; ????
    7a72:	ff ff       	.word	0xffff	; ????
    7a74:	ff ff       	.word	0xffff	; ????
    7a76:	ff ff       	.word	0xffff	; ????
    7a78:	ff ff       	.word	0xffff	; ????
    7a7a:	ff ff       	.word	0xffff	; ????
    7a7c:	ff ff       	.word	0xffff	; ????
    7a7e:	ff ff       	.word	0xffff	; ????
    7a80:	ff ff       	.word	0xffff	; ????
    7a82:	ff ff       	.word	0xffff	; ????
    7a84:	ff ff       	.word	0xffff	; ????
    7a86:	ff ff       	.word	0xffff	; ????
    7a88:	ff ff       	.word	0xffff	; ????
    7a8a:	ff ff       	.word	0xffff	; ????
    7a8c:	ff ff       	.word	0xffff	; ????
    7a8e:	ff ff       	.word	0xffff	; ????
    7a90:	ff ff       	.word	0xffff	; ????
    7a92:	ff ff       	.word	0xffff	; ????
    7a94:	ff ff       	.word	0xffff	; ????
    7a96:	ff ff       	.word	0xffff	; ????
    7a98:	ff ff       	.word	0xffff	; ????
    7a9a:	ff ff       	.word	0xffff	; ????
    7a9c:	ff ff       	.word	0xffff	; ????
    7a9e:	ff ff       	.word	0xffff	; ????
    7aa0:	ff ff       	.word	0xffff	; ????
    7aa2:	ff ff       	.word	0xffff	; ????
    7aa4:	ff ff       	.word	0xffff	; ????
    7aa6:	ff ff       	.word	0xffff	; ????
    7aa8:	ff ff       	.word	0xffff	; ????
    7aaa:	ff ff       	.word	0xffff	; ????
    7aac:	ff ff       	.word	0xffff	; ????
    7aae:	ff ff       	.word	0xffff	; ????
    7ab0:	ff ff       	.word	0xffff	; ????
    7ab2:	ff ff       	.word	0xffff	; ????
    7ab4:	ff ff       	.word	0xffff	; ????
    7ab6:	ff ff       	.word	0xffff	; ????
    7ab8:	ff ff       	.word	0xffff	; ????
    7aba:	ff ff       	.word	0xffff	; ????
    7abc:	ff ff       	.word	0xffff	; ????
    7abe:	ff ff       	.word	0xffff	; ????
    7ac0:	ff ff       	.word	0xffff	; ????
    7ac2:	ff ff       	.word	0xffff	; ????
    7ac4:	ff ff       	.word	0xffff	; ????
    7ac6:	ff ff       	.word	0xffff	; ????
    7ac8:	ff ff       	.word	0xffff	; ????
    7aca:	ff ff       	.word	0xffff	; ????
    7acc:	ff ff       	.word	0xffff	; ????
    7ace:	ff ff       	.word	0xffff	; ????
    7ad0:	ff ff       	.word	0xffff	; ????
    7ad2:	ff ff       	.word	0xffff	; ????
    7ad4:	ff ff       	.word	0xffff	; ????
    7ad6:	ff ff       	.word	0xffff	; ????
    7ad8:	ff ff       	.word	0xffff	; ????
    7ada:	ff ff       	.word	0xffff	; ????
    7adc:	ff ff       	.word	0xffff	; ????
    7ade:	ff ff       	.word	0xffff	; ????
    7ae0:	ff ff       	.word	0xffff	; ????
    7ae2:	ff ff       	.word	0xffff	; ????
    7ae4:	ff ff       	.word	0xffff	; ????
    7ae6:	ff ff       	.word	0xffff	; ????
    7ae8:	ff ff       	.word	0xffff	; ????
    7aea:	ff ff       	.word	0xffff	; ????
    7aec:	ff ff       	.word	0xffff	; ????
    7aee:	ff ff       	.word	0xffff	; ????
    7af0:	ff ff       	.word	0xffff	; ????
    7af2:	ff ff       	.word	0xffff	; ????
    7af4:	ff ff       	.word	0xffff	; ????
    7af6:	ff ff       	.word	0xffff	; ????
    7af8:	ff ff       	.word	0xffff	; ????
    7afa:	ff ff       	.word	0xffff	; ????
    7afc:	ff ff       	.word	0xffff	; ????
    7afe:	ff ff       	.word	0xffff	; ????
    7b00:	ff ff       	.word	0xffff	; ????
    7b02:	ff ff       	.word	0xffff	; ????
    7b04:	ff ff       	.word	0xffff	; ????
    7b06:	ff ff       	.word	0xffff	; ????
    7b08:	ff ff       	.word	0xffff	; ????
    7b0a:	ff ff       	.word	0xffff	; ????
    7b0c:	ff ff       	.word	0xffff	; ????
    7b0e:	ff ff       	.word	0xffff	; ????
    7b10:	ff ff       	.word	0xffff	; ????
    7b12:	ff ff       	.word	0xffff	; ????
    7b14:	ff ff       	.word	0xffff	; ????
    7b16:	ff ff       	.word	0xffff	; ????
    7b18:	ff ff       	.word	0xffff	; ????
    7b1a:	ff ff       	.word	0xffff	; ????
    7b1c:	ff ff       	.word	0xffff	; ????
    7b1e:	ff ff       	.word	0xffff	; ????
    7b20:	ff ff       	.word	0xffff	; ????
    7b22:	ff ff       	.word	0xffff	; ????
    7b24:	ff ff       	.word	0xffff	; ????
    7b26:	ff ff       	.word	0xffff	; ????
    7b28:	ff ff       	.word	0xffff	; ????
    7b2a:	ff ff       	.word	0xffff	; ????
    7b2c:	ff ff       	.word	0xffff	; ????
    7b2e:	ff ff       	.word	0xffff	; ????
    7b30:	ff ff       	.word	0xffff	; ????
    7b32:	ff ff       	.word	0xffff	; ????
    7b34:	ff ff       	.word	0xffff	; ????
    7b36:	ff ff       	.word	0xffff	; ????
    7b38:	ff ff       	.word	0xffff	; ????
    7b3a:	ff ff       	.word	0xffff	; ????
    7b3c:	ff ff       	.word	0xffff	; ????
    7b3e:	ff ff       	.word	0xffff	; ????
    7b40:	ff ff       	.word	0xffff	; ????
    7b42:	ff ff       	.word	0xffff	; ????
    7b44:	ff ff       	.word	0xffff	; ????
    7b46:	ff ff       	.word	0xffff	; ????
    7b48:	ff ff       	.word	0xffff	; ????
    7b4a:	ff ff       	.word	0xffff	; ????
    7b4c:	ff ff       	.word	0xffff	; ????
    7b4e:	ff ff       	.word	0xffff	; ????
    7b50:	ff ff       	.word	0xffff	; ????
    7b52:	ff ff       	.word	0xffff	; ????
    7b54:	ff ff       	.word	0xffff	; ????
    7b56:	ff ff       	.word	0xffff	; ????
    7b58:	ff ff       	.word	0xffff	; ????
    7b5a:	ff ff       	.word	0xffff	; ????
    7b5c:	ff ff       	.word	0xffff	; ????
    7b5e:	ff ff       	.word	0xffff	; ????
    7b60:	ff ff       	.word	0xffff	; ????
    7b62:	ff ff       	.word	0xffff	; ????
    7b64:	ff ff       	.word	0xffff	; ????
    7b66:	ff ff       	.word	0xffff	; ????
    7b68:	ff ff       	.word	0xffff	; ????
    7b6a:	ff ff       	.word	0xffff	; ????
    7b6c:	ff ff       	.word	0xffff	; ????
    7b6e:	ff ff       	.word	0xffff	; ????
    7b70:	ff ff       	.word	0xffff	; ????
    7b72:	ff ff       	.word	0xffff	; ????
    7b74:	ff ff       	.word	0xffff	; ????
    7b76:	ff ff       	.word	0xffff	; ????
    7b78:	ff ff       	.word	0xffff	; ????
    7b7a:	ff ff       	.word	0xffff	; ????
    7b7c:	ff ff       	.word	0xffff	; ????
    7b7e:	ff ff       	.word	0xffff	; ????
    7b80:	ff ff       	.word	0xffff	; ????
    7b82:	ff ff       	.word	0xffff	; ????
    7b84:	ff ff       	.word	0xffff	; ????
    7b86:	ff ff       	.word	0xffff	; ????
    7b88:	ff ff       	.word	0xffff	; ????
    7b8a:	ff ff       	.word	0xffff	; ????
    7b8c:	ff ff       	.word	0xffff	; ????
    7b8e:	ff ff       	.word	0xffff	; ????
    7b90:	ff ff       	.word	0xffff	; ????
    7b92:	ff ff       	.word	0xffff	; ????
    7b94:	ff ff       	.word	0xffff	; ????
    7b96:	ff ff       	.word	0xffff	; ????
    7b98:	ff ff       	.word	0xffff	; ????
    7b9a:	ff ff       	.word	0xffff	; ????
    7b9c:	ff ff       	.word	0xffff	; ????
    7b9e:	ff ff       	.word	0xffff	; ????
    7ba0:	ff ff       	.word	0xffff	; ????
    7ba2:	ff ff       	.word	0xffff	; ????
    7ba4:	ff ff       	.word	0xffff	; ????
    7ba6:	ff ff       	.word	0xffff	; ????
    7ba8:	ff ff       	.word	0xffff	; ????
    7baa:	ff ff       	.word	0xffff	; ????
    7bac:	ff ff       	.word	0xffff	; ????
    7bae:	ff ff       	.word	0xffff	; ????
    7bb0:	ff ff       	.word	0xffff	; ????
    7bb2:	ff ff       	.word	0xffff	; ????
    7bb4:	ff ff       	.word	0xffff	; ????
    7bb6:	ff ff       	.word	0xffff	; ????
    7bb8:	ff ff       	.word	0xffff	; ????
    7bba:	ff ff       	.word	0xffff	; ????
    7bbc:	ff ff       	.word	0xffff	; ????
    7bbe:	ff ff       	.word	0xffff	; ????
    7bc0:	ff ff       	.word	0xffff	; ????
    7bc2:	ff ff       	.word	0xffff	; ????
    7bc4:	ff ff       	.word	0xffff	; ????
    7bc6:	ff ff       	.word	0xffff	; ????
    7bc8:	ff ff       	.word	0xffff	; ????
    7bca:	ff ff       	.word	0xffff	; ????
    7bcc:	ff ff       	.word	0xffff	; ????
    7bce:	ff ff       	.word	0xffff	; ????
    7bd0:	ff ff       	.word	0xffff	; ????
    7bd2:	ff ff       	.word	0xffff	; ????
    7bd4:	ff ff       	.word	0xffff	; ????
    7bd6:	ff ff       	.word	0xffff	; ????
    7bd8:	ff ff       	.word	0xffff	; ????
    7bda:	ff ff       	.word	0xffff	; ????
    7bdc:	ff ff       	.word	0xffff	; ????
    7bde:	ff ff       	.word	0xffff	; ????
    7be0:	ff ff       	.word	0xffff	; ????
    7be2:	ff ff       	.word	0xffff	; ????
    7be4:	ff ff       	.word	0xffff	; ????
    7be6:	ff ff       	.word	0xffff	; ????
    7be8:	ff ff       	.word	0xffff	; ????
    7bea:	ff ff       	.word	0xffff	; ????
    7bec:	ff ff       	.word	0xffff	; ????
    7bee:	ff ff       	.word	0xffff	; ????
    7bf0:	ff ff       	.word	0xffff	; ????
    7bf2:	ff ff       	.word	0xffff	; ????
    7bf4:	ff ff       	.word	0xffff	; ????
    7bf6:	ff ff       	.word	0xffff	; ????
    7bf8:	ff ff       	.word	0xffff	; ????
    7bfa:	ff ff       	.word	0xffff	; ????
    7bfc:	ff ff       	.word	0xffff	; ????
    7bfe:	ff ff       	.word	0xffff	; ????
    7c00:	ff ff       	.word	0xffff	; ????
    7c02:	ff ff       	.word	0xffff	; ????
    7c04:	ff ff       	.word	0xffff	; ????
    7c06:	ff ff       	.word	0xffff	; ????
    7c08:	ff ff       	.word	0xffff	; ????
    7c0a:	ff ff       	.word	0xffff	; ????
    7c0c:	ff ff       	.word	0xffff	; ????
    7c0e:	ff ff       	.word	0xffff	; ????
    7c10:	ff ff       	.word	0xffff	; ????
    7c12:	ff ff       	.word	0xffff	; ????
    7c14:	ff ff       	.word	0xffff	; ????
    7c16:	ff ff       	.word	0xffff	; ????
    7c18:	ff ff       	.word	0xffff	; ????
    7c1a:	ff ff       	.word	0xffff	; ????
    7c1c:	ff ff       	.word	0xffff	; ????
    7c1e:	ff ff       	.word	0xffff	; ????
    7c20:	ff ff       	.word	0xffff	; ????
    7c22:	ff ff       	.word	0xffff	; ????
    7c24:	ff ff       	.word	0xffff	; ????
    7c26:	ff ff       	.word	0xffff	; ????
    7c28:	ff ff       	.word	0xffff	; ????
    7c2a:	ff ff       	.word	0xffff	; ????
    7c2c:	ff ff       	.word	0xffff	; ????
    7c2e:	ff ff       	.word	0xffff	; ????
    7c30:	ff ff       	.word	0xffff	; ????
    7c32:	ff ff       	.word	0xffff	; ????
    7c34:	ff ff       	.word	0xffff	; ????
    7c36:	ff ff       	.word	0xffff	; ????
    7c38:	ff ff       	.word	0xffff	; ????
    7c3a:	ff ff       	.word	0xffff	; ????
    7c3c:	ff ff       	.word	0xffff	; ????
    7c3e:	ff ff       	.word	0xffff	; ????
    7c40:	ff ff       	.word	0xffff	; ????
    7c42:	ff ff       	.word	0xffff	; ????
    7c44:	ff ff       	.word	0xffff	; ????
    7c46:	ff ff       	.word	0xffff	; ????
    7c48:	ff ff       	.word	0xffff	; ????
    7c4a:	ff ff       	.word	0xffff	; ????
    7c4c:	ff ff       	.word	0xffff	; ????
    7c4e:	ff ff       	.word	0xffff	; ????
    7c50:	ff ff       	.word	0xffff	; ????
    7c52:	ff ff       	.word	0xffff	; ????
    7c54:	ff ff       	.word	0xffff	; ????
    7c56:	ff ff       	.word	0xffff	; ????
    7c58:	ff ff       	.word	0xffff	; ????
    7c5a:	ff ff       	.word	0xffff	; ????
    7c5c:	ff ff       	.word	0xffff	; ????
    7c5e:	ff ff       	.word	0xffff	; ????
    7c60:	ff ff       	.word	0xffff	; ????
    7c62:	ff ff       	.word	0xffff	; ????
    7c64:	ff ff       	.word	0xffff	; ????
    7c66:	ff ff       	.word	0xffff	; ????
    7c68:	ff ff       	.word	0xffff	; ????
    7c6a:	ff ff       	.word	0xffff	; ????
    7c6c:	ff ff       	.word	0xffff	; ????
    7c6e:	ff ff       	.word	0xffff	; ????
    7c70:	ff ff       	.word	0xffff	; ????
    7c72:	ff ff       	.word	0xffff	; ????
    7c74:	ff ff       	.word	0xffff	; ????
    7c76:	ff ff       	.word	0xffff	; ????
    7c78:	ff ff       	.word	0xffff	; ????
    7c7a:	ff ff       	.word	0xffff	; ????
    7c7c:	ff ff       	.word	0xffff	; ????
    7c7e:	ff ff       	.word	0xffff	; ????
    7c80:	ff ff       	.word	0xffff	; ????
    7c82:	ff ff       	.word	0xffff	; ????
    7c84:	ff ff       	.word	0xffff	; ????
    7c86:	ff ff       	.word	0xffff	; ????
    7c88:	ff ff       	.word	0xffff	; ????
    7c8a:	ff ff       	.word	0xffff	; ????
    7c8c:	ff ff       	.word	0xffff	; ????
    7c8e:	ff ff       	.word	0xffff	; ????
    7c90:	ff ff       	.word	0xffff	; ????
    7c92:	ff ff       	.word	0xffff	; ????
    7c94:	ff ff       	.word	0xffff	; ????
    7c96:	ff ff       	.word	0xffff	; ????
    7c98:	ff ff       	.word	0xffff	; ????
    7c9a:	ff ff       	.word	0xffff	; ????
    7c9c:	ff ff       	.word	0xffff	; ????
    7c9e:	ff ff       	.word	0xffff	; ????
    7ca0:	ff ff       	.word	0xffff	; ????
    7ca2:	ff ff       	.word	0xffff	; ????
    7ca4:	ff ff       	.word	0xffff	; ????
    7ca6:	ff ff       	.word	0xffff	; ????
    7ca8:	ff ff       	.word	0xffff	; ????
    7caa:	ff ff       	.word	0xffff	; ????
    7cac:	ff ff       	.word	0xffff	; ????
    7cae:	ff ff       	.word	0xffff	; ????
    7cb0:	ff ff       	.word	0xffff	; ????
    7cb2:	ff ff       	.word	0xffff	; ????
    7cb4:	ff ff       	.word	0xffff	; ????
    7cb6:	ff ff       	.word	0xffff	; ????
    7cb8:	ff ff       	.word	0xffff	; ????
    7cba:	ff ff       	.word	0xffff	; ????
    7cbc:	ff ff       	.word	0xffff	; ????
    7cbe:	ff ff       	.word	0xffff	; ????
    7cc0:	ff ff       	.word	0xffff	; ????
    7cc2:	ff ff       	.word	0xffff	; ????
    7cc4:	ff ff       	.word	0xffff	; ????
    7cc6:	ff ff       	.word	0xffff	; ????
    7cc8:	ff ff       	.word	0xffff	; ????
    7cca:	ff ff       	.word	0xffff	; ????
    7ccc:	ff ff       	.word	0xffff	; ????
    7cce:	ff ff       	.word	0xffff	; ????
    7cd0:	ff ff       	.word	0xffff	; ????
    7cd2:	ff ff       	.word	0xffff	; ????
    7cd4:	ff ff       	.word	0xffff	; ????
    7cd6:	ff ff       	.word	0xffff	; ????
    7cd8:	ff ff       	.word	0xffff	; ????
    7cda:	ff ff       	.word	0xffff	; ????
    7cdc:	ff ff       	.word	0xffff	; ????
    7cde:	ff ff       	.word	0xffff	; ????
    7ce0:	ff ff       	.word	0xffff	; ????
    7ce2:	ff ff       	.word	0xffff	; ????
    7ce4:	ff ff       	.word	0xffff	; ????
    7ce6:	ff ff       	.word	0xffff	; ????
    7ce8:	ff ff       	.word	0xffff	; ????
    7cea:	ff ff       	.word	0xffff	; ????
    7cec:	ff ff       	.word	0xffff	; ????
    7cee:	ff ff       	.word	0xffff	; ????
    7cf0:	ff ff       	.word	0xffff	; ????
    7cf2:	ff ff       	.word	0xffff	; ????
    7cf4:	ff ff       	.word	0xffff	; ????
    7cf6:	ff ff       	.word	0xffff	; ????
    7cf8:	ff ff       	.word	0xffff	; ????
    7cfa:	ff ff       	.word	0xffff	; ????
    7cfc:	ff ff       	.word	0xffff	; ????
    7cfe:	ff ff       	.word	0xffff	; ????
    7d00:	ff ff       	.word	0xffff	; ????
    7d02:	ff ff       	.word	0xffff	; ????
    7d04:	ff ff       	.word	0xffff	; ????
    7d06:	ff ff       	.word	0xffff	; ????
    7d08:	ff ff       	.word	0xffff	; ????
    7d0a:	ff ff       	.word	0xffff	; ????
    7d0c:	ff ff       	.word	0xffff	; ????
    7d0e:	ff ff       	.word	0xffff	; ????
    7d10:	ff ff       	.word	0xffff	; ????
    7d12:	ff ff       	.word	0xffff	; ????
    7d14:	ff ff       	.word	0xffff	; ????
    7d16:	ff ff       	.word	0xffff	; ????
    7d18:	ff ff       	.word	0xffff	; ????
    7d1a:	ff ff       	.word	0xffff	; ????
    7d1c:	ff ff       	.word	0xffff	; ????
    7d1e:	ff ff       	.word	0xffff	; ????
    7d20:	ff ff       	.word	0xffff	; ????
    7d22:	ff ff       	.word	0xffff	; ????
    7d24:	ff ff       	.word	0xffff	; ????
    7d26:	ff ff       	.word	0xffff	; ????
    7d28:	ff ff       	.word	0xffff	; ????
    7d2a:	ff ff       	.word	0xffff	; ????
    7d2c:	ff ff       	.word	0xffff	; ????
    7d2e:	ff ff       	.word	0xffff	; ????
    7d30:	ff ff       	.word	0xffff	; ????
    7d32:	ff ff       	.word	0xffff	; ????
    7d34:	ff ff       	.word	0xffff	; ????
    7d36:	ff ff       	.word	0xffff	; ????
    7d38:	ff ff       	.word	0xffff	; ????
    7d3a:	ff ff       	.word	0xffff	; ????
    7d3c:	ff ff       	.word	0xffff	; ????
    7d3e:	ff ff       	.word	0xffff	; ????
    7d40:	ff ff       	.word	0xffff	; ????
    7d42:	ff ff       	.word	0xffff	; ????
    7d44:	ff ff       	.word	0xffff	; ????
    7d46:	ff ff       	.word	0xffff	; ????
    7d48:	ff ff       	.word	0xffff	; ????
    7d4a:	ff ff       	.word	0xffff	; ????
    7d4c:	ff ff       	.word	0xffff	; ????
    7d4e:	ff ff       	.word	0xffff	; ????
    7d50:	ff ff       	.word	0xffff	; ????
    7d52:	ff ff       	.word	0xffff	; ????
    7d54:	ff ff       	.word	0xffff	; ????
    7d56:	ff ff       	.word	0xffff	; ????
    7d58:	ff ff       	.word	0xffff	; ????
    7d5a:	ff ff       	.word	0xffff	; ????
    7d5c:	ff ff       	.word	0xffff	; ????
    7d5e:	ff ff       	.word	0xffff	; ????
    7d60:	ff ff       	.word	0xffff	; ????
    7d62:	ff ff       	.word	0xffff	; ????
    7d64:	ff ff       	.word	0xffff	; ????
    7d66:	ff ff       	.word	0xffff	; ????
    7d68:	ff ff       	.word	0xffff	; ????
    7d6a:	ff ff       	.word	0xffff	; ????
    7d6c:	ff ff       	.word	0xffff	; ????
    7d6e:	ff ff       	.word	0xffff	; ????
    7d70:	ff ff       	.word	0xffff	; ????
    7d72:	ff ff       	.word	0xffff	; ????
    7d74:	ff ff       	.word	0xffff	; ????
    7d76:	ff ff       	.word	0xffff	; ????
    7d78:	ff ff       	.word	0xffff	; ????
    7d7a:	ff ff       	.word	0xffff	; ????
    7d7c:	ff ff       	.word	0xffff	; ????
    7d7e:	ff ff       	.word	0xffff	; ????
    7d80:	ff ff       	.word	0xffff	; ????
    7d82:	ff ff       	.word	0xffff	; ????
    7d84:	ff ff       	.word	0xffff	; ????
    7d86:	ff ff       	.word	0xffff	; ????
    7d88:	ff ff       	.word	0xffff	; ????
    7d8a:	ff ff       	.word	0xffff	; ????
    7d8c:	ff ff       	.word	0xffff	; ????
    7d8e:	ff ff       	.word	0xffff	; ????
    7d90:	ff ff       	.word	0xffff	; ????
    7d92:	ff ff       	.word	0xffff	; ????
    7d94:	ff ff       	.word	0xffff	; ????
    7d96:	ff ff       	.word	0xffff	; ????
    7d98:	ff ff       	.word	0xffff	; ????
    7d9a:	ff ff       	.word	0xffff	; ????
    7d9c:	ff ff       	.word	0xffff	; ????
    7d9e:	ff ff       	.word	0xffff	; ????
    7da0:	ff ff       	.word	0xffff	; ????
    7da2:	ff ff       	.word	0xffff	; ????
    7da4:	ff ff       	.word	0xffff	; ????
    7da6:	ff ff       	.word	0xffff	; ????
    7da8:	ff ff       	.word	0xffff	; ????
    7daa:	ff ff       	.word	0xffff	; ????
    7dac:	ff ff       	.word	0xffff	; ????
    7dae:	ff ff       	.word	0xffff	; ????
    7db0:	ff ff       	.word	0xffff	; ????
    7db2:	ff ff       	.word	0xffff	; ????
    7db4:	ff ff       	.word	0xffff	; ????
    7db6:	ff ff       	.word	0xffff	; ????
    7db8:	ff ff       	.word	0xffff	; ????
    7dba:	ff ff       	.word	0xffff	; ????
    7dbc:	ff ff       	.word	0xffff	; ????
    7dbe:	ff ff       	.word	0xffff	; ????
    7dc0:	ff ff       	.word	0xffff	; ????
    7dc2:	ff ff       	.word	0xffff	; ????
    7dc4:	ff ff       	.word	0xffff	; ????
    7dc6:	ff ff       	.word	0xffff	; ????
    7dc8:	ff ff       	.word	0xffff	; ????
    7dca:	ff ff       	.word	0xffff	; ????
    7dcc:	ff ff       	.word	0xffff	; ????
    7dce:	ff ff       	.word	0xffff	; ????
    7dd0:	ff ff       	.word	0xffff	; ????
    7dd2:	ff ff       	.word	0xffff	; ????
    7dd4:	ff ff       	.word	0xffff	; ????
    7dd6:	ff ff       	.word	0xffff	; ????
    7dd8:	ff ff       	.word	0xffff	; ????
    7dda:	ff ff       	.word	0xffff	; ????
    7ddc:	ff ff       	.word	0xffff	; ????
    7dde:	ff ff       	.word	0xffff	; ????
    7de0:	ff ff       	.word	0xffff	; ????
    7de2:	ff ff       	.word	0xffff	; ????
    7de4:	ff ff       	.word	0xffff	; ????
    7de6:	ff ff       	.word	0xffff	; ????
    7de8:	ff ff       	.word	0xffff	; ????
    7dea:	ff ff       	.word	0xffff	; ????
    7dec:	ff ff       	.word	0xffff	; ????
    7dee:	ff ff       	.word	0xffff	; ????
    7df0:	ff ff       	.word	0xffff	; ????
    7df2:	ff ff       	.word	0xffff	; ????
    7df4:	ff ff       	.word	0xffff	; ????
    7df6:	ff ff       	.word	0xffff	; ????
    7df8:	ff ff       	.word	0xffff	; ????
    7dfa:	ff ff       	.word	0xffff	; ????
    7dfc:	ff ff       	.word	0xffff	; ????
    7dfe:	ff ff       	.word	0xffff	; ????
    7e00:	11 24       	eor	r1, r1
    7e02:	84 b7       	in	r24, 0x34	; 52
    7e04:	14 be       	out	0x34, r1	; 52
    7e06:	81 ff       	sbrs	r24, 1
    7e08:	f0 d0       	rcall	.+480    	;  0x7fea
    7e0a:	85 e0       	ldi	r24, 0x05	; 5
    7e0c:	80 93 81 00 	sts	0x0081, r24	;  0x800081
    7e10:	82 e0       	ldi	r24, 0x02	; 2
    7e12:	80 93 c0 00 	sts	0x00C0, r24	;  0x8000c0
    7e16:	88 e1       	ldi	r24, 0x18	; 24
    7e18:	80 93 c1 00 	sts	0x00C1, r24	;  0x8000c1
    7e1c:	86 e0       	ldi	r24, 0x06	; 6
    7e1e:	80 93 c2 00 	sts	0x00C2, r24	;  0x8000c2
    7e22:	80 e1       	ldi	r24, 0x10	; 16
    7e24:	80 93 c4 00 	sts	0x00C4, r24	;  0x8000c4
    7e28:	8e e0       	ldi	r24, 0x0E	; 14
    7e2a:	c9 d0       	rcall	.+402    	;  0x7fbe
    7e2c:	25 9a       	sbi	0x04, 5	; 4
    7e2e:	86 e0       	ldi	r24, 0x06	; 6
    7e30:	20 e3       	ldi	r18, 0x30	; 48
    7e32:	3c ef       	ldi	r19, 0xFC	; 252
    7e34:	91 e0       	ldi	r25, 0x01	; 1
    7e36:	30 93 85 00 	sts	0x0085, r19	;  0x800085
    7e3a:	20 93 84 00 	sts	0x0084, r18	;  0x800084
    7e3e:	96 bb       	out	0x16, r25	; 22
    7e40:	b0 9b       	sbis	0x16, 0	; 22
    7e42:	fe cf       	rjmp	.-4      	;  0x7e40
    7e44:	1d 9a       	sbi	0x03, 5	; 3
    7e46:	a8 95       	wdr
    7e48:	81 50       	subi	r24, 0x01	; 1
    7e4a:	a9 f7       	brne	.-22     	;  0x7e36
    7e4c:	cc 24       	eor	r12, r12
    7e4e:	dd 24       	eor	r13, r13
    7e50:	88 24       	eor	r8, r8
    7e52:	83 94       	inc	r8
    7e54:	b5 e0       	ldi	r27, 0x05	; 5
    7e56:	ab 2e       	mov	r10, r27
    7e58:	a1 e1       	ldi	r26, 0x11	; 17
    7e5a:	9a 2e       	mov	r9, r26
    7e5c:	f3 e0       	ldi	r31, 0x03	; 3
    7e5e:	bf 2e       	mov	r11, r31
    7e60:	a2 d0       	rcall	.+324    	;  0x7fa6
    7e62:	81 34       	cpi	r24, 0x41	; 65
    7e64:	61 f4       	brne	.+24     	;  0x7e7e
    7e66:	9f d0       	rcall	.+318    	;  0x7fa6
    7e68:	08 2f       	mov	r16, r24
    7e6a:	af d0       	rcall	.+350    	;  0x7fca
    7e6c:	02 38       	cpi	r16, 0x82	; 130
    7e6e:	11 f0       	breq	.+4      	;  0x7e74
    7e70:	01 38       	cpi	r16, 0x81	; 129
    7e72:	11 f4       	brne	.+4      	;  0x7e78
    7e74:	84 e0       	ldi	r24, 0x04	; 4
    7e76:	01 c0       	rjmp	.+2      	;  0x7e7a
    7e78:	83 e0       	ldi	r24, 0x03	; 3
    7e7a:	8d d0       	rcall	.+282    	;  0x7f96
    7e7c:	89 c0       	rjmp	.+274    	;  0x7f90
    7e7e:	82 34       	cpi	r24, 0x42	; 66
    7e80:	11 f4       	brne	.+4      	;  0x7e86
    7e82:	84 e1       	ldi	r24, 0x14	; 20
    7e84:	03 c0       	rjmp	.+6      	;  0x7e8c
    7e86:	85 34       	cpi	r24, 0x45	; 69
    7e88:	19 f4       	brne	.+6      	;  0x7e90
    7e8a:	85 e0       	ldi	r24, 0x05	; 5
    7e8c:	a6 d0       	rcall	.+332    	;  0x7fda
    7e8e:	80 c0       	rjmp	.+256    	;  0x7f90
    7e90:	85 35       	cpi	r24, 0x55	; 85
    7e92:	79 f4       	brne	.+30     	;  0x7eb2
    7e94:	88 d0       	rcall	.+272    	;  0x7fa6
    7e96:	e8 2e       	mov	r14, r24
    7e98:	ff 24       	eor	r15, r15
    7e9a:	85 d0       	rcall	.+266    	;  0x7fa6
    7e9c:	08 2f       	mov	r16, r24
    7e9e:	10 e0       	ldi	r17, 0x00	; 0
    7ea0:	10 2f       	mov	r17, r16
    7ea2:	00 27       	eor	r16, r16
    7ea4:	0e 29       	or	r16, r14
    7ea6:	1f 29       	or	r17, r15
    7ea8:	00 0f       	add	r16, r16
    7eaa:	11 1f       	adc	r17, r17
    7eac:	8e d0       	rcall	.+284    	;  0x7fca
    7eae:	68 01       	movw	r12, r16
    7eb0:	6f c0       	rjmp	.+222    	;  0x7f90
    7eb2:	86 35       	cpi	r24, 0x56	; 86
    7eb4:	21 f4       	brne	.+8      	;  0x7ebe
    7eb6:	84 e0       	ldi	r24, 0x04	; 4
    7eb8:	90 d0       	rcall	.+288    	;  0x7fda
    7eba:	80 e0       	ldi	r24, 0x00	; 0
    7ebc:	de cf       	rjmp	.-68     	;  0x7e7a
    7ebe:	84 36       	cpi	r24, 0x64	; 100
    7ec0:	09 f0       	breq	.+2      	;  0x7ec4
    7ec2:	40 c0       	rjmp	.+128    	;  0x7f44
    7ec4:	70 d0       	rcall	.+224    	;  0x7fa6
    7ec6:	6f d0       	rcall	.+222    	;  0x7fa6
    7ec8:	08 2f       	mov	r16, r24
    7eca:	6d d0       	rcall	.+218    	;  0x7fa6
    7ecc:	80 e0       	ldi	r24, 0x00	; 0
    7ece:	c8 16       	cp	r12, r24
    7ed0:	80 e7       	ldi	r24, 0x70	; 112
    7ed2:	d8 06       	cpc	r13, r24
    7ed4:	18 f4       	brcc	.+6      	;  0x7edc
    7ed6:	f6 01       	movw	r30, r12
    7ed8:	b7 be       	out	0x37, r11	; 55
    7eda:	e8 95       	spm
    7edc:	c0 e0       	ldi	r28, 0x00	; 0
    7ede:	d1 e0       	ldi	r29, 0x01	; 1
    7ee0:	62 d0       	rcall	.+196    	;  0x7fa6
    7ee2:	89 93       	st	Y+, r24
    7ee4:	0c 17       	cp	r16, r28
    7ee6:	e1 f7       	brne	.-8      	;  0x7ee0
    7ee8:	f0 e0       	ldi	r31, 0x00	; 0
    7eea:	cf 16       	cp	r12, r31
    7eec:	f0 e7       	ldi	r31, 0x70	; 112
    7eee:	df 06       	cpc	r13, r31
    7ef0:	18 f0       	brcs	.+6      	;  0x7ef8
    7ef2:	f6 01       	movw	r30, r12
    7ef4:	b7 be       	out	0x37, r11	; 55
    7ef6:	e8 95       	spm
    7ef8:	68 d0       	rcall	.+208    	;  0x7fca
    7efa:	07 b6       	in	r0, 0x37	; 55
    7efc:	00 fc       	sbrc	r0, 0
    7efe:	fd cf       	rjmp	.-6      	;  0x7efa
    7f00:	a6 01       	movw	r20, r12
    7f02:	a0 e0       	ldi	r26, 0x00	; 0
    7f04:	b1 e0       	ldi	r27, 0x01	; 1
    7f06:	2c 91       	ld	r18, X
    7f08:	30 e0       	ldi	r19, 0x00	; 0
    7f0a:	11 96       	adiw	r26, 0x01	; 1
    7f0c:	8c 91       	ld	r24, X
    7f0e:	11 97       	sbiw	r26, 0x01	; 1
    7f10:	90 e0       	ldi	r25, 0x00	; 0
    7f12:	98 2f       	mov	r25, r24
    7f14:	88 27       	eor	r24, r24
    7f16:	82 2b       	or	r24, r18
    7f18:	93 2b       	or	r25, r19
    7f1a:	12 96       	adiw	r26, 0x02	; 2
    7f1c:	fa 01       	movw	r30, r20
    7f1e:	0c 01       	movw	r0, r24
    7f20:	87 be       	out	0x37, r8	; 55
    7f22:	e8 95       	spm
    7f24:	11 24       	eor	r1, r1
    7f26:	4e 5f       	subi	r20, 0xFE	; 254
    7f28:	5f 4f       	sbci	r21, 0xFF	; 255
    7f2a:	f1 e0       	ldi	r31, 0x01	; 1
    7f2c:	a0 38       	cpi	r26, 0x80	; 128
    7f2e:	bf 07       	cpc	r27, r31
    7f30:	51 f7       	brne	.-44     	;  0x7f06
    7f32:	f6 01       	movw	r30, r12
    7f34:	a7 be       	out	0x37, r10	; 55
    7f36:	e8 95       	spm
    7f38:	07 b6       	in	r0, 0x37	; 55
    7f3a:	00 fc       	sbrc	r0, 0
    7f3c:	fd cf       	rjmp	.-6      	;  0x7f38
    7f3e:	97 be       	out	0x37, r9	; 55
    7f40:	e8 95       	spm
    7f42:	26 c0       	rjmp	.+76     	;  0x7f90
    7f44:	84 37       	cpi	r24, 0x74	; 116
    7f46:	b1 f4       	brne	.+44     	;  0x7f74
    7f48:	2e d0       	rcall	.+92     	;  0x7fa6
    7f4a:	2d d0       	rcall	.+90     	;  0x7fa6
    7f4c:	f8 2e       	mov	r15, r24
    7f4e:	2b d0       	rcall	.+86     	;  0x7fa6
    7f50:	3c d0       	rcall	.+120    	;  0x7fca
    7f52:	f6 01       	movw	r30, r12
    7f54:	ef 2c       	mov	r14, r15
    7f56:	8f 01       	movw	r16, r30
    7f58:	0f 5f       	subi	r16, 0xFF	; 255
    7f5a:	1f 4f       	sbci	r17, 0xFF	; 255
    7f5c:	84 91       	lpm	r24, Z
    7f5e:	1b d0       	rcall	.+54     	;  0x7f96
    7f60:	ea 94       	dec	r14
    7f62:	f8 01       	movw	r30, r16
    7f64:	c1 f7       	brne	.-16     	;  0x7f56
    7f66:	08 94       	sec
    7f68:	c1 1c       	adc	r12, r1
    7f6a:	d1 1c       	adc	r13, r1
    7f6c:	fa 94       	dec	r15
    7f6e:	cf 0c       	add	r12, r15
    7f70:	d1 1c       	adc	r13, r1
    7f72:	0e c0       	rjmp	.+28     	;  0x7f90
    7f74:	85 37       	cpi	r24, 0x75	; 117
    7f76:	39 f4       	brne	.+14     	;  0x7f86
    7f78:	28 d0       	rcall	.+80     	;  0x7fca
    7f7a:	8e e1       	ldi	r24, 0x1E	; 30
    7f7c:	0c d0       	rcall	.+24     	;  0x7f96
    7f7e:	85 e9       	ldi	r24, 0x95	; 149
    7f80:	0a d0       	rcall	.+20     	;  0x7f96
    7f82:	8f e0       	ldi	r24, 0x0F	; 15
    7f84:	7a cf       	rjmp	.-268    	;  0x7e7a
    7f86:	81 35       	cpi	r24, 0x51	; 81
    7f88:	11 f4       	brne	.+4      	;  0x7f8e
    7f8a:	88 e0       	ldi	r24, 0x08	; 8
    7f8c:	18 d0       	rcall	.+48     	;  0x7fbe
    7f8e:	1d d0       	rcall	.+58     	;  0x7fca
    7f90:	80 e1       	ldi	r24, 0x10	; 16
    7f92:	01 d0       	rcall	.+2      	;  0x7f96
    7f94:	65 cf       	rjmp	.-310    	;  0x7e60
    7f96:	98 2f       	mov	r25, r24
    7f98:	80 91 c0 00 	lds	r24, 0x00C0	;  0x8000c0
    7f9c:	85 ff       	sbrs	r24, 5
    7f9e:	fc cf       	rjmp	.-8      	;  0x7f98
    7fa0:	90 93 c6 00 	sts	0x00C6, r25	;  0x8000c6
    7fa4:	08 95       	ret
    7fa6:	80 91 c0 00 	lds	r24, 0x00C0	;  0x8000c0
    7faa:	87 ff       	sbrs	r24, 7
    7fac:	fc cf       	rjmp	.-8      	;  0x7fa6
    7fae:	80 91 c0 00 	lds	r24, 0x00C0	;  0x8000c0
    7fb2:	84 fd       	sbrc	r24, 4
    7fb4:	01 c0       	rjmp	.+2      	;  0x7fb8
    7fb6:	a8 95       	wdr
    7fb8:	80 91 c6 00 	lds	r24, 0x00C6	;  0x8000c6
    7fbc:	08 95       	ret
    7fbe:	e0 e6       	ldi	r30, 0x60	; 96
    7fc0:	f0 e0       	ldi	r31, 0x00	; 0
    7fc2:	98 e1       	ldi	r25, 0x18	; 24
    7fc4:	90 83       	st	Z, r25
    7fc6:	80 83       	st	Z, r24
    7fc8:	08 95       	ret
    7fca:	ed df       	rcall	.-38     	;  0x7fa6
    7fcc:	80 32       	cpi	r24, 0x20	; 32
    7fce:	19 f0       	breq	.+6      	;  0x7fd6
    7fd0:	88 e0       	ldi	r24, 0x08	; 8
    7fd2:	f5 df       	rcall	.-22     	;  0x7fbe
    7fd4:	ff cf       	rjmp	.-2      	;  0x7fd4
    7fd6:	84 e1       	ldi	r24, 0x14	; 20
    7fd8:	de cf       	rjmp	.-68     	;  0x7f96
    7fda:	1f 93       	push	r17
    7fdc:	18 2f       	mov	r17, r24
    7fde:	e3 df       	rcall	.-58     	;  0x7fa6
    7fe0:	11 50       	subi	r17, 0x01	; 1
    7fe2:	e9 f7       	brne	.-6      	;  0x7fde
    7fe4:	f2 df       	rcall	.-28     	;  0x7fca
    7fe6:	1f 91       	pop	r17
    7fe8:	08 95       	ret
    7fea:	80 e0       	ldi	r24, 0x00	; 0
    7fec:	e8 df       	rcall	.-48     	;  0x7fbe
    7fee:	ee 27       	eor	r30, r30
    7ff0:	ff 27       	eor	r31, r31
    7ff2:	09 94       	ijmp
    7ff4:	ff ff       	.word	0xffff	; ????
    7ff6:	ff ff       	.word	0xffff	; ????
    7ff8:	ff ff       	.word	0xffff	; ????
    7ffa:	ff ff       	.word	0xffff	; ????
    7ffc:	ff ff       	.word	0xffff	; ????
    7ffe:	04 04       	cpc	r0, r4
